(dp1
S'entering'
p2
(dp3
S'forward'
p4
((lp5
(lp6
(iutilities.FSA
FSA
p7
(dp8
S'fsaname'
p9
S'NP_event1'
p10
sS'finalStates'
p11
(lp12
I2
asS'_isTrimmed'
p13
I1
sS'alphabet'
p14
NsS'label'
p15
S'[_{_\'_n_o_d_e_T_y_p_e_\'_:_ _\'_T_o_k_e_n_\'_,_ _\'_p_o_s_\'_:_ _\'_P_D_T_\'_}_,_ _\'_?_\'_,_ _{_\'_t_e_x_t_\'_:_ _[_\'_"_\'_,_ _\'_`_`_\'_,_ _"_\'_\'_"_]_}_,_ _\'_?_\'_,_ _\'_(_\'_,_ _{_\'_n_o_d_e_T_y_p_e_\'_:_ _\'_T_o_k_e_n_\'_,_ _\'_p_o_s_\'_:_ _[_\'_J_J_\'_,_ _\'_J_J_R_\'_,_ _\'_J_J_S_\'_,_ _\'_D_T_\'_,_ _\'_P_D_T_\'_,_ _\'_P_O_S_\'_,_ _\'_C_D_\'_,_ _\'_S_Y_M_\'_]_}_,_ _\'_*_\'_,_ _{_\'_n_o_d_e_T_y_p_e_\'_:_ _\'_N_o_u_n_C_h_u_n_k_\'_}_,_ _{_\'_t_e_x_t_\'_:_ _\'_o_f_\'_}_,_ _\'_)_\'_,_ _\'_*_\'_,_ _{_\'_n_o_d_e_T_y_p_e_\'_:_ _\'_N_o_u_n_C_h_u_n_k_\'_,_ _\'_e_v_e_n_t_S_t_a_t_u_s_\'_:_ _\'_1_\'_}_]'
p16
sS'initialState'
p17
I0
sS'states'
p18
(lp19
I0
aI2
aI4
aI3
aI1
aI5
asS'_arcMetadata'
p20
(dp21
sS'_isSorted'
p22
I1
sS'transitions'
p23
(lp24
(I0
I1
S"{'nodeType': 'NounChunk'}"
p25
tp26
a(I0
I2
S"{'nodeType': 'NounChunk', 'eventStatus': '1'}"
p27
tp28
a(I0
I3
S"{'nodeType': 'Token', 'pos': 'PDT'}"
tp29
a(I0
I4
S'{\'text\': [\'"\', \'``\', "\'\'"]}'
p30
tp31
a(I0
I5
S"{'nodeType': 'Token', 'pos': ['JJ', 'JJR', 'JJS', 'DT', 'PDT', 'POS', 'CD', 'SYM']}"
p32
tp33
a(I1
I4
S"{'text': 'of'}"
tp34
a(I3
I1
g25
tp35
a(I3
I2
g27
tp36
a(I3
I4
g30
tp37
a(I3
I5
g32
tp38
a(I4
I1
g25
tp39
a(I4
I2
g27
tp40
a(I4
I5
g32
tp41
a(I5
I1
g25
tp42
a(I5
I5
g32
tp43
asS'_isDeterminized'
p44
I1
sS'_isMinimized'
p45
I1
sba(iutilities.FSA
FSA
p46
(dp47
g9
S'NP_event2'
p48
sg11
(lp49
I2
asg13
I1
sg14
Nsg15
S'[_{_\'_n_o_d_e_T_y_p_e_\'_:_ _\'_T_o_k_e_n_\'_,_ _\'_p_o_s_\'_:_ _\'_P_D_T_\'_}_,_ _\'_?_\'_,_ _{_\'_t_e_x_t_\'_:_ _[_\'_"_\'_,_ _\'_`_`_\'_,_ _"_\'_\'_"_]_}_,_ _\'_?_\'_,_ _{_\'_n_o_d_e_T_y_p_e_\'_:_ _\'_T_o_k_e_n_\'_,_ _\'_p_o_s_\'_:_ _\'_D_T_\'_}_,_ _\'_?_\'_,_ _{_\'_t_e_x_t_\'_:_ _[_\'_"_\'_,_ _\'_`_`_\'_,_ _"_\'_\'_"_]_}_,_ _\'_?_\'_,_ _\'_(_\'_,_ _{_\'_n_o_d_e_T_y_p_e_\'_:_ _\'_T_o_k_e_n_\'_,_ _\'_p_o_s_\'_:_ _[_\'_J_J_\'_,_ _\'_J_J_R_\'_,_ _\'_J_J_S_\'_]_}_,_ _\'_|_\'_,_ _{_\'_n_o_d_e_T_y_p_e_\'_:_ _\'_V_e_r_b_C_h_u_n_k_\'_,_ _\'_p_o_s_\'_:_ _[_\'_V_G_B_\'_,_ _\'_V_B_N_\'_]_}_,_ _\'_|_\'_,_ _{_\'_p_o_s_\'_:_ _\'_S_Y_M_\'_}_,_ _\'_)_\'_,_ _\'_*_\'_,_ _{_\'_t_e_x_t_\'_:_ _[_\'_"_\'_,_ _\'_`_`_\'_,_ _"_\'_\'_"_]_}_,_ _\'_?_\'_,_ _{_\'_n_o_d_e_T_y_p_e_\'_:_ _\'_T_o_k_e_n_\'_,_ _\'_p_o_s_\'_:_ _\'_C_D_\'_}_,_ _\'_*_\'_,_ _{_\'_t_e_x_t_\'_:_ _[_\'_"_\'_,_ _\'_`_`_\'_,_ _"_\'_\'_"_]_}_,_ _\'_?_\'_,_ _{_\'_n_o_d_e_T_y_p_e_\'_:_ _\'_N_o_u_n_C_h_u_n_k_\'_,_ _\'_e_v_e_n_t_S_t_a_t_u_s_\'_:_ _\'_1_\'_}_]'
p50
sg17
I0
sg18
(lp51
I0
aI5
aI2
aI6
aI3
aI1
aI4
aI7
asg20
(dp52
sg22
I1
sg23
(lp53
(I0
I1
S"{'nodeType': 'Token', 'pos': ['JJ', 'JJR', 'JJS']}"
tp54
a(I0
I1
S"{'nodeType': 'VerbChunk', 'pos': ['VGB', 'VBN']}"
tp55
a(I0
I1
S"{'pos': 'SYM'}"
tp56
a(I0
I2
S"{'nodeType': 'NounChunk', 'eventStatus': '1'}"
p57
tp58
a(I0
I3
S"{'nodeType': 'Token', 'pos': 'PDT'}"
tp59
a(I0
I4
S'{\'text\': [\'"\', \'``\', "\'\'"]}'
p60
tp61
a(I0
I5
S"{'nodeType': 'Token', 'pos': 'CD'}"
p62
tp63
a(I0
I6
S"{'nodeType': 'Token', 'pos': 'DT'}"
p64
tp65
a(I1
I1
S"{'nodeType': 'Token', 'pos': ['JJ', 'JJR', 'JJS']}"
tp66
a(I1
I1
S"{'nodeType': 'VerbChunk', 'pos': ['VGB', 'VBN']}"
tp67
a(I1
I1
S"{'pos': 'SYM'}"
tp68
a(I1
I2
g57
tp69
a(I1
I5
S"{'nodeType': 'Token', 'pos': 'CD'}"
tp70
a(I1
I5
S'{\'text\': [\'"\', \'``\', "\'\'"]}'
tp71
a(I3
I1
S"{'nodeType': 'Token', 'pos': ['JJ', 'JJR', 'JJS']}"
tp72
a(I3
I1
S"{'nodeType': 'VerbChunk', 'pos': ['VGB', 'VBN']}"
tp73
a(I3
I1
S"{'pos': 'SYM'}"
tp74
a(I3
I2
g57
tp75
a(I3
I4
g60
tp76
a(I3
I5
g62
tp77
a(I3
I6
g64
tp78
a(I4
I1
S"{'nodeType': 'Token', 'pos': ['JJ', 'JJR', 'JJS']}"
tp79
a(I4
I1
S"{'nodeType': 'VerbChunk', 'pos': ['VGB', 'VBN']}"
tp80
a(I4
I1
S"{'pos': 'SYM'}"
tp81
a(I4
I1
S'{\'text\': [\'"\', \'``\', "\'\'"]}'
tp82
a(I4
I2
g57
tp83
a(I4
I5
g62
tp84
a(I4
I6
g64
tp85
a(I5
I2
g57
tp86
a(I5
I7
S'{\'text\': [\'"\', \'``\', "\'\'"]}'
tp87
a(I5
I5
g62
tp88
a(I6
I1
S"{'nodeType': 'Token', 'pos': ['JJ', 'JJR', 'JJS']}"
tp89
a(I6
I1
S"{'nodeType': 'VerbChunk', 'pos': ['VGB', 'VBN']}"
tp90
a(I6
I1
S"{'pos': 'SYM'}"
tp91
a(I6
I1
S'{\'text\': [\'"\', \'``\', "\'\'"]}'
tp92
a(I6
I2
g57
tp93
a(I6
I5
g62
tp94
a(I7
I2
g57
tp95
asg44
I1
sg45
I1
sbaa(lp96
S'INITIATES'
p97
atp98
ssS'keeps'
p99
(dp100
g4
((lp101
(lp102
(iutilities.FSA
FSA
p103
(dp104
g9
S'IngClause'
p105
sg11
(lp106
I2
asg13
I1
sg14
Nsg15
S"[_{_'_n_o_d_e_T_y_p_e_'_:_ _'_T_o_k_e_n_'_,_ _'_p_o_s_'_:_ _'_P_D_T_'_}_,_ _'_?_'_,_ _{_'_n_o_d_e_T_y_p_e_'_:_ _'_N_o_u_n_C_h_u_n_k_'_}_,_ _'_?_'_,_ _{_'_n_o_d_e_T_y_p_e_'_:_ _'_V_e_r_b_C_h_u_n_k_'_,_ _'_e_v_e_n_t_S_t_a_t_u_s_'_:_ _'_1_'_,_ _'_p_o_s_'_:_ _'_V_B_G_'_}_]"
p107
sg17
I0
sg18
(lp108
I2
aI0
aI3
aI1
asg20
(dp109
sg22
I1
sg23
(lp110
(I0
I1
S"{'nodeType': 'NounChunk'}"
p111
tp112
a(I0
I2
S"{'nodeType': 'VerbChunk', 'eventStatus': '1', 'pos': 'VBG'}"
p113
tp114
a(I0
I3
S"{'nodeType': 'Token', 'pos': 'PDT'}"
tp115
a(I1
I2
g113
tp116
a(I3
I1
g111
tp117
a(I3
I2
g113
tp118
asg44
I1
sg45
I1
sba(iutilities.FSA
FSA
p119
(dp120
g9
S'objectCompl_pastPart'
p121
sg11
(lp122
I3
asg13
I1
sg14
Nsg15
S"[_'_(_'_,_ _{_'_n_o_d_e_T_y_p_e_'_:_ _'_T_o_k_e_n_'_,_ _'_p_o_s_'_:_ _'_P_D_T_'_}_,_ _'_|_'_,_ _{_'_n_o_d_e_T_y_p_e_'_:_ _'_T_o_k_e_n_'_,_ _'_p_o_s_'_:_ _'_D_T_'_}_,_ _{_'_n_o_d_e_T_y_p_e_'_:_ _'_T_o_k_e_n_'_,_ _'_p_o_s_'_:_ _'_I_N_'_}_,_ _'_)_'_,_ _'_?_'_,_ _'_(_'_,_ _{_'_n_o_d_e_T_y_p_e_'_:_ _'_N_o_u_n_C_h_u_n_k_'_}_,_ _'_(_'_,_ _{_'_n_o_d_e_T_y_p_e_'_:_ _'_T_o_k_e_n_'_,_ _'_p_o_s_'_:_ _'_I_N_'_}_,_ _'_|_'_,_ _{_'_t_e_x_t_'_:_ _[_'_a_n_d_'_,_ _'_o_r_'_]_,_ _'_n_o_d_e_T_y_p_e_'_:_ _'_T_o_k_e_n_'_,_ _'_p_o_s_'_:_ _'_C_C_'_}_,_ _'_)_'_,_ _{_'_n_o_d_e_T_y_p_e_'_:_ _'_N_o_u_n_C_h_u_n_k_'_}_,_ _'_(_'_,_ _{_'_n_o_d_e_T_y_p_e_'_:_ _'_T_o_k_e_n_'_,_ _'_p_o_s_'_:_ _'_I_N_'_}_,_ _{_'_n_o_d_e_T_y_p_e_'_:_ _'_N_o_u_n_C_h_u_n_k_'_}_,_ _'_)_'_,_ _'_?_'_,_ _'_|_'_,_ _'_(_'_,_ _{_'_n_o_d_e_T_y_p_e_'_:_ _'_T_o_k_e_n_'_,_ _'_p_o_s_'_:_ _[_'_P_P_'_,_ _'_P_P_$_'_,_ _'_P_R_P_$_'_,_ _'_P_R_P_'_]_}_,_ _'_|_'_,_ _{_'_n_o_d_e_T_y_p_e_'_:_ _'_N_o_u_n_C_h_u_n_k_'_}_,_ _'_)_'_,_ _'_|_'_,_ _{_'_t_e_x_t_'_:_ _[_'_t_h_i_s_'_,_ _'_t_h_a_t_'_,_ _'_t_h_e_s_e_'_,_ _'_t_h_o_s_e_'_]_,_ _'_n_o_d_e_T_y_p_e_'_:_ _'_T_o_k_e_n_'_}_,_ _'_|_'_,_ _{_'_n_o_d_e_T_y_p_e_'_:_ _'_T_o_k_e_n_'_,_ _'_p_o_s_'_:_ _'_D_T_'_}_,_ _'_(_'_,_ _{_'_n_o_d_e_T_y_p_e_'_:_ _'_T_o_k_e_n_'_,_ _'_p_o_s_'_:_ _[_'_J_J_'_,_ _'_J_J_R_'_,_ _'_J_J_S_'_]_}_,_ _'_|_'_,_ _{_'_p_o_s_'_:_ _'_S_Y_M_'_}_,_ _'_)_'_,_ _'_*_'_,_ _{_'_n_o_d_e_T_y_p_e_'_:_ _'_T_o_k_e_n_'_,_ _'_p_o_s_'_:_ _'_C_D_'_}_,_ _'_*_'_,_ _'_(_'_,_ _{_'_n_o_d_e_T_y_p_e_'_:_ _'_N_o_u_n_C_h_u_n_k_'_}_,_ _'_|_'_,_ _{_'_n_o_d_e_T_y_p_e_'_:_ _'_N_o_u_n_C_h_u_n_k_'_}_,_ _'_(_'_,_ _{_'_n_o_d_e_T_y_p_e_'_:_ _'_T_o_k_e_n_'_,_ _'_p_o_s_'_:_ _'_I_N_'_}_,_ _'_|_'_,_ _{_'_t_e_x_t_'_:_ _[_'_a_n_d_'_,_ _'_o_r_'_]_,_ _'_n_o_d_e_T_y_p_e_'_:_ _'_T_o_k_e_n_'_,_ _'_p_o_s_'_:_ _'_C_C_'_}_,_ _'_)_'_,_ _{_'_n_o_d_e_T_y_p_e_'_:_ _'_N_o_u_n_C_h_u_n_k_'_}_,_ _'_)_'_,_ _'_)_'_,_ _'_?_'_,_ _{_'_n_o_d_e_T_y_p_e_'_:_ _'_V_e_r_b_C_h_u_n_k_'_,_ _'_e_v_e_n_t_S_t_a_t_u_s_'_:_ _'_1_'_,_ _'_p_o_s_'_:_ _'_V_B_N_'_}_]"
p123
sg17
I0
sg18
(lp124
I2
aI0
aI8
aI10
aI6
aI4
aI1
aI11
aI5
aI7
aI3
aI9
asg20
(dp125
sg22
I1
sg23
(lp126
(I0
I1
S"{'nodeType': 'NounChunk'}"
p127
tp128
a(I0
I2
S"{'nodeType': 'Token', 'pos': ['PP', 'PP$', 'PRP$', 'PRP']}"
tp129
a(I0
I2
S"{'text': ['this', 'that', 'these', 'those'], 'nodeType': 'Token'}"
tp130
a(I0
I3
S"{'nodeType': 'VerbChunk', 'eventStatus': '1', 'pos': 'VBN'}"
p131
tp132
a(I0
I4
S"{'nodeType': 'Token', 'pos': 'PDT'}"
tp133
a(I0
I5
S"{'nodeType': 'Token', 'pos': 'DT'}"
tp134
a(I1
I3
g131
tp135
a(I1
I6
S"{'nodeType': 'Token', 'pos': 'IN'}"
tp136
a(I1
I6
S"{'text': ['and', 'or'], 'nodeType': 'Token', 'pos': 'CC'}"
tp137
a(I2
I3
g131
tp138
a(I4
I2
S"{'nodeType': 'Token', 'pos': ['PP', 'PP$', 'PRP$', 'PRP']}"
tp139
a(I4
I2
S"{'text': ['this', 'that', 'these', 'those'], 'nodeType': 'Token'}"
tp140
a(I4
I3
g131
tp141
a(I4
I1
g127
tp142
a(I4
I7
S"{'nodeType': 'Token', 'pos': 'DT'}"
tp143
a(I5
I4
S"{'nodeType': 'Token', 'pos': 'IN'}"
tp144
a(I5
I8
S"{'nodeType': 'NounChunk'}"
p145
tp146
a(I5
I7
S"{'nodeType': 'Token', 'pos': ['JJ', 'JJR', 'JJS']}"
tp147
a(I5
I7
S"{'pos': 'SYM'}"
tp148
a(I5
I9
S"{'nodeType': 'Token', 'pos': 'CD'}"
p149
tp150
a(I6
I10
S"{'nodeType': 'NounChunk'}"
tp151
a(I7
I8
g145
tp152
a(I7
I7
S"{'nodeType': 'Token', 'pos': ['JJ', 'JJR', 'JJS']}"
tp153
a(I7
I7
S"{'pos': 'SYM'}"
tp154
a(I7
I9
g149
tp155
a(I8
I3
g131
tp156
a(I8
I11
S"{'nodeType': 'Token', 'pos': 'IN'}"
tp157
a(I8
I11
S"{'text': ['and', 'or'], 'nodeType': 'Token', 'pos': 'CC'}"
tp158
a(I9
I8
g145
tp159
a(I9
I9
S"{'nodeType': 'Token', 'pos': 'CD'}"
tp160
a(I10
I3
g131
tp161
a(I10
I11
S"{'nodeType': 'Token', 'pos': 'IN'}"
tp162
a(I11
I2
S"{'nodeType': 'NounChunk'}"
tp163
asg44
I1
sg45
I1
sba(iutilities.FSA
FSA
p164
(dp165
g9
S'objectCompl_adj'
p166
sg11
(lp167
I4
asg13
I1
sg14
Nsg15
S"[_'_(_'_,_ _{_'_n_o_d_e_T_y_p_e_'_:_ _'_T_o_k_e_n_'_,_ _'_p_o_s_'_:_ _'_P_D_T_'_}_,_ _'_|_'_,_ _{_'_n_o_d_e_T_y_p_e_'_:_ _'_T_o_k_e_n_'_,_ _'_p_o_s_'_:_ _'_D_T_'_}_,_ _{_'_n_o_d_e_T_y_p_e_'_:_ _'_T_o_k_e_n_'_,_ _'_p_o_s_'_:_ _'_I_N_'_}_,_ _'_)_'_,_ _'_?_'_,_ _'_(_'_,_ _{_'_n_o_d_e_T_y_p_e_'_:_ _'_N_o_u_n_C_h_u_n_k_'_}_,_ _'_(_'_,_ _{_'_n_o_d_e_T_y_p_e_'_:_ _'_T_o_k_e_n_'_,_ _'_p_o_s_'_:_ _'_I_N_'_}_,_ _'_|_'_,_ _{_'_t_e_x_t_'_:_ _[_'_a_n_d_'_,_ _'_o_r_'_]_,_ _'_n_o_d_e_T_y_p_e_'_:_ _'_T_o_k_e_n_'_,_ _'_p_o_s_'_:_ _'_C_C_'_}_,_ _'_)_'_,_ _{_'_n_o_d_e_T_y_p_e_'_:_ _'_N_o_u_n_C_h_u_n_k_'_}_,_ _'_(_'_,_ _{_'_n_o_d_e_T_y_p_e_'_:_ _'_T_o_k_e_n_'_,_ _'_p_o_s_'_:_ _'_I_N_'_}_,_ _{_'_n_o_d_e_T_y_p_e_'_:_ _'_N_o_u_n_C_h_u_n_k_'_}_,_ _'_)_'_,_ _'_?_'_,_ _'_|_'_,_ _'_(_'_,_ _{_'_n_o_d_e_T_y_p_e_'_:_ _'_T_o_k_e_n_'_,_ _'_p_o_s_'_:_ _[_'_P_P_'_,_ _'_P_P_$_'_,_ _'_P_R_P_$_'_,_ _'_P_R_P_'_]_}_,_ _'_|_'_,_ _{_'_n_o_d_e_T_y_p_e_'_:_ _'_N_o_u_n_C_h_u_n_k_'_}_,_ _'_)_'_,_ _'_|_'_,_ _{_'_t_e_x_t_'_:_ _[_'_t_h_i_s_'_,_ _'_t_h_a_t_'_,_ _'_t_h_e_s_e_'_,_ _'_t_h_o_s_e_'_]_,_ _'_n_o_d_e_T_y_p_e_'_:_ _'_T_o_k_e_n_'_}_,_ _'_|_'_,_ _{_'_n_o_d_e_T_y_p_e_'_:_ _'_T_o_k_e_n_'_,_ _'_p_o_s_'_:_ _'_D_T_'_}_,_ _'_(_'_,_ _{_'_n_o_d_e_T_y_p_e_'_:_ _'_T_o_k_e_n_'_,_ _'_p_o_s_'_:_ _[_'_J_J_'_,_ _'_J_J_R_'_,_ _'_J_J_S_'_]_}_,_ _'_|_'_,_ _{_'_p_o_s_'_:_ _'_S_Y_M_'_}_,_ _'_)_'_,_ _'_*_'_,_ _{_'_n_o_d_e_T_y_p_e_'_:_ _'_T_o_k_e_n_'_,_ _'_p_o_s_'_:_ _'_C_D_'_}_,_ _'_*_'_,_ _'_(_'_,_ _{_'_n_o_d_e_T_y_p_e_'_:_ _'_N_o_u_n_C_h_u_n_k_'_}_,_ _'_|_'_,_ _{_'_n_o_d_e_T_y_p_e_'_:_ _'_N_o_u_n_C_h_u_n_k_'_}_,_ _'_(_'_,_ _{_'_n_o_d_e_T_y_p_e_'_:_ _'_T_o_k_e_n_'_,_ _'_p_o_s_'_:_ _'_I_N_'_}_,_ _'_|_'_,_ _{_'_t_e_x_t_'_:_ _[_'_a_n_d_'_,_ _'_o_r_'_]_,_ _'_n_o_d_e_T_y_p_e_'_:_ _'_T_o_k_e_n_'_,_ _'_p_o_s_'_:_ _'_C_C_'_}_,_ _'_)_'_,_ _{_'_n_o_d_e_T_y_p_e_'_:_ _'_N_o_u_n_C_h_u_n_k_'_}_,_ _'_)_'_,_ _'_)_'_,_ _'_?_'_,_ _{_'_n_o_d_e_T_y_p_e_'_:_ _'_A_d_j_e_c_t_i_v_e_T_o_k_e_n_'_,_ _'_e_v_e_n_t_S_t_a_t_u_s_'_:_ _'_1_'_}_]"
p168
sg17
I0
sg18
(lp169
I10
aI0
aI8
aI11
aI2
aI7
aI5
aI1
aI4
aI6
aI3
aI9
asg20
(dp170
sg22
I1
sg23
(lp171
(I0
I1
S"{'nodeType': 'NounChunk'}"
p172
tp173
a(I0
I2
S"{'nodeType': 'Token', 'pos': ['PP', 'PP$', 'PRP$', 'PRP']}"
tp174
a(I0
I2
S"{'text': ['this', 'that', 'these', 'those'], 'nodeType': 'Token'}"
tp175
a(I0
I3
S"{'nodeType': 'Token', 'pos': 'PDT'}"
tp176
a(I0
I4
S"{'nodeType': 'AdjectiveToken', 'eventStatus': '1'}"
p177
tp178
a(I0
I5
S"{'nodeType': 'Token', 'pos': 'DT'}"
tp179
a(I1
I6
S"{'nodeType': 'Token', 'pos': 'IN'}"
tp180
a(I1
I6
S"{'text': ['and', 'or'], 'nodeType': 'Token', 'pos': 'CC'}"
tp181
a(I1
I4
g177
tp182
a(I2
I4
g177
tp183
a(I3
I2
S"{'nodeType': 'Token', 'pos': ['PP', 'PP$', 'PRP$', 'PRP']}"
tp184
a(I3
I2
S"{'text': ['this', 'that', 'these', 'those'], 'nodeType': 'Token'}"
tp185
a(I3
I1
g172
tp186
a(I3
I7
S"{'nodeType': 'Token', 'pos': 'DT'}"
tp187
a(I3
I4
g177
tp188
a(I5
I3
S"{'nodeType': 'Token', 'pos': 'IN'}"
tp189
a(I5
I8
S"{'nodeType': 'NounChunk'}"
p190
tp191
a(I5
I7
S"{'nodeType': 'Token', 'pos': ['JJ', 'JJR', 'JJS']}"
tp192
a(I5
I7
S"{'pos': 'SYM'}"
tp193
a(I5
I9
S"{'nodeType': 'Token', 'pos': 'CD'}"
p194
tp195
a(I6
I10
S"{'nodeType': 'NounChunk'}"
tp196
a(I7
I8
g190
tp197
a(I7
I7
S"{'nodeType': 'Token', 'pos': ['JJ', 'JJR', 'JJS']}"
tp198
a(I7
I7
S"{'pos': 'SYM'}"
tp199
a(I7
I9
g194
tp200
a(I8
I11
S"{'nodeType': 'Token', 'pos': 'IN'}"
tp201
a(I8
I11
S"{'text': ['and', 'or'], 'nodeType': 'Token', 'pos': 'CC'}"
tp202
a(I8
I4
g177
tp203
a(I9
I8
g190
tp204
a(I9
I9
S"{'nodeType': 'Token', 'pos': 'CD'}"
tp205
a(I10
I11
S"{'nodeType': 'Token', 'pos': 'IN'}"
tp206
a(I10
I4
g177
tp207
a(I11
I2
S"{'nodeType': 'NounChunk'}"
tp208
asg44
I1
sg45
I1
sbaa(lp209
S'CONTINUES'
p210
atp211
ssS'ends'
p212
(dp213
g4
((lp214
(lp215
g7
ag46
aa(lp216
S'TERMINATES'
p217
atp218
sS'backwards'
p219
((lp220
(lp221
(iutilities.FSA
FSA
p222
(dp223
g9
S'NP_eventAsSubj1'
p224
sg11
(lp225
I2
asg13
I1
sg14
Nsg15
S"[_{_'_n_o_d_e_T_y_p_e_'_:_ _'_V_e_r_b_C_h_u_n_k_'_,_ _'_e_v_e_n_t_S_t_a_t_u_s_'_:_ _'_1_'_}_,_ _{_'_n_o_d_e_T_y_p_e_'_:_ _'_T_o_k_e_n_'_,_ _'_p_o_s_'_:_ _[_'_J_J_'_,_ _'_R_B_'_]_}_,_ _'_?_'_,_ _{_'_n_o_d_e_T_y_p_e_'_:_ _'_N_o_u_n_C_h_u_n_k_'_,_ _'_e_v_e_n_t_S_t_a_t_u_s_'_:_ _'_1_'_}_]"
p226
sg17
I0
sg18
(lp227
I2
aI0
aI3
aI1
asg20
(dp228
sg22
I1
sg23
(lp229
(I0
I1
S"{'nodeType': 'VerbChunk', 'eventStatus': '1'}"
tp230
a(I1
I2
S"{'nodeType': 'NounChunk', 'eventStatus': '1'}"
p231
tp232
a(I1
I3
S"{'nodeType': 'Token', 'pos': ['JJ', 'RB']}"
tp233
a(I3
I2
g231
tp234
asg44
I1
sg45
I1
sba(iutilities.FSA
FSA
p235
(dp236
g9
S'NP_eventAsSubj2'
p237
sg11
(lp238
I2
asg13
I1
sg14
Nsg15
S"[_{_'_n_o_d_e_T_y_p_e_'_:_ _'_V_e_r_b_C_h_u_n_k_'_,_ _'_e_v_e_n_t_S_t_a_t_u_s_'_:_ _'_1_'_}_,_ _{_'_n_o_d_e_T_y_p_e_'_:_ _'_T_o_k_e_n_'_,_ _'_p_o_s_'_:_ _[_'_J_J_'_,_ _'_R_B_'_]_}_,_ _'_?_'_,_ _{_'_n_o_d_e_T_y_p_e_'_:_ _'_V_e_r_b_C_h_u_n_k_'_,_ _'_e_v_e_n_t_S_t_a_t_u_s_'_:_ _'_1_'_,_ _'_p_o_s_'_:_ _'_V_B_G_'_}_]"
p239
sg17
I0
sg18
(lp240
I2
aI0
aI3
aI1
asg20
(dp241
sg22
I1
sg23
(lp242
(I0
I1
S"{'nodeType': 'VerbChunk', 'eventStatus': '1'}"
tp243
a(I1
I2
S"{'nodeType': 'VerbChunk', 'eventStatus': '1', 'pos': 'VBG'}"
p244
tp245
a(I1
I3
S"{'nodeType': 'Token', 'pos': ['JJ', 'RB']}"
tp246
a(I3
I2
g244
tp247
asg44
I1
sg45
I1
sba(iutilities.FSA
FSA
p248
(dp249
g9
S'relClauseRestrictive'
p250
sg11
(lp251
I3
asg13
I1
sg14
Nsg15
S"[_{_'_n_o_d_e_T_y_p_e_'_:_ _'_V_e_r_b_C_h_u_n_k_'_,_ _'_e_v_e_n_t_S_t_a_t_u_s_'_:_ _'_1_'_}_,_ _{_'_n_o_d_e_T_y_p_e_'_:_ _'_T_o_k_e_n_'_,_ _'_p_o_s_'_:_ _[_'_W_P_'_,_ _'_W_D_T_'_,_ _'_W_R_B_'_]_}_,_ _{_'_n_o_d_e_T_y_p_e_'_:_ _'_N_o_u_n_C_h_u_n_k_'_,_ _'_e_v_e_n_t_S_t_a_t_u_s_'_:_ _'_1_'_}_]"
p252
sg17
I0
sg18
(lp253
I2
aI0
aI3
aI1
asg20
(dp254
sg22
I1
sg23
(lp255
(I0
I1
S"{'nodeType': 'VerbChunk', 'eventStatus': '1'}"
tp256
a(I1
I2
S"{'nodeType': 'Token', 'pos': ['WP', 'WDT', 'WRB']}"
tp257
a(I2
I3
S"{'nodeType': 'NounChunk', 'eventStatus': '1'}"
tp258
asg44
I1
sg45
I1
sba(iutilities.FSA
FSA
p259
(dp260
g9
S'relClauseRestrictivePerfective'
p261
sg11
(lp262
I3
asg13
I1
sg14
Nsg15
S"[_{_'_e_v_e_n_t_S_t_a_t_u_s_'_:_ _'_1_'_,_ _'_a_s_p_e_c_t_'_:_ _'_P_E_R_F_E_C_T_I_V_E_'_}_,_ _{_'_n_o_d_e_T_y_p_e_'_:_ _'_T_o_k_e_n_'_,_ _'_p_o_s_'_:_ _[_'_W_P_'_,_ _'_W_D_T_'_,_ _'_W_R_B_'_]_}_,_ _{_'_n_o_d_e_T_y_p_e_'_:_ _'_N_o_u_n_C_h_u_n_k_'_,_ _'_e_v_e_n_t_S_t_a_t_u_s_'_:_ _'_1_'_}_]"
p263
sg17
I0
sg18
(lp264
I2
aI0
aI3
aI1
asg20
(dp265
sg22
I1
sg23
(lp266
(I0
I1
S"{'eventStatus': '1', 'aspect': 'PERFECTIVE'}"
tp267
a(I1
I2
S"{'nodeType': 'Token', 'pos': ['WP', 'WDT', 'WRB']}"
tp268
a(I2
I3
S"{'nodeType': 'NounChunk', 'eventStatus': '1'}"
tp269
asg44
I1
sg45
I1
sbaa(lp270
g217
atp271
ssS'ending'
p272
(dp273
g4
((lp274
(lp275
g7
ag46
aa(lp276
g217
atp277
sg219
((lp278
(lp279
g222
ag235
ag248
ag259
aa(lp280
g217
atp281
ssS'ended'
p282
(dp283
g4
((lp284
(lp285
g7
ag46
aa(lp286
g217
atp287
sg219
((lp288
(lp289
g222
ag235
ag248
ag259
a(iutilities.FSA
FSA
p290
(dp291
g9
S'passive1'
p292
sg11
(lp293
I2
asg13
I1
sg14
Nsg15
S"[_{_'_n_o_d_e_T_y_p_e_'_:_ _'_V_e_r_b_C_h_u_n_k_'_,_ _'_e_v_e_n_t_S_t_a_t_u_s_'_:_ _'_1_'_,_ _'_p_o_s_'_:_ _'_V_B_N_'_}_,_ _{_'_n_o_d_e_T_y_p_e_'_:_ _'_N_o_u_n_C_h_u_n_k_'_,_ _'_e_v_e_n_t_S_t_a_t_u_s_'_:_ _'_1_'_}_]"
p294
sg17
I0
sg18
(lp295
I2
aI0
aI1
asg20
(dp296
sg22
I1
sg23
(lp297
(I0
I1
S"{'nodeType': 'VerbChunk', 'eventStatus': '1', 'pos': 'VBN'}"
tp298
a(I1
I2
S"{'nodeType': 'NounChunk', 'eventStatus': '1'}"
tp299
asg44
I1
sg45
I1
sbaa(lp300
g217
atp301
ssS'begun'
p302
(dp303
g4
((lp304
(lp305
g103
a(iutilities.FSA
FSA
p306
(dp307
g9
S'toClause1'
p308
sg11
(lp309
I1
asg13
I1
sg14
Nsg15
S"[_{_'_p_o_s_'_:_ _[_'_R_B_'_,_ _'_R_B_R_'_,_ _'_R_B_S_'_,_ _'_R_P_'_,_ _'_J_J_R_'_]_}_,_ _'_?_'_,_ _'_(_'_,_ _{_'_t_e_n_s_e_'_:_ _'_I_N_F_I_N_I_T_I_V_E_'_,_ _'_n_o_d_e_T_y_p_e_'_:_ _'_V_e_r_b_C_h_u_n_k_'_}_,_ _'_|_'_,_ _{_'_t_e_x_t_'_:_ _'_t_o_'_,_ _'_p_o_s_'_:_ _'_T_O_'_}_,_ _{_'_p_o_s_'_:_ _'_U_H_'_}_,_ _'_?_'_,_ _'_(_'_,_ _{_'_n_o_d_e_T_y_p_e_'_:_ _'_V_e_r_b_C_h_u_n_k_'_,_ _'_e_v_e_n_t_S_t_a_t_u_s_'_:_ _'_1_'_}_,_ _'_|_'_,_ _{_'_n_o_d_e_T_y_p_e_'_:_ _'_N_o_u_n_C_h_u_n_k_'_,_ _'_e_v_e_n_t_S_t_a_t_u_s_'_:_ _'_1_'_}_,_ _'_)_'_,_ _'_)_'_]"
p310
sg17
I0
sg18
(lp311
I2
aI1
aI0
aI4
aI3
asg20
(dp312
sg22
I1
sg23
(lp313
(I0
I1
S"{'tense': 'INFINITIVE', 'nodeType': 'VerbChunk'}"
p314
tp315
a(I0
I2
S"{'pos': ['RB', 'RBR', 'RBS', 'RP', 'JJR']}"
tp316
a(I0
I3
S"{'text': 'to', 'pos': 'TO'}"
p317
tp318
a(I2
I1
g314
tp319
a(I2
I3
g317
tp320
a(I3
I1
S"{'nodeType': 'NounChunk', 'eventStatus': '1'}"
tp321
a(I3
I1
S"{'nodeType': 'VerbChunk', 'eventStatus': '1'}"
tp322
a(I3
I4
S"{'pos': 'UH'}"
tp323
a(I4
I1
S"{'nodeType': 'NounChunk', 'eventStatus': '1'}"
tp324
a(I4
I1
S"{'nodeType': 'VerbChunk', 'eventStatus': '1'}"
tp325
asg44
I1
sg45
I1
sba(iutilities.FSA
FSA
p326
(dp327
g9
S'toClause5'
p328
sg11
(lp329
I4
asg13
I1
sg14
Nsg15
S"[_{_'_n_o_d_e_T_y_p_e_'_:_ _'_T_o_k_e_n_'_,_ _'_p_o_s_'_:_ _'_I_N_'_}_,_ _{_'_n_o_d_e_T_y_p_e_'_:_ _'_T_o_k_e_n_'_,_ _'_p_o_s_'_:_ _'_P_D_T_'_}_,_ _'_?_'_,_ _{_'_n_o_d_e_T_y_p_e_'_:_ _'_N_o_u_n_C_h_u_n_k_'_}_,_ _{_'_n_o_d_e_T_y_p_e_'_:_ _'_T_o_k_e_n_'_,_ _'_p_o_s_'_:_ _'_I_N_'_}_,_ _'_?_'_,_ _{_'_n_o_d_e_T_y_p_e_'_:_ _'_T_o_k_e_n_'_,_ _'_p_o_s_'_:_ _'_P_D_T_'_}_,_ _'_?_'_,_ _{_'_n_o_d_e_T_y_p_e_'_:_ _'_N_o_u_n_C_h_u_n_k_'_}_,_ _'_?_'_,_ _'_(_'_,_ _{_'_t_e_n_s_e_'_:_ _'_I_N_F_I_N_I_T_I_V_E_'_,_ _'_n_o_d_e_T_y_p_e_'_:_ _'_V_e_r_b_C_h_u_n_k_'_}_,_ _'_|_'_,_ _{_'_t_e_x_t_'_:_ _'_t_o_'_,_ _'_p_o_s_'_:_ _'_T_O_'_}_,_ _{_'_p_o_s_'_:_ _'_U_H_'_}_,_ _'_?_'_,_ _'_(_'_,_ _{_'_n_o_d_e_T_y_p_e_'_:_ _'_V_e_r_b_C_h_u_n_k_'_,_ _'_e_v_e_n_t_S_t_a_t_u_s_'_:_ _'_1_'_}_,_ _'_|_'_,_ _{_'_n_o_d_e_T_y_p_e_'_:_ _'_N_o_u_n_C_h_u_n_k_'_,_ _'_e_v_e_n_t_S_t_a_t_u_s_'_:_ _'_1_'_}_,_ _'_)_'_,_ _'_)_'_]"
p330
sg17
I0
sg18
(lp331
I4
aI0
aI1
aI2
aI3
aI8
aI9
aI5
aI6
aI7
asg20
(dp332
sg22
I1
sg23
(lp333
(I0
I1
S"{'nodeType': 'Token', 'pos': 'IN'}"
tp334
a(I1
I2
S"{'nodeType': 'NounChunk'}"
p335
tp336
a(I1
I3
S"{'nodeType': 'Token', 'pos': 'PDT'}"
tp337
a(I2
I4
S"{'tense': 'INFINITIVE', 'nodeType': 'VerbChunk'}"
p338
tp339
a(I2
I5
S"{'nodeType': 'Token', 'pos': 'IN'}"
tp340
a(I2
I6
S"{'nodeType': 'Token', 'pos': 'PDT'}"
p341
tp342
a(I2
I7
S"{'nodeType': 'NounChunk'}"
p343
tp344
a(I2
I8
S"{'text': 'to', 'pos': 'TO'}"
p345
tp346
a(I3
I2
g335
tp347
a(I5
I7
g343
tp348
a(I5
I4
g338
tp349
a(I5
I6
g341
tp350
a(I5
I8
g345
tp351
a(I6
I7
g343
tp352
a(I6
I4
g338
tp353
a(I6
I8
g345
tp354
a(I7
I4
g338
tp355
a(I7
I8
g345
tp356
a(I8
I4
S"{'nodeType': 'NounChunk', 'eventStatus': '1'}"
tp357
a(I8
I4
S"{'nodeType': 'VerbChunk', 'eventStatus': '1'}"
tp358
a(I8
I9
S"{'pos': 'UH'}"
tp359
a(I9
I4
S"{'nodeType': 'NounChunk', 'eventStatus': '1'}"
tp360
a(I9
I4
S"{'nodeType': 'VerbChunk', 'eventStatus': '1'}"
tp361
asg44
I1
sg45
I1
sbaa(lp362
g7
ag46
aa(lp363
g97
ag97
atp364
sg219
((lp365
(lp366
g222
ag235
ag248
ag259
ag290
aa(lp367
g97
atp368
ssS'stoping'
p369
(dp370
g4
((lp371
(lp372
g7
ag46
ag103
aa(lp373
g217
atp374
ssS'close'
p375
(dp376
g4
((lp377
(lp378
g7
ag46
aa(lp379
g217
atp380
ssS'open'
p381
(dp382
g4
((lp383
(lp384
g7
ag46
aa(lp385
g97
atp386
sg219
((lp387
(lp388
g222
ag235
aa(lp389
g97
atp390
ssS'finishes'
p391
(dp392
g4
((lp393
(lp394
g7
ag46
ag103
aa(lp395
S'CULMINATES'
p396
atp397
sg219
((lp398
(lp399
g222
ag235
aa(lp400
g396
atp401
ssS'closes'
p402
(dp403
g4
((lp404
(lp405
g7
ag46
aa(lp406
g217
atp407
ssS'enters'
p408
(dp409
g4
((lp410
(lp411
g7
ag46
aa(lp412
g97
atp413
ssS'end'
p414
(dp415
g4
((lp416
(lp417
g7
ag46
aa(lp418
g217
atp419
sg219
((lp420
(lp421
g222
ag235
ag248
ag259
aa(lp422
g217
atp423
ssS'opened'
p424
(dp425
g4
((lp426
(lp427
g7
ag46
aa(lp428
g97
atp429
sg219
((lp430
(lp431
g222
ag235
aa(lp432
g97
atp433
ssS'remains'
p434
(dp435
g4
((lp436
(lp437
g103
ag119
ag164
aa(lp438
g210
atp439
sg219
((lp440
(lp441
g235
ag235
aa(lp442
g210
atp443
ssS'continued'
p444
(dp445
g4
((lp446
(lp447
g103
ag306
ag326
a(iutilities.FSA
FSA
p448
(dp449
g9
S'toClause7'
p450
sg11
(lp451
I2
asg13
I1
sg14
Nsg15
S"[_{_'_n_o_d_e_T_y_p_e_'_:_ _'_V_e_r_b_C_h_u_n_k_'_,_ _'_e_v_e_n_t_S_t_a_t_u_s_'_:_ _(_'_^_'_,_ _'_1_'_)_}_,_ _'_(_'_,_ _{_'_n_o_d_e_T_y_p_e_'_:_ _'_A_d_j_e_c_t_i_v_e_T_o_k_e_n_'_,_ _'_e_v_e_n_t_S_t_a_t_u_s_'_:_ _'_1_'_}_,_ _'_|_'_,_ _{_'_n_o_d_e_T_y_p_e_'_:_ _'_N_o_u_n_C_h_u_n_k_'_,_ _'_e_v_e_n_t_S_t_a_t_u_s_'_:_ _'_1_'_}_,_ _'_)_'_]"
p452
sg17
I0
sg18
(lp453
I0
aI2
aI1
asg20
(dp454
sg22
I1
sg23
(lp455
(I0
I1
S"{'nodeType': 'VerbChunk', 'eventStatus': ('^', '1')}"
tp456
a(I1
I2
S"{'nodeType': 'AdjectiveToken', 'eventStatus': '1'}"
tp457
a(I1
I2
S"{'nodeType': 'NounChunk', 'eventStatus': '1'}"
tp458
asg44
I1
sg45
I1
sbag7
ag46
ag119
ag164
aa(lp459
g210
atp460
sg219
((lp461
(lp462
g222
ag235
ag248
ag259
aa(lp463
g210
atp464
ssS'began'
p465
(dp466
g4
((lp467
(lp468
g103
ag306
ag326
aa(lp469
g7
ag46
aa(lp470
g97
ag97
atp471
sg219
((lp472
(lp473
g222
ag235
ag248
ag259
aa(lp474
g97
atp475
ssS'breaking'
p476
(dp477
g4
((lp478
(lp479
g7
ag46
aa(lp480
g217
atp481
sg219
((lp482
(lp483
g222
ag235
ag248
ag259
aa(lp484
g217
atp485
ssS'renew'
p486
(dp487
g4
((lp488
(lp489
g7
ag46
ag103
aa(lp490
S'REINITIATES'
p491
atp492
sg219
((lp493
(lp494
g222
ag235
aa(lp495
g491
atp496
ssS'stops'
p497
(dp498
g4
((lp499
(lp500
g7
ag46
ag103
aa(lp501
g217
atp502
sg219
((lp503
(lp504
g222
ag235
ag248
ag259
aa(lp505
g217
atp506
ssS'start'
p507
(dp508
g4
((lp509
(lp510
g7
ag46
ag103
aa(lp511
g97
atp512
sg219
((lp513
(lp514
g222
ag235
ag248
ag259
aa(lp515
g97
atp516
ssS'remained'
p517
(dp518
g4
((lp519
(lp520
g103
ag119
ag164
aa(lp521
g210
atp522
sg219
((lp523
(lp524
g235
ag235
ag248
ag259
ag290
aa(lp525
g210
atp526
ssS'finishing'
p527
(dp528
g4
((lp529
(lp530
g7
ag46
ag103
aa(lp531
g396
atp532
ssS'closed'
p533
(dp534
g4
((lp535
(lp536
g7
ag46
aa(lp537
g217
atp538
ssS'stopped'
p539
(dp540
g4
((lp541
(lp542
g7
ag46
ag103
aa(lp543
g217
atp544
sg219
((lp545
(lp546
g222
ag235
ag248
ag259
ag290
aa(lp547
g217
atp548
ssS'entered'
p549
(dp550
g4
((lp551
(lp552
g7
ag46
aa(lp553
g97
atp554
sg219
((lp555
(lp556
g222
ag235
ag248
ag259
ag290
aa(lp557
g97
atp558
ssS'completed'
p559
(dp560
g4
((lp561
(lp562
g7
ag46
aa(lp563
g396
atp564
sg219
((lp565
(lp566
g222
ag235
ag248
ag259
ag290
aa(lp567
g396
atp568
ssS'launching'
p569
(dp570
g4
((lp571
(lp572
g7
ag46
aa(lp573
g97
atp574
ssS'resumed'
p575
(dp576
g4
((lp577
(lp578
g7
ag46
ag103
aa(lp579
g491
atp580
sg219
((lp581
(lp582
g222
ag235
ag248
ag259
ag290
aa(lp583
g491
atp584
ssS'begin'
p585
(dp586
g4
((lp587
(lp588
g103
ag306
ag326
aa(lp589
g7
ag46
aa(lp590
g97
ag97
atp591
sg219
((lp592
(lp593
g222
ag235
ag248
ag259
aa(lp594
g97
atp595
ssS'finish'
p596
(dp597
g4
((lp598
(lp599
g7
ag46
ag103
aa(lp600
g396
atp601
sg219
((lp602
(lp603
g222
ag235
aa(lp604
g396
atp605
ssS'complete'
p606
(dp607
g4
((lp608
(lp609
g7
ag46
aa(lp610
g396
atp611
sg219
((lp612
(lp613
g248
ag259
aa(lp614
g396
atp615
ssS'opening'
p616
(dp617
g4
((lp618
(lp619
g7
ag46
aa(lp620
g97
atp621
sg219
((lp622
(lp623
g222
ag235
aa(lp624
g97
atp625
ssS'started'
p626
(dp627
g4
((lp628
(lp629
g7
ag46
ag103
aa(lp630
g97
atp631
sg219
((lp632
(lp633
g222
ag235
ag248
ag259
ag290
aa(lp634
g97
atp635
ssS'stop'
p636
(dp637
g4
((lp638
(lp639
g7
ag46
ag103
aa(lp640
g217
atp641
sg219
((lp642
(lp643
g222
ag235
ag248
ag259
aa(lp644
g217
atp645
ssS'breaks'
p646
(dp647
g4
((lp648
(lp649
g7
ag46
aa(lp650
g217
atp651
sg219
((lp652
(lp653
g222
ag235
ag248
ag259
aa(lp654
g217
atp655
ssS'continues'
p656
(dp657
g4
((lp658
(lp659
g103
ag306
ag326
ag448
ag7
ag46
ag119
ag164
aa(lp660
g210
atp661
sg219
((lp662
(lp663
g222
ag235
ag248
ag259
aa(lp664
g210
atp665
ssS'continuing'
p666
(dp667
g4
((lp668
(lp669
g103
ag306
ag326
ag448
ag7
ag46
ag119
ag164
aa(lp670
g210
atp671
sg219
((lp672
(lp673
g222
ag235
ag248
ag259
aa(lp674
g210
atp675
ssS'resumes'
p676
(dp677
g4
((lp678
(lp679
g7
ag46
ag103
aa(lp680
g491
atp681
sg219
((lp682
(lp683
g222
ag235
aa(lp684
g491
atp685
ssS'break'
p686
(dp687
g4
((lp688
(lp689
g7
ag46
aa(lp690
g217
atp691
sg219
((lp692
(lp693
g222
ag235
ag248
ag259
aa(lp694
g217
atp695
ssS'remaining'
p696
(dp697
g4
((lp698
(lp699
g103
ag119
ag164
aa(lp700
g210
atp701
sg219
((lp702
(lp703
g235
ag235
aa(lp704
g210
atp705
ssS'finished'
p706
(dp707
g4
((lp708
(lp709
g7
ag46
ag103
aa(lp710
g396
atp711
sg219
((lp712
(lp713
g222
ag235
ag248
ag259
ag290
aa(lp714
g396
atp715
ssS'renewed'
p716
(dp717
g4
((lp718
(lp719
g7
ag46
ag103
aa(lp720
g491
atp721
sg219
((lp722
(lp723
g222
ag235
ag248
ag259
ag290
aa(lp724
g491
atp725
ssS'broke'
p726
(dp727
g4
((lp728
(lp729
g7
ag46
aa(lp730
g217
atp731
sg219
((lp732
(lp733
g222
ag235
ag248
ag259
aa(lp734
g217
atp735
ssS'beginning'
p736
(dp737
g4
((lp738
(lp739
g103
ag306
ag326
aa(lp740
g7
ag46
aa(lp741
g97
ag97
atp742
sg219
((lp743
(lp744
g222
ag235
ag248
ag259
aa(lp745
g97
atp746
ssS'completes'
p747
(dp748
g4
((lp749
(lp750
g7
ag46
aa(lp751
g396
atp752
sg219
((lp753
(lp754
g248
ag259
aa(lp755
g396
atp756
ssS'begins'
p757
(dp758
g4
((lp759
(lp760
g103
ag306
ag326
aa(lp761
g7
ag46
aa(lp762
g97
ag97
atp763
sg219
((lp764
(lp765
g222
ag235
ag248
ag259
aa(lp766
g97
atp767
ssS'renews'
p768
(dp769
g4
((lp770
(lp771
g7
ag46
ag103
aa(lp772
g491
atp773
sg219
((lp774
(lp775
g222
ag235
aa(lp776
g491
atp777
ssS'keeping'
p778
(dp779
g4
((lp780
(lp781
g103
ag119
ag164
aa(lp782
g210
atp783
ssS'kept'
p784
(dp785
g4
((lp786
(lp787
g103
ag119
ag164
aa(lp788
g210
atp789
sg219
((lp790
(lp791
g235
ag235
ag248
ag259
ag290
aa(lp792
g210
atp793
ssS'launch'
p794
(dp795
g4
((lp796
(lp797
g7
ag46
aa(lp798
g97
atp799
ssS'launches'
p800
(dp801
g4
((lp802
(lp803
g7
ag46
aa(lp804
g97
atp805
ssS'completing'
p806
(dp807
g4
((lp808
(lp809
g7
ag46
aa(lp810
g396
atp811
ssS'starts'
p812
(dp813
g4
((lp814
(lp815
g7
ag46
ag103
aa(lp816
g97
atp817
sg219
((lp818
(lp819
g222
ag235
ag248
ag259
aa(lp820
g97
atp821
ssS'resume'
p822
(dp823
g4
((lp824
(lp825
g7
ag46
ag103
aa(lp826
g491
atp827
sg219
((lp828
(lp829
g222
ag235
aa(lp830
g491
atp831
ssS'keep'
p832
(dp833
g4
((lp834
(lp835
g103
ag119
ag164
aa(lp836
g210
atp837
ssS'renewing'
p838
(dp839
g4
((lp840
(lp841
g7
ag46
ag103
aa(lp842
g491
atp843
ssS'remain'
p844
(dp845
g4
((lp846
(lp847
g103
ag119
ag164
aa(lp848
g210
atp849
sg219
((lp850
(lp851
g235
ag235
aa(lp852
g210
atp853
ssS'continue'
p854
(dp855
g4
((lp856
(lp857
g103
ag306
ag326
ag448
ag7
ag46
ag119
ag164
aa(lp858
g210
atp859
sg219
((lp860
(lp861
g222
ag235
ag248
ag259
aa(lp862
g210
atp863
ssS'resuming'
p864
(dp865
g4
((lp866
(lp867
g7
ag46
ag103
aa(lp868
g491
atp869
ssS'opens'
p870
(dp871
g4
((lp872
(lp873
g7
ag46
aa(lp874
g97
atp875
sg219
((lp876
(lp877
g222
ag235
ag248
ag259
aa(lp878
g97
atp879
ssS'enter'
p880
(dp881
g4
((lp882
(lp883
g7
ag46
aa(lp884
g97
atp885
ssS'closing'
p886
(dp887
g4
((lp888
(lp889
g7
ag46
aa(lp890
g217
atp891
ssS'starting'
p892
(dp893
g4
((lp894
(lp895
g7
ag46
ag103
aa(lp896
g97
atp897
ssS'launched'
p898
(dp899
g4
((lp900
(lp901
g7
ag46
aa(lp902
g97
atp903
ss.