(lp1
(iutilities.FSA
FSA
p2
(dp3
S'fsaname'
p4
S'haveTo'
p5
sS'finalStates'
p6
(lp7
I5
asS'_isTrimmed'
p8
I1
sS'alphabet'
p9
NsS'label'
p10
S"[_{_'_t_e_x_t_'_:_ _(_'_^_'_,_ _[_'_a_'_,_ _'_a_n_'_,_ _'_t_h_e_'_,_ _'_a_s_'_]_)_,_ _'_n_o_d_e_T_y_p_e_'_:_ _[_'_T_o_k_e_n_'_,_ _'_A_d_j_e_c_t_i_v_e_T_o_k_e_n_'_]_,_ _'_p_o_s_'_:_ _[_'_R_B_'_,_ _'_W_D_T_'_,_ _'_D_T_'_,_ _'_J_J_'_,_ _'_P_R_P_'_]_}_,_ _'_*_'_,_ _'_(_'_,_ _{_'_t_e_x_t_'_:_ _'_h_a_d_'_,_ _'_n_o_d_e_T_y_p_e_'_:_ _'_T_o_k_e_n_'_}_,_ _'_|_'_,_ _{_'_t_e_x_t_'_:_ _'_b_e_e_n_'_,_ _'_n_o_d_e_T_y_p_e_'_:_ _'_T_o_k_e_n_'_}_,_ _{_'_t_e_x_t_'_:_ _'_h_a_v_i_n_g_'_,_ _'_n_o_d_e_T_y_p_e_'_:_ _'_T_o_k_e_n_'_}_,_ _'_)_'_,_ _'_?_'_,_ _{_'_t_e_x_t_'_:_ _(_'_^_'_,_ _[_'_a_'_,_ _'_a_n_'_,_ _'_t_h_e_'_,_ _'_a_s_'_]_)_,_ _'_n_o_d_e_T_y_p_e_'_:_ _[_'_T_o_k_e_n_'_,_ _'_A_d_j_e_c_t_i_v_e_T_o_k_e_n_'_]_,_ _'_p_o_s_'_:_ _[_'_R_B_'_,_ _'_W_D_T_'_,_ _'_D_T_'_,_ _'_J_J_'_,_ _'_P_R_P_'_]_}_,_ _'_*_'_,_ _{_'_t_e_x_t_'_:_ _'_t_o_'_,_ _'_n_o_d_e_T_y_p_e_'_:_ _'_T_o_k_e_n_'_}_,_ _{_'_t_e_x_t_'_:_ _(_'_^_'_,_ _[_'_a_'_,_ _'_a_n_'_,_ _'_t_h_e_'_,_ _'_a_s_'_]_)_,_ _'_n_o_d_e_T_y_p_e_'_:_ _[_'_T_o_k_e_n_'_,_ _'_A_d_j_e_c_t_i_v_e_T_o_k_e_n_'_]_,_ _'_p_o_s_'_:_ _[_'_R_B_'_,_ _'_W_D_T_'_,_ _'_D_T_'_,_ _'_J_J_'_,_ _'_P_R_P_'_]_}_,_ _'_*_'_,_ _'_(_'_,_ _{_'_t_e_x_t_'_:_ _'_b_e_'_,_ _'_n_o_d_e_T_y_p_e_'_:_ _'_T_o_k_e_n_'_,_ _'_p_o_s_'_:_ _[_'_V_B_'_,_ _'_V_B_P_'_]_}_,_ _{_'_t_e_x_t_'_:_ _'_g_o_i_n_g_'_,_ _'_n_o_d_e_T_y_p_e_'_:_ _'_T_o_k_e_n_'_}_,_ _{_'_t_e_x_t_'_:_ _'_t_o_'_,_ _'_n_o_d_e_T_y_p_e_'_:_ _'_T_o_k_e_n_'_}_,_ _'_|_'_,_ _{_'_t_e_x_t_'_:_ _[_'_o_u_g_h_t_'_,_ _'_u_s_e_d_'_]_,_ _'_n_o_d_e_T_y_p_e_'_:_ _'_T_o_k_e_n_'_}_,_ _{_'_t_e_x_t_'_:_ _'_t_o_'_,_ _'_n_o_d_e_T_y_p_e_'_:_ _'_T_o_k_e_n_'_}_,_ _'_|_'_,_ _{_'_t_e_x_t_'_:_ _'_b_e_'_,_ _'_n_o_d_e_T_y_p_e_'_:_ _'_T_o_k_e_n_'_,_ _'_p_o_s_'_:_ _[_'_V_B_'_,_ _'_V_B_P_'_]_}_,_ _{_'_t_e_x_t_'_:_ _'_t_o_'_,_ _'_n_o_d_e_T_y_p_e_'_:_ _'_T_o_k_e_n_'_}_,_ _'_)_'_,_ _'_*_'_,_ _{_'_t_e_x_t_'_:_ _(_'_^_'_,_ _[_'_a_'_,_ _'_a_n_'_,_ _'_t_h_e_'_,_ _'_a_s_'_]_)_,_ _'_n_o_d_e_T_y_p_e_'_:_ _[_'_T_o_k_e_n_'_,_ _'_A_d_j_e_c_t_i_v_e_T_o_k_e_n_'_]_,_ _'_p_o_s_'_:_ _[_'_R_B_'_,_ _'_W_D_T_'_,_ _'_D_T_'_,_ _'_J_J_'_,_ _'_P_R_P_'_]_}_,_ _'_*_'_,_ _'_(_'_,_ _{_'_t_e_x_t_'_:_ _'_h_a_v_e_'_,_ _'_n_o_d_e_T_y_p_e_'_:_ _'_T_o_k_e_n_'_,_ _'_p_o_s_'_:_ _[_'_V_B_'_,_ _'_V_B_P_'_]_}_,_ _{_'_t_e_x_t_'_:_ _(_'_^_'_,_ _[_'_a_'_,_ _'_a_n_'_,_ _'_t_h_e_'_,_ _'_a_s_'_]_)_,_ _'_n_o_d_e_T_y_p_e_'_:_ _[_'_T_o_k_e_n_'_,_ _'_A_d_j_e_c_t_i_v_e_T_o_k_e_n_'_]_,_ _'_p_o_s_'_:_ _[_'_R_B_'_,_ _'_W_D_T_'_,_ _'_D_T_'_,_ _'_J_J_'_,_ _'_P_R_P_'_]_}_,_ _'_*_'_,_ _{_'_t_e_x_t_'_:_ _'_b_e_e_n_'_,_ _'_n_o_d_e_T_y_p_e_'_:_ _'_T_o_k_e_n_'_}_,_ _{_'_t_e_x_t_'_:_ _(_'_^_'_,_ _[_'_a_'_,_ _'_a_n_'_,_ _'_t_h_e_'_,_ _'_a_s_'_]_)_,_ _'_n_o_d_e_T_y_p_e_'_:_ _[_'_T_o_k_e_n_'_,_ _'_A_d_j_e_c_t_i_v_e_T_o_k_e_n_'_]_,_ _'_p_o_s_'_:_ _[_'_R_B_'_,_ _'_W_D_T_'_,_ _'_D_T_'_,_ _'_J_J_'_,_ _'_P_R_P_'_]_}_,_ _'_*_'_,_ _{_'_t_e_x_t_'_:_ _'_b_e_i_n_g_'_,_ _'_n_o_d_e_T_y_p_e_'_:_ _'_T_o_k_e_n_'_}_,_ _{_'_t_e_x_t_'_:_ _(_'_^_'_,_ _[_'_a_'_,_ _'_a_n_'_,_ _'_t_h_e_'_,_ _'_a_s_'_]_)_,_ _'_n_o_d_e_T_y_p_e_'_:_ _[_'_T_o_k_e_n_'_,_ _'_A_d_j_e_c_t_i_v_e_T_o_k_e_n_'_]_,_ _'_p_o_s_'_:_ _[_'_R_B_'_,_ _'_W_D_T_'_,_ _'_D_T_'_,_ _'_J_J_'_,_ _'_P_R_P_'_]_}_,_ _'_*_'_,_ _{_'_n_o_d_e_T_y_p_e_'_:_ _'_T_o_k_e_n_'_,_ _'_p_o_s_'_:_ _[_'_V_B_D_'_,_ _'_V_B_N_'_]_}_,_ _'_|_'_,_ _{_'_t_e_x_t_'_:_ _'_b_e_'_,_ _'_n_o_d_e_T_y_p_e_'_:_ _'_T_o_k_e_n_'_,_ _'_p_o_s_'_:_ _[_'_V_B_'_,_ _'_V_B_P_'_]_}_,_ _{_'_t_e_x_t_'_:_ _(_'_^_'_,_ _[_'_a_'_,_ _'_a_n_'_,_ _'_t_h_e_'_,_ _'_a_s_'_]_)_,_ _'_n_o_d_e_T_y_p_e_'_:_ _[_'_T_o_k_e_n_'_,_ _'_A_d_j_e_c_t_i_v_e_T_o_k_e_n_'_]_,_ _'_p_o_s_'_:_ _[_'_R_B_'_,_ _'_W_D_T_'_,_ _'_D_T_'_,_ _'_J_J_'_,_ _'_P_R_P_'_]_}_,_ _'_*_'_,_ _{_'_t_e_x_t_'_:_ _'_b_e_i_n_g_'_,_ _'_n_o_d_e_T_y_p_e_'_:_ _'_T_o_k_e_n_'_}_,_ _{_'_t_e_x_t_'_:_ _(_'_^_'_,_ _[_'_a_'_,_ _'_a_n_'_,_ _'_t_h_e_'_,_ _'_a_s_'_]_)_,_ _'_n_o_d_e_T_y_p_e_'_:_ _[_'_T_o_k_e_n_'_,_ _'_A_d_j_e_c_t_i_v_e_T_o_k_e_n_'_]_,_ _'_p_o_s_'_:_ _[_'_R_B_'_,_ _'_W_D_T_'_,_ _'_D_T_'_,_ _'_J_J_'_,_ _'_P_R_P_'_]_}_,_ _'_*_'_,_ _{_'_n_o_d_e_T_y_p_e_'_:_ _'_T_o_k_e_n_'_,_ _'_p_o_s_'_:_ _[_'_V_B_D_'_,_ _'_V_B_N_'_]_}_,_ _'_|_'_,_ _{_'_t_e_x_t_'_:_ _'_h_a_v_e_'_,_ _'_n_o_d_e_T_y_p_e_'_:_ _'_T_o_k_e_n_'_,_ _'_p_o_s_'_:_ _[_'_V_B_'_,_ _'_V_B_P_'_]_}_,_ _{_'_t_e_x_t_'_:_ _(_'_^_'_,_ _[_'_a_'_,_ _'_a_n_'_,_ _'_t_h_e_'_,_ _'_a_s_'_]_)_,_ _'_n_o_d_e_T_y_p_e_'_:_ _[_'_T_o_k_e_n_'_,_ _'_A_d_j_e_c_t_i_v_e_T_o_k_e_n_'_]_,_ _'_p_o_s_'_:_ _[_'_R_B_'_,_ _'_W_D_T_'_,_ _'_D_T_'_,_ _'_J_J_'_,_ _'_P_R_P_'_]_}_,_ _'_*_'_,_ _{_'_t_e_x_t_'_:_ _'_b_e_e_n_'_,_ _'_n_o_d_e_T_y_p_e_'_:_ _'_T_o_k_e_n_'_}_,_ _{_'_t_e_x_t_'_:_ _(_'_^_'_,_ _[_'_a_'_,_ _'_a_n_'_,_ _'_t_h_e_'_,_ _'_a_s_'_]_)_,_ _'_n_o_d_e_T_y_p_e_'_:_ _[_'_T_o_k_e_n_'_,_ _'_A_d_j_e_c_t_i_v_e_T_o_k_e_n_'_]_,_ _'_p_o_s_'_:_ _[_'_R_B_'_,_ _'_W_D_T_'_,_ _'_D_T_'_,_ _'_J_J_'_,_ _'_P_R_P_'_]_}_,_ _'_*_'_,_ _{_'_n_o_d_e_T_y_p_e_'_:_ _'_T_o_k_e_n_'_,_ _'_p_o_s_'_:_ _[_'_V_B_D_'_,_ _'_V_B_N_'_]_}_,_ _'_|_'_,_ _{_'_t_e_x_t_'_:_ _'_h_a_v_e_'_,_ _'_n_o_d_e_T_y_p_e_'_:_ _'_T_o_k_e_n_'_,_ _'_p_o_s_'_:_ _[_'_V_B_'_,_ _'_V_B_P_'_]_}_,_ _{_'_t_e_x_t_'_:_ _(_'_^_'_,_ _[_'_a_'_,_ _'_a_n_'_,_ _'_t_h_e_'_,_ _'_a_s_'_]_)_,_ _'_n_o_d_e_T_y_p_e_'_:_ _[_'_T_o_k_e_n_'_,_ _'_A_d_j_e_c_t_i_v_e_T_o_k_e_n_'_]_,_ _'_p_o_s_'_:_ _[_'_R_B_'_,_ _'_W_D_T_'_,_ _'_D_T_'_,_ _'_J_J_'_,_ _'_P_R_P_'_]_}_,_ _'_*_'_,_ _{_'_t_e_x_t_'_:_ _'_b_e_e_n_'_,_ _'_n_o_d_e_T_y_p_e_'_:_ _'_T_o_k_e_n_'_}_,_ _{_'_t_e_x_t_'_:_ _(_'_^_'_,_ _[_'_a_'_,_ _'_a_n_'_,_ _'_t_h_e_'_,_ _'_a_s_'_]_)_,_ _'_n_o_d_e_T_y_p_e_'_:_ _[_'_T_o_k_e_n_'_,_ _'_A_d_j_e_c_t_i_v_e_T_o_k_e_n_'_]_,_ _'_p_o_s_'_:_ _[_'_R_B_'_,_ _'_W_D_T_'_,_ _'_D_T_'_,_ _'_J_J_'_,_ _'_P_R_P_'_]_}_,_ _'_*_'_,_ _{_'_n_o_d_e_T_y_p_e_'_:_ _'_T_o_k_e_n_'_,_ _'_p_o_s_'_:_ _'_V_B_G_'_}_,_ _'_|_'_,_ _{_'_t_e_x_t_'_:_ _'_b_e_'_,_ _'_n_o_d_e_T_y_p_e_'_:_ _'_T_o_k_e_n_'_,_ _'_p_o_s_'_:_ _[_'_V_B_'_,_ _'_V_B_P_'_]_}_,_ _{_'_t_e_x_t_'_:_ _(_'_^_'_,_ _[_'_a_'_,_ _'_a_n_'_,_ _'_t_h_e_'_,_ _'_a_s_'_]_)_,_ _'_n_o_d_e_T_y_p_e_'_:_ _[_'_T_o_k_e_n_'_,_ _'_A_d_j_e_c_t_i_v_e_T_o_k_e_n_'_]_,_ _'_p_o_s_'_:_ _[_'_R_B_'_,_ _'_W_D_T_'_,_ _'_D_T_'_,_ _'_J_J_'_,_ _'_P_R_P_'_]_}_,_ _'_*_'_,_ _{_'_n_o_d_e_T_y_p_e_'_:_ _'_T_o_k_e_n_'_,_ _'_p_o_s_'_:_ _[_'_V_B_D_'_,_ _'_V_B_N_'_]_}_,_ _'_|_'_,_ _{_'_t_e_x_t_'_:_ _'_b_e_'_,_ _'_n_o_d_e_T_y_p_e_'_:_ _'_T_o_k_e_n_'_,_ _'_p_o_s_'_:_ _[_'_V_B_'_,_ _'_V_B_P_'_]_}_,_ _{_'_t_e_x_t_'_:_ _(_'_^_'_,_ _[_'_a_'_,_ _'_a_n_'_,_ _'_t_h_e_'_,_ _'_a_s_'_]_)_,_ _'_n_o_d_e_T_y_p_e_'_:_ _[_'_T_o_k_e_n_'_,_ _'_A_d_j_e_c_t_i_v_e_T_o_k_e_n_'_]_,_ _'_p_o_s_'_:_ _[_'_R_B_'_,_ _'_W_D_T_'_,_ _'_D_T_'_,_ _'_J_J_'_,_ _'_P_R_P_'_]_}_,_ _'_*_'_,_ _{_'_n_o_d_e_T_y_p_e_'_:_ _'_T_o_k_e_n_'_,_ _'_p_o_s_'_:_ _'_V_B_G_'_}_,_ _'_|_'_,_ _{_'_t_e_x_t_'_:_ _'_h_a_v_e_'_,_ _'_n_o_d_e_T_y_p_e_'_:_ _'_T_o_k_e_n_'_,_ _'_p_o_s_'_:_ _[_'_V_B_'_,_ _'_V_B_P_'_]_}_,_ _{_'_t_e_x_t_'_:_ _(_'_^_'_,_ _[_'_a_'_,_ _'_a_n_'_,_ _'_t_h_e_'_,_ _'_a_s_'_]_)_,_ _'_n_o_d_e_T_y_p_e_'_:_ _[_'_T_o_k_e_n_'_,_ _'_A_d_j_e_c_t_i_v_e_T_o_k_e_n_'_]_,_ _'_p_o_s_'_:_ _[_'_R_B_'_,_ _'_W_D_T_'_,_ _'_D_T_'_,_ _'_J_J_'_,_ _'_P_R_P_'_]_}_,_ _'_*_'_,_ _{_'_n_o_d_e_T_y_p_e_'_:_ _'_T_o_k_e_n_'_,_ _'_p_o_s_'_:_ _[_'_V_B_D_'_,_ _'_V_B_N_'_]_}_,_ _'_|_'_,_ _{_'_n_o_d_e_T_y_p_e_'_:_ _'_T_o_k_e_n_'_,_ _'_p_o_s_'_:_ _[_'_V_B_'_,_ _'_V_B_P_'_]_}_,_ _'_)_'_,_ _'_+_'_]"
p11
sS'initialState'
p12
I0
sS'states'
p13
(lp14
I0
aI11
aI8
aI9
aI4
aI3
aI5
aI2
aI7
aI10
aI1
aI6
asS'_arcMetadata'
p15
(dp16
sS'_isSorted'
p17
I1
sS'transitions'
p18
(lp19
(I0
I0
S"{'text': ('^', ['a', 'an', 'the', 'as']), 'nodeType': ['Token', 'AdjectiveToken'], 'pos': ['RB', 'WDT', 'DT', 'JJ', 'PRP']}"
tp20
a(I0
I1
S"{'text': 'been', 'nodeType': 'Token'}"
tp21
a(I0
I2
S"{'text': 'to', 'nodeType': 'Token'}"
p22
tp23
a(I0
I3
S"{'text': 'had', 'nodeType': 'Token'}"
tp24
a(I1
I3
S"{'text': 'having', 'nodeType': 'Token'}"
tp25
a(I2
I2
S"{'text': ('^', ['a', 'an', 'the', 'as']), 'nodeType': ['Token', 'AdjectiveToken'], 'pos': ['RB', 'WDT', 'DT', 'JJ', 'PRP']}"
tp26
a(I2
I4
S"{'text': 'be', 'nodeType': 'Token', 'pos': ['VB', 'VBP']}"
p27
tp28
a(I2
I5
S"{'nodeType': 'Token', 'pos': ['VB', 'VBP']}"
p29
tp30
a(I2
I6
S"{'text': ['ought', 'used'], 'nodeType': 'Token'}"
p31
tp32
a(I2
I7
S"{'text': 'have', 'nodeType': 'Token', 'pos': ['VB', 'VBP']}"
p33
tp34
a(I3
I2
g22
tp35
a(I3
I3
S"{'text': ('^', ['a', 'an', 'the', 'as']), 'nodeType': ['Token', 'AdjectiveToken'], 'pos': ['RB', 'WDT', 'DT', 'JJ', 'PRP']}"
tp36
a(I4
I8
S"{'text': ('^', ['a', 'an', 'the', 'as']), 'nodeType': ['Token', 'AdjectiveToken'], 'pos': ['RB', 'WDT', 'DT', 'JJ', 'PRP']}"
p37
tp38
a(I4
I9
S"{'text': 'to', 'nodeType': 'Token'}"
tp39
a(I4
I5
S"{'nodeType': 'Token', 'pos': 'VBG'}"
tp40
a(I4
I5
S"{'nodeType': 'Token', 'pos': ['VBD', 'VBN']}"
tp41
a(I4
I10
S"{'text': 'being', 'nodeType': 'Token'}"
p42
tp43
a(I4
I6
S"{'text': 'going', 'nodeType': 'Token'}"
tp44
a(I5
I8
S"{'text': 'be', 'nodeType': 'Token', 'pos': ['VB', 'VBP']}"
p45
tp46
a(I5
I7
g33
tp47
a(I5
I5
g29
tp48
a(I6
I9
S"{'text': 'to', 'nodeType': 'Token'}"
tp49
a(I7
I7
S"{'text': ('^', ['a', 'an', 'the', 'as']), 'nodeType': ['Token', 'AdjectiveToken'], 'pos': ['RB', 'WDT', 'DT', 'JJ', 'PRP']}"
tp50
a(I7
I8
S"{'text': 'been', 'nodeType': 'Token'}"
tp51
a(I7
I5
S"{'nodeType': 'Token', 'pos': ['VBD', 'VBN']}"
tp52
a(I8
I8
g37
tp53
a(I8
I10
g42
tp54
a(I8
I5
S"{'nodeType': 'Token', 'pos': 'VBG'}"
tp55
a(I8
I5
S"{'nodeType': 'Token', 'pos': ['VBD', 'VBN']}"
tp56
a(I9
I11
S"{'text': ('^', ['a', 'an', 'the', 'as']), 'nodeType': ['Token', 'AdjectiveToken'], 'pos': ['RB', 'WDT', 'DT', 'JJ', 'PRP']}"
p57
tp58
a(I9
I4
g27
tp59
a(I9
I5
g29
tp60
a(I9
I6
g31
tp61
a(I9
I7
g33
tp62
a(I10
I10
S"{'text': ('^', ['a', 'an', 'the', 'as']), 'nodeType': ['Token', 'AdjectiveToken'], 'pos': ['RB', 'WDT', 'DT', 'JJ', 'PRP']}"
tp63
a(I10
I5
S"{'nodeType': 'Token', 'pos': ['VBD', 'VBN']}"
tp64
a(I11
I11
g57
tp65
a(I11
I8
g45
tp66
a(I11
I7
g33
tp67
a(I11
I5
g29
tp68
asS'_isDeterminized'
p69
I1
sS'_isMinimized'
p70
I1
sba(iutilities.FSA
FSA
p71
(dp72
g4
S'haveAux_RegVerb'
p73
sg6
(lp74
I2
asg8
I1
sg9
Nsg10
S"[_{_'_t_e_x_t_'_:_ _(_'_^_'_,_ _[_'_a_'_,_ _'_a_n_'_,_ _'_t_h_e_'_,_ _'_a_s_'_]_)_,_ _'_n_o_d_e_T_y_p_e_'_:_ _[_'_T_o_k_e_n_'_,_ _'_A_d_j_e_c_t_i_v_e_T_o_k_e_n_'_]_,_ _'_p_o_s_'_:_ _[_'_R_B_'_,_ _'_W_D_T_'_,_ _'_D_T_'_,_ _'_J_J_'_,_ _'_P_R_P_'_]_}_,_ _'_*_'_,_ _'_(_'_,_ _{_'_t_e_x_t_'_:_ _'_b_e_e_n_'_,_ _'_n_o_d_e_T_y_p_e_'_:_ _'_T_o_k_e_n_'_}_,_ _{_'_t_e_x_t_'_:_ _(_'_^_'_,_ _[_'_a_'_,_ _'_a_n_'_,_ _'_t_h_e_'_,_ _'_a_s_'_]_)_,_ _'_n_o_d_e_T_y_p_e_'_:_ _[_'_T_o_k_e_n_'_,_ _'_A_d_j_e_c_t_i_v_e_T_o_k_e_n_'_]_,_ _'_p_o_s_'_:_ _[_'_R_B_'_,_ _'_W_D_T_'_,_ _'_D_T_'_,_ _'_J_J_'_,_ _'_P_R_P_'_]_}_,_ _'_*_'_,_ _{_'_t_e_x_t_'_:_ _'_b_e_i_n_g_'_,_ _'_n_o_d_e_T_y_p_e_'_:_ _'_T_o_k_e_n_'_}_,_ _{_'_t_e_x_t_'_:_ _(_'_^_'_,_ _[_'_a_'_,_ _'_a_n_'_,_ _'_t_h_e_'_,_ _'_a_s_'_]_)_,_ _'_n_o_d_e_T_y_p_e_'_:_ _[_'_T_o_k_e_n_'_,_ _'_A_d_j_e_c_t_i_v_e_T_o_k_e_n_'_]_,_ _'_p_o_s_'_:_ _[_'_R_B_'_,_ _'_W_D_T_'_,_ _'_D_T_'_,_ _'_J_J_'_,_ _'_P_R_P_'_]_}_,_ _'_*_'_,_ _{_'_n_o_d_e_T_y_p_e_'_:_ _'_T_o_k_e_n_'_,_ _'_p_o_s_'_:_ _[_'_V_B_D_'_,_ _'_V_B_N_'_]_}_,_ _'_|_'_,_ _{_'_t_e_x_t_'_:_ _'_b_e_e_n_'_,_ _'_n_o_d_e_T_y_p_e_'_:_ _'_T_o_k_e_n_'_}_,_ _{_'_t_e_x_t_'_:_ _(_'_^_'_,_ _[_'_a_'_,_ _'_a_n_'_,_ _'_t_h_e_'_,_ _'_a_s_'_]_)_,_ _'_n_o_d_e_T_y_p_e_'_:_ _[_'_T_o_k_e_n_'_,_ _'_A_d_j_e_c_t_i_v_e_T_o_k_e_n_'_]_,_ _'_p_o_s_'_:_ _[_'_R_B_'_,_ _'_W_D_T_'_,_ _'_D_T_'_,_ _'_J_J_'_,_ _'_P_R_P_'_]_}_,_ _'_*_'_,_ _{_'_n_o_d_e_T_y_p_e_'_:_ _'_T_o_k_e_n_'_,_ _'_p_o_s_'_:_ _[_'_V_B_D_'_,_ _'_V_B_N_'_]_}_,_ _'_|_'_,_ _{_'_t_e_x_t_'_:_ _'_b_e_e_n_'_,_ _'_n_o_d_e_T_y_p_e_'_:_ _'_T_o_k_e_n_'_}_,_ _{_'_t_e_x_t_'_:_ _(_'_^_'_,_ _[_'_a_'_,_ _'_a_n_'_,_ _'_t_h_e_'_,_ _'_a_s_'_]_)_,_ _'_n_o_d_e_T_y_p_e_'_:_ _[_'_T_o_k_e_n_'_,_ _'_A_d_j_e_c_t_i_v_e_T_o_k_e_n_'_]_,_ _'_p_o_s_'_:_ _[_'_R_B_'_,_ _'_W_D_T_'_,_ _'_D_T_'_,_ _'_J_J_'_,_ _'_P_R_P_'_]_}_,_ _'_*_'_,_ _{_'_n_o_d_e_T_y_p_e_'_:_ _'_T_o_k_e_n_'_,_ _'_p_o_s_'_:_ _'_V_B_G_'_}_,_ _'_|_'_,_ _{_'_n_o_d_e_T_y_p_e_'_:_ _'_T_o_k_e_n_'_,_ _'_p_o_s_'_:_ _[_'_V_B_D_'_,_ _'_V_B_N_'_]_}_,_ _'_)_'_]"
p75
sg12
I0
sg13
(lp76
I0
aI2
aI1
aI3
asg15
(dp77
sg17
I1
sg18
(lp78
(I0
I0
S"{'text': ('^', ['a', 'an', 'the', 'as']), 'nodeType': ['Token', 'AdjectiveToken'], 'pos': ['RB', 'WDT', 'DT', 'JJ', 'PRP']}"
tp79
a(I0
I1
S"{'text': 'been', 'nodeType': 'Token'}"
tp80
a(I0
I2
S"{'nodeType': 'Token', 'pos': ['VBD', 'VBN']}"
tp81
a(I1
I1
S"{'text': ('^', ['a', 'an', 'the', 'as']), 'nodeType': ['Token', 'AdjectiveToken'], 'pos': ['RB', 'WDT', 'DT', 'JJ', 'PRP']}"
tp82
a(I1
I3
S"{'text': 'being', 'nodeType': 'Token'}"
tp83
a(I1
I2
S"{'nodeType': 'Token', 'pos': 'VBG'}"
tp84
a(I1
I2
S"{'nodeType': 'Token', 'pos': ['VBD', 'VBN']}"
tp85
a(I3
I3
S"{'text': ('^', ['a', 'an', 'the', 'as']), 'nodeType': ['Token', 'AdjectiveToken'], 'pos': ['RB', 'WDT', 'DT', 'JJ', 'PRP']}"
tp86
a(I3
I2
S"{'nodeType': 'Token', 'pos': ['VBD', 'VBN']}"
tp87
asg69
I1
sg70
I1
sba(iutilities.FSA
FSA
p88
(dp89
g4
S'haveAux_RegVerb_EmbedComment'
p90
sg6
(lp91
I7
asg8
I1
sg9
Nsg10
S"[_{_'_t_e_x_t_'_:_ _(_'_^_'_,_ _[_'_a_'_,_ _'_a_n_'_,_ _'_t_h_e_'_,_ _'_a_s_'_]_)_,_ _'_n_o_d_e_T_y_p_e_'_:_ _[_'_T_o_k_e_n_'_,_ _'_A_d_j_e_c_t_i_v_e_T_o_k_e_n_'_]_,_ _'_p_o_s_'_:_ _[_'_R_B_'_,_ _'_W_D_T_'_,_ _'_D_T_'_,_ _'_J_J_'_,_ _'_P_R_P_'_]_}_,_ _'_*_'_,_ _{_'_t_e_x_t_'_:_ _'_,_'_,_ _'_n_o_d_e_T_y_p_e_'_:_ _'_T_o_k_e_n_'_}_,_ _'_._'_,_ _'_._'_,_ _'_._'_,_ _'_?_'_,_ _{_'_t_e_x_t_'_:_ _'_,_'_,_ _'_n_o_d_e_T_y_p_e_'_:_ _'_T_o_k_e_n_'_}_,_ _'_(_'_,_ _{_'_t_e_x_t_'_:_ _'_b_e_e_n_'_,_ _'_n_o_d_e_T_y_p_e_'_:_ _'_T_o_k_e_n_'_}_,_ _{_'_t_e_x_t_'_:_ _(_'_^_'_,_ _[_'_a_'_,_ _'_a_n_'_,_ _'_t_h_e_'_,_ _'_a_s_'_]_)_,_ _'_n_o_d_e_T_y_p_e_'_:_ _[_'_T_o_k_e_n_'_,_ _'_A_d_j_e_c_t_i_v_e_T_o_k_e_n_'_]_,_ _'_p_o_s_'_:_ _[_'_R_B_'_,_ _'_W_D_T_'_,_ _'_D_T_'_,_ _'_J_J_'_,_ _'_P_R_P_'_]_}_,_ _'_*_'_,_ _{_'_t_e_x_t_'_:_ _'_b_e_i_n_g_'_,_ _'_n_o_d_e_T_y_p_e_'_:_ _'_T_o_k_e_n_'_}_,_ _{_'_t_e_x_t_'_:_ _(_'_^_'_,_ _[_'_a_'_,_ _'_a_n_'_,_ _'_t_h_e_'_,_ _'_a_s_'_]_)_,_ _'_n_o_d_e_T_y_p_e_'_:_ _[_'_T_o_k_e_n_'_,_ _'_A_d_j_e_c_t_i_v_e_T_o_k_e_n_'_]_,_ _'_p_o_s_'_:_ _[_'_R_B_'_,_ _'_W_D_T_'_,_ _'_D_T_'_,_ _'_J_J_'_,_ _'_P_R_P_'_]_}_,_ _'_*_'_,_ _{_'_n_o_d_e_T_y_p_e_'_:_ _'_T_o_k_e_n_'_,_ _'_p_o_s_'_:_ _[_'_V_B_D_'_,_ _'_V_B_N_'_]_}_,_ _'_|_'_,_ _{_'_t_e_x_t_'_:_ _'_b_e_e_n_'_,_ _'_n_o_d_e_T_y_p_e_'_:_ _'_T_o_k_e_n_'_}_,_ _{_'_t_e_x_t_'_:_ _(_'_^_'_,_ _[_'_a_'_,_ _'_a_n_'_,_ _'_t_h_e_'_,_ _'_a_s_'_]_)_,_ _'_n_o_d_e_T_y_p_e_'_:_ _[_'_T_o_k_e_n_'_,_ _'_A_d_j_e_c_t_i_v_e_T_o_k_e_n_'_]_,_ _'_p_o_s_'_:_ _[_'_R_B_'_,_ _'_W_D_T_'_,_ _'_D_T_'_,_ _'_J_J_'_,_ _'_P_R_P_'_]_}_,_ _'_*_'_,_ _{_'_n_o_d_e_T_y_p_e_'_:_ _'_T_o_k_e_n_'_,_ _'_p_o_s_'_:_ _[_'_V_B_D_'_,_ _'_V_B_N_'_]_}_,_ _'_|_'_,_ _{_'_t_e_x_t_'_:_ _'_b_e_e_n_'_,_ _'_n_o_d_e_T_y_p_e_'_:_ _'_T_o_k_e_n_'_}_,_ _{_'_t_e_x_t_'_:_ _(_'_^_'_,_ _[_'_a_'_,_ _'_a_n_'_,_ _'_t_h_e_'_,_ _'_a_s_'_]_)_,_ _'_n_o_d_e_T_y_p_e_'_:_ _[_'_T_o_k_e_n_'_,_ _'_A_d_j_e_c_t_i_v_e_T_o_k_e_n_'_]_,_ _'_p_o_s_'_:_ _[_'_R_B_'_,_ _'_W_D_T_'_,_ _'_D_T_'_,_ _'_J_J_'_,_ _'_P_R_P_'_]_}_,_ _'_*_'_,_ _{_'_n_o_d_e_T_y_p_e_'_:_ _'_T_o_k_e_n_'_,_ _'_p_o_s_'_:_ _'_V_B_G_'_}_,_ _'_|_'_,_ _{_'_n_o_d_e_T_y_p_e_'_:_ _'_T_o_k_e_n_'_,_ _'_p_o_s_'_:_ _[_'_V_B_D_'_,_ _'_V_B_N_'_]_}_,_ _'_)_'_]"
p92
sg12
I0
sg13
(lp93
I0
aI1
aI8
aI2
aI3
aI4
aI5
aI7
aI6
asg15
(dp94
sg17
I1
sg18
(lp95
(I0
I0
S"{'text': ('^', ['a', 'an', 'the', 'as']), 'nodeType': ['Token', 'AdjectiveToken'], 'pos': ['RB', 'WDT', 'DT', 'JJ', 'PRP']}"
tp96
a(I0
I1
S"{'text': ',', 'nodeType': 'Token'}"
tp97
a(I1
I2
S'ALL'
p98
tp99
a(I2
I3
g98
tp100
a(I3
I4
g98
tp101
a(I3
I5
S"{'text': ',', 'nodeType': 'Token'}"
p102
tp103
a(I4
I5
g102
tp104
a(I5
I6
S"{'text': 'been', 'nodeType': 'Token'}"
tp105
a(I5
I7
S"{'nodeType': 'Token', 'pos': ['VBD', 'VBN']}"
tp106
a(I6
I6
S"{'text': ('^', ['a', 'an', 'the', 'as']), 'nodeType': ['Token', 'AdjectiveToken'], 'pos': ['RB', 'WDT', 'DT', 'JJ', 'PRP']}"
tp107
a(I6
I8
S"{'text': 'being', 'nodeType': 'Token'}"
tp108
a(I6
I7
S"{'nodeType': 'Token', 'pos': 'VBG'}"
tp109
a(I6
I7
S"{'nodeType': 'Token', 'pos': ['VBD', 'VBN']}"
tp110
a(I8
I8
S"{'text': ('^', ['a', 'an', 'the', 'as']), 'nodeType': ['Token', 'AdjectiveToken'], 'pos': ['RB', 'WDT', 'DT', 'JJ', 'PRP']}"
tp111
a(I8
I7
S"{'nodeType': 'Token', 'pos': ['VBD', 'VBN']}"
tp112
asg69
I1
sg70
I1
sba.