(lp1
(iutilities.FSA
FSA
p2
(dp3
S'fsaname'
p4
NsS'finalStates'
p5
(lp6
I2
asS'_isTrimmed'
p7
I1
sS'alphabet'
p8
NsS'label'
p9
S"[_{_'_t_e_x_t_'_:_ _(_'_^_'_,_ _[_'_a_'_,_ _'_a_n_'_,_ _'_t_h_e_'_,_ _'_a_s_'_]_)_,_ _'_n_o_d_e_T_y_p_e_'_:_ _'_T_o_k_e_n_'_,_ _'_p_o_s_'_:_ _[_'_R_B_'_,_ _'_R_B_R_'_,_ _'_R_B_S_'_,_ _'_W_D_T_'_,_ _'_D_T_'_,_ _'_P_R_P_'_,_ _'_R_P_'_,_ _'_I_N_'_]_}_,_ _'_*_'_,_ _{_'_n_o_d_e_T_y_p_e_'_:_ _'_N_o_u_n_C_h_u_n_k_'_}_,_ _{_'_n_o_d_e_T_y_p_e_'_:_ _'_A_d_j_e_c_t_i_v_e_T_o_k_e_n_'_,_ _'_p_o_s_'_:_ _'_J_J_R_'_}_,_ _'_*_'_,_ _{_'_n_o_d_e_T_y_p_e_'_:_ _'_A_d_j_e_c_t_i_v_e_T_o_k_e_n_'_,_ _'_p_o_s_'_:_ _'_J_J_'_}_]"
p10
sS'initialState'
p11
I0
sS'states'
p12
(lp13
I1
aI0
aI2
asS'_arcMetadata'
p14
(dp15
sS'_isSorted'
p16
I1
sS'transitions'
p17
(lp18
(I0
I1
S"{'nodeType': 'NounChunk'}"
tp19
a(I0
I0
S"{'text': ('^', ['a', 'an', 'the', 'as']), 'nodeType': 'Token', 'pos': ['RB', 'RBR', 'RBS', 'WDT', 'DT', 'PRP', 'RP', 'IN']}"
tp20
a(I1
I1
S"{'nodeType': 'AdjectiveToken', 'pos': 'JJR'}"
tp21
a(I1
I2
S"{'nodeType': 'AdjectiveToken', 'pos': 'JJ'}"
tp22
asS'_isDeterminized'
p23
I1
sS'_isMinimized'
p24
I1
sba(iutilities.FSA
FSA
p25
(dp26
g4
Nsg5
(lp27
I2
asg7
I1
sg8
Nsg9
S"[_{_'_t_e_x_t_'_:_ _(_'_^_'_,_ _[_'_a_'_,_ _'_a_n_'_,_ _'_t_h_e_'_,_ _'_a_s_'_]_)_,_ _'_n_o_d_e_T_y_p_e_'_:_ _'_T_o_k_e_n_'_,_ _'_p_o_s_'_:_ _[_'_R_B_'_,_ _'_R_B_R_'_,_ _'_R_B_S_'_,_ _'_W_D_T_'_,_ _'_D_T_'_,_ _'_P_R_P_'_,_ _'_R_P_'_,_ _'_I_N_'_]_}_,_ _'_*_'_,_ _{_'_n_o_d_e_T_y_p_e_'_:_ _'_N_o_u_n_C_h_u_n_k_'_}_,_ _{_'_n_o_d_e_T_y_p_e_'_:_ _'_A_d_j_e_c_t_i_v_e_T_o_k_e_n_'_,_ _'_p_o_s_'_:_ _'_J_J_R_'_}_]"
p28
sg11
I0
sg12
(lp29
I2
aI0
aI1
asg14
(dp30
sg16
I1
sg17
(lp31
(I0
I1
S"{'nodeType': 'NounChunk'}"
tp32
a(I0
I0
S"{'text': ('^', ['a', 'an', 'the', 'as']), 'nodeType': 'Token', 'pos': ['RB', 'RBR', 'RBS', 'WDT', 'DT', 'PRP', 'RP', 'IN']}"
tp33
a(I1
I2
S"{'nodeType': 'AdjectiveToken', 'pos': 'JJR'}"
tp34
asg23
I1
sg24
I1
sba.