(lp1
(iutilities.FSA
FSA
p2
(dp3
S'fsaname'
p4
S'keepAdj1'
p5
sS'finalStates'
p6
(lp7
I2
asS'_isTrimmed'
p8
I1
sS'alphabet'
p9
NsS'label'
p10
S"[_{_'_t_e_x_t_'_:_ _(_'_^_'_,_ _[_'_a_'_,_ _'_a_n_'_,_ _'_t_h_e_'_,_ _'_a_s_'_]_)_,_ _'_n_o_d_e_T_y_p_e_'_:_ _'_T_o_k_e_n_'_,_ _'_p_o_s_'_:_ _[_'_R_B_'_,_ _'_R_B_R_'_,_ _'_R_B_S_'_,_ _'_W_D_T_'_,_ _'_D_T_'_,_ _'_P_R_P_'_,_ _'_R_P_'_,_ _'_I_N_'_]_}_,_ _'_*_'_,_ _{_'_n_o_d_e_T_y_p_e_'_:_ _'_N_o_u_n_C_h_u_n_k_'_}_,_ _{_'_n_o_d_e_T_y_p_e_'_:_ _'_A_d_j_e_c_t_i_v_e_T_o_k_e_n_'_,_ _'_p_o_s_'_:_ _'_J_J_R_'_}_,_ _'_*_'_,_ _{_'_n_o_d_e_T_y_p_e_'_:_ _'_A_d_j_e_c_t_i_v_e_T_o_k_e_n_'_,_ _'_p_o_s_'_:_ _'_J_J_'_}_]"
p11
sS'initialState'
p12
I0
sS'states'
p13
(lp14
I1
aI0
aI2
asS'_arcMetadata'
p15
(dp16
sS'_isSorted'
p17
I1
sS'transitions'
p18
(lp19
(I0
I1
S"{'nodeType': 'NounChunk'}"
tp20
a(I0
I0
S"{'text': ('^', ['a', 'an', 'the', 'as']), 'nodeType': 'Token', 'pos': ['RB', 'RBR', 'RBS', 'WDT', 'DT', 'PRP', 'RP', 'IN']}"
tp21
a(I1
I1
S"{'nodeType': 'AdjectiveToken', 'pos': 'JJR'}"
tp22
a(I1
I2
S"{'nodeType': 'AdjectiveToken', 'pos': 'JJ'}"
tp23
asS'_isDeterminized'
p24
I1
sS'_isMinimized'
p25
I1
sba(iutilities.FSA
FSA
p26
(dp27
g4
S'keepAdj2'
p28
sg6
(lp29
I2
asg8
I1
sg9
Nsg10
S"[_{_'_t_e_x_t_'_:_ _(_'_^_'_,_ _[_'_a_'_,_ _'_a_n_'_,_ _'_t_h_e_'_,_ _'_a_s_'_]_)_,_ _'_n_o_d_e_T_y_p_e_'_:_ _'_T_o_k_e_n_'_,_ _'_p_o_s_'_:_ _[_'_R_B_'_,_ _'_R_B_R_'_,_ _'_R_B_S_'_,_ _'_W_D_T_'_,_ _'_D_T_'_,_ _'_P_R_P_'_,_ _'_R_P_'_,_ _'_I_N_'_]_}_,_ _'_*_'_,_ _{_'_n_o_d_e_T_y_p_e_'_:_ _'_N_o_u_n_C_h_u_n_k_'_}_,_ _{_'_n_o_d_e_T_y_p_e_'_:_ _'_A_d_j_e_c_t_i_v_e_T_o_k_e_n_'_,_ _'_p_o_s_'_:_ _'_J_J_R_'_}_]"
p30
sg12
I0
sg13
(lp31
I2
aI0
aI1
asg15
(dp32
sg17
I1
sg18
(lp33
(I0
I1
S"{'nodeType': 'NounChunk'}"
tp34
a(I0
I0
S"{'text': ('^', ['a', 'an', 'the', 'as']), 'nodeType': 'Token', 'pos': ['RB', 'RBR', 'RBS', 'WDT', 'DT', 'PRP', 'RP', 'IN']}"
tp35
a(I1
I2
S"{'nodeType': 'AdjectiveToken', 'pos': 'JJR'}"
tp36
asg24
I1
sg25
I1
sba.