(lp1
(iutilities.FSA
FSA
p2
(dp3
S'fsaname'
p4
NsS'finalStates'
p5
(lp6
I4
asS'_isTrimmed'
p7
I1
sS'alphabet'
p8
NsS'label'
p9
S'[_{_\'_t_e_x_t_\'_:_ _(_\'_^_\'_,_ _[_\'_a_\'_,_ _\'_a_n_\'_,_ _\'_t_h_e_\'_,_ _\'_a_s_\'_]_)_,_ _\'_n_o_d_e_T_y_p_e_\'_:_ _[_\'_T_o_k_e_n_\'_,_ _\'_A_d_j_e_c_t_i_v_e_T_o_k_e_n_\'_]_,_ _\'_p_o_s_\'_:_ _[_\'_R_B_\'_,_ _\'_W_D_T_\'_,_ _\'_D_T_\'_,_ _\'_J_J_\'_,_ _\'_P_R_P_\'_]_}_,_ _\'_*_\'_,_ _\'_(_\'_,_ _{_\'_t_e_x_t_\'_:_ _\'_b_e_\'_,_ _\'_n_o_d_e_T_y_p_e_\'_:_ _\'_T_o_k_e_n_\'_,_ _\'_p_o_s_\'_:_ _[_\'_V_B_\'_,_ _\'_V_B_P_\'_]_}_,_ _{_\'_t_e_x_t_\'_:_ _(_\'_^_\'_,_ _[_\'_a_\'_,_ _\'_a_n_\'_,_ _\'_t_h_e_\'_,_ _\'_a_s_\'_]_)_,_ _\'_n_o_d_e_T_y_p_e_\'_:_ _[_\'_T_o_k_e_n_\'_,_ _\'_A_d_j_e_c_t_i_v_e_T_o_k_e_n_\'_]_,_ _\'_p_o_s_\'_:_ _[_\'_R_B_\'_,_ _\'_W_D_T_\'_,_ _\'_D_T_\'_,_ _\'_J_J_\'_,_ _\'_P_R_P_\'_]_}_,_ _\'_*_\'_,_ _{_\'_t_e_x_t_\'_:_ _\'_g_o_i_n_g_\'_,_ _\'_n_o_d_e_T_y_p_e_\'_:_ _\'_T_o_k_e_n_\'_}_,_ _{_\'_t_e_x_t_\'_:_ _\'_t_o_\'_,_ _\'_n_o_d_e_T_y_p_e_\'_:_ _\'_T_o_k_e_n_\'_}_,_ _\'_|_\'_,_ _{_\'_t_e_x_t_\'_:_ _[_\'_n_o_t_\'_,_ _"_n_\'_t_"_,_ _\'_n_e_i_t_h_e_r_\'_]_,_ _\'_n_o_d_e_T_y_p_e_\'_:_ _\'_T_o_k_e_n_\'_}_,_ _\'_|_\'_,_ _{_\'_t_e_x_t_\'_:_ _\'_h_a_v_e_\'_,_ _\'_n_o_d_e_T_y_p_e_\'_:_ _\'_T_o_k_e_n_\'_,_ _\'_p_o_s_\'_:_ _[_\'_V_B_\'_,_ _\'_V_B_P_\'_]_}_,_ _{_\'_t_e_x_t_\'_:_ _\'_h_a_d_\'_,_ _\'_n_o_d_e_T_y_p_e_\'_:_ _\'_T_o_k_e_n_\'_}_,_ _\'_?_\'_,_ _{_\'_t_e_x_t_\'_:_ _\'_t_o_\'_,_ _\'_n_o_d_e_T_y_p_e_\'_:_ _\'_T_o_k_e_n_\'_}_,_ _\'_|_\'_,_ _{_\'_t_e_x_t_\'_:_ _\'_,_\'_,_ _\'_n_o_d_e_T_y_p_e_\'_:_ _\'_T_o_k_e_n_\'_}_,_ _\'_._\'_,_ _\'_._\'_,_ _\'_._\'_,_ _\'_?_\'_,_ _\'_._\'_,_ _\'_?_\'_,_ _{_\'_t_e_x_t_\'_:_ _\'_,_\'_,_ _\'_n_o_d_e_T_y_p_e_\'_:_ _\'_T_o_k_e_n_\'_}_,_ _\'_)_\'_,_ _\'_*_\'_,_ _{_\'_t_e_x_t_\'_:_ _(_\'_^_\'_,_ _[_\'_a_\'_,_ _\'_a_n_\'_,_ _\'_t_h_e_\'_,_ _\'_a_s_\'_]_)_,_ _\'_n_o_d_e_T_y_p_e_\'_:_ _[_\'_T_o_k_e_n_\'_,_ _\'_A_d_j_e_c_t_i_v_e_T_o_k_e_n_\'_]_,_ _\'_p_o_s_\'_:_ _[_\'_R_B_\'_,_ _\'_W_D_T_\'_,_ _\'_D_T_\'_,_ _\'_J_J_\'_,_ _\'_P_R_P_\'_]_}_,_ _\'_*_\'_,_ _\'_(_\'_,_ _{_\'_t_e_x_t_\'_:_ _\'_h_a_v_e_\'_,_ _\'_n_o_d_e_T_y_p_e_\'_:_ _\'_T_o_k_e_n_\'_,_ _\'_p_o_s_\'_:_ _[_\'_V_B_\'_,_ _\'_V_B_P_\'_]_}_,_ _{_\'_t_e_x_t_\'_:_ _(_\'_^_\'_,_ _[_\'_a_\'_,_ _\'_a_n_\'_,_ _\'_t_h_e_\'_,_ _\'_a_s_\'_]_)_,_ _\'_n_o_d_e_T_y_p_e_\'_:_ _[_\'_T_o_k_e_n_\'_,_ _\'_A_d_j_e_c_t_i_v_e_T_o_k_e_n_\'_]_,_ _\'_p_o_s_\'_:_ _[_\'_R_B_\'_,_ _\'_W_D_T_\'_,_ _\'_D_T_\'_,_ _\'_J_J_\'_,_ _\'_P_R_P_\'_]_}_,_ _\'_*_\'_,_ _{_\'_t_e_x_t_\'_:_ _\'_b_e_e_n_\'_,_ _\'_n_o_d_e_T_y_p_e_\'_:_ _\'_T_o_k_e_n_\'_}_,_ _{_\'_t_e_x_t_\'_:_ _(_\'_^_\'_,_ _[_\'_a_\'_,_ _\'_a_n_\'_,_ _\'_t_h_e_\'_,_ _\'_a_s_\'_]_)_,_ _\'_n_o_d_e_T_y_p_e_\'_:_ _[_\'_T_o_k_e_n_\'_,_ _\'_A_d_j_e_c_t_i_v_e_T_o_k_e_n_\'_]_,_ _\'_p_o_s_\'_:_ _[_\'_R_B_\'_,_ _\'_W_D_T_\'_,_ _\'_D_T_\'_,_ _\'_J_J_\'_,_ _\'_P_R_P_\'_]_}_,_ _\'_*_\'_,_ _{_\'_t_e_x_t_\'_:_ _\'_b_e_i_n_g_\'_,_ _\'_n_o_d_e_T_y_p_e_\'_:_ _\'_T_o_k_e_n_\'_}_,_ _{_\'_t_e_x_t_\'_:_ _(_\'_^_\'_,_ _[_\'_a_\'_,_ _\'_a_n_\'_,_ _\'_t_h_e_\'_,_ _\'_a_s_\'_]_)_,_ _\'_n_o_d_e_T_y_p_e_\'_:_ _[_\'_T_o_k_e_n_\'_,_ _\'_A_d_j_e_c_t_i_v_e_T_o_k_e_n_\'_]_,_ _\'_p_o_s_\'_:_ _[_\'_R_B_\'_,_ _\'_W_D_T_\'_,_ _\'_D_T_\'_,_ _\'_J_J_\'_,_ _\'_P_R_P_\'_]_}_,_ _\'_*_\'_,_ _{_\'_n_o_d_e_T_y_p_e_\'_:_ _\'_T_o_k_e_n_\'_,_ _\'_p_o_s_\'_:_ _[_\'_V_B_D_\'_,_ _\'_V_B_N_\'_]_}_,_ _\'_|_\'_,_ _{_\'_t_e_x_t_\'_:_ _\'_b_e_\'_,_ _\'_n_o_d_e_T_y_p_e_\'_:_ _\'_T_o_k_e_n_\'_,_ _\'_p_o_s_\'_:_ _[_\'_V_B_\'_,_ _\'_V_B_P_\'_]_}_,_ _{_\'_t_e_x_t_\'_:_ _(_\'_^_\'_,_ _[_\'_a_\'_,_ _\'_a_n_\'_,_ _\'_t_h_e_\'_,_ _\'_a_s_\'_]_)_,_ _\'_n_o_d_e_T_y_p_e_\'_:_ _[_\'_T_o_k_e_n_\'_,_ _\'_A_d_j_e_c_t_i_v_e_T_o_k_e_n_\'_]_,_ _\'_p_o_s_\'_:_ _[_\'_R_B_\'_,_ _\'_W_D_T_\'_,_ _\'_D_T_\'_,_ _\'_J_J_\'_,_ _\'_P_R_P_\'_]_}_,_ _\'_*_\'_,_ _{_\'_t_e_x_t_\'_:_ _\'_b_e_i_n_g_\'_,_ _\'_n_o_d_e_T_y_p_e_\'_:_ _\'_T_o_k_e_n_\'_}_,_ _{_\'_t_e_x_t_\'_:_ _(_\'_^_\'_,_ _[_\'_a_\'_,_ _\'_a_n_\'_,_ _\'_t_h_e_\'_,_ _\'_a_s_\'_]_)_,_ _\'_n_o_d_e_T_y_p_e_\'_:_ _[_\'_T_o_k_e_n_\'_,_ _\'_A_d_j_e_c_t_i_v_e_T_o_k_e_n_\'_]_,_ _\'_p_o_s_\'_:_ _[_\'_R_B_\'_,_ _\'_W_D_T_\'_,_ _\'_D_T_\'_,_ _\'_J_J_\'_,_ _\'_P_R_P_\'_]_}_,_ _\'_*_\'_,_ _{_\'_n_o_d_e_T_y_p_e_\'_:_ _\'_T_o_k_e_n_\'_,_ _\'_p_o_s_\'_:_ _[_\'_V_B_D_\'_,_ _\'_V_B_N_\'_]_}_,_ _\'_|_\'_,_ _{_\'_t_e_x_t_\'_:_ _\'_h_a_v_e_\'_,_ _\'_n_o_d_e_T_y_p_e_\'_:_ _\'_T_o_k_e_n_\'_,_ _\'_p_o_s_\'_:_ _[_\'_V_B_\'_,_ _\'_V_B_P_\'_]_}_,_ _{_\'_t_e_x_t_\'_:_ _(_\'_^_\'_,_ _[_\'_a_\'_,_ _\'_a_n_\'_,_ _\'_t_h_e_\'_,_ _\'_a_s_\'_]_)_,_ _\'_n_o_d_e_T_y_p_e_\'_:_ _[_\'_T_o_k_e_n_\'_,_ _\'_A_d_j_e_c_t_i_v_e_T_o_k_e_n_\'_]_,_ _\'_p_o_s_\'_:_ _[_\'_R_B_\'_,_ _\'_W_D_T_\'_,_ _\'_D_T_\'_,_ _\'_J_J_\'_,_ _\'_P_R_P_\'_]_}_,_ _\'_*_\'_,_ _{_\'_t_e_x_t_\'_:_ _\'_b_e_e_n_\'_,_ _\'_n_o_d_e_T_y_p_e_\'_:_ _\'_T_o_k_e_n_\'_}_,_ _{_\'_t_e_x_t_\'_:_ _(_\'_^_\'_,_ _[_\'_a_\'_,_ _\'_a_n_\'_,_ _\'_t_h_e_\'_,_ _\'_a_s_\'_]_)_,_ _\'_n_o_d_e_T_y_p_e_\'_:_ _[_\'_T_o_k_e_n_\'_,_ _\'_A_d_j_e_c_t_i_v_e_T_o_k_e_n_\'_]_,_ _\'_p_o_s_\'_:_ _[_\'_R_B_\'_,_ _\'_W_D_T_\'_,_ _\'_D_T_\'_,_ _\'_J_J_\'_,_ _\'_P_R_P_\'_]_}_,_ _\'_*_\'_,_ _{_\'_n_o_d_e_T_y_p_e_\'_:_ _\'_T_o_k_e_n_\'_,_ _\'_p_o_s_\'_:_ _[_\'_V_B_D_\'_,_ _\'_V_B_N_\'_]_}_,_ _\'_|_\'_,_ _{_\'_t_e_x_t_\'_:_ _\'_h_a_v_e_\'_,_ _\'_n_o_d_e_T_y_p_e_\'_:_ _\'_T_o_k_e_n_\'_,_ _\'_p_o_s_\'_:_ _[_\'_V_B_\'_,_ _\'_V_B_P_\'_]_}_,_ _{_\'_t_e_x_t_\'_:_ _(_\'_^_\'_,_ _[_\'_a_\'_,_ _\'_a_n_\'_,_ _\'_t_h_e_\'_,_ _\'_a_s_\'_]_)_,_ _\'_n_o_d_e_T_y_p_e_\'_:_ _[_\'_T_o_k_e_n_\'_,_ _\'_A_d_j_e_c_t_i_v_e_T_o_k_e_n_\'_]_,_ _\'_p_o_s_\'_:_ _[_\'_R_B_\'_,_ _\'_W_D_T_\'_,_ _\'_D_T_\'_,_ _\'_J_J_\'_,_ _\'_P_R_P_\'_]_}_,_ _\'_*_\'_,_ _{_\'_t_e_x_t_\'_:_ _\'_b_e_e_n_\'_,_ _\'_n_o_d_e_T_y_p_e_\'_:_ _\'_T_o_k_e_n_\'_}_,_ _{_\'_t_e_x_t_\'_:_ _(_\'_^_\'_,_ _[_\'_a_\'_,_ _\'_a_n_\'_,_ _\'_t_h_e_\'_,_ _\'_a_s_\'_]_)_,_ _\'_n_o_d_e_T_y_p_e_\'_:_ _[_\'_T_o_k_e_n_\'_,_ _\'_A_d_j_e_c_t_i_v_e_T_o_k_e_n_\'_]_,_ _\'_p_o_s_\'_:_ _[_\'_R_B_\'_,_ _\'_W_D_T_\'_,_ _\'_D_T_\'_,_ _\'_J_J_\'_,_ _\'_P_R_P_\'_]_}_,_ _\'_*_\'_,_ _{_\'_n_o_d_e_T_y_p_e_\'_:_ _\'_T_o_k_e_n_\'_,_ _\'_p_o_s_\'_:_ _\'_V_B_G_\'_}_,_ _\'_|_\'_,_ _{_\'_t_e_x_t_\'_:_ _\'_b_e_\'_,_ _\'_n_o_d_e_T_y_p_e_\'_:_ _\'_T_o_k_e_n_\'_,_ _\'_p_o_s_\'_:_ _[_\'_V_B_\'_,_ _\'_V_B_P_\'_]_}_,_ _{_\'_t_e_x_t_\'_:_ _(_\'_^_\'_,_ _[_\'_a_\'_,_ _\'_a_n_\'_,_ _\'_t_h_e_\'_,_ _\'_a_s_\'_]_)_,_ _\'_n_o_d_e_T_y_p_e_\'_:_ _[_\'_T_o_k_e_n_\'_,_ _\'_A_d_j_e_c_t_i_v_e_T_o_k_e_n_\'_]_,_ _\'_p_o_s_\'_:_ _[_\'_R_B_\'_,_ _\'_W_D_T_\'_,_ _\'_D_T_\'_,_ _\'_J_J_\'_,_ _\'_P_R_P_\'_]_}_,_ _\'_*_\'_,_ _{_\'_n_o_d_e_T_y_p_e_\'_:_ _\'_T_o_k_e_n_\'_,_ _\'_p_o_s_\'_:_ _[_\'_V_B_D_\'_,_ _\'_V_B_N_\'_]_}_,_ _\'_|_\'_,_ _{_\'_t_e_x_t_\'_:_ _\'_b_e_\'_,_ _\'_n_o_d_e_T_y_p_e_\'_:_ _\'_T_o_k_e_n_\'_,_ _\'_p_o_s_\'_:_ _[_\'_V_B_\'_,_ _\'_V_B_P_\'_]_}_,_ _{_\'_t_e_x_t_\'_:_ _(_\'_^_\'_,_ _[_\'_a_\'_,_ _\'_a_n_\'_,_ _\'_t_h_e_\'_,_ _\'_a_s_\'_]_)_,_ _\'_n_o_d_e_T_y_p_e_\'_:_ _[_\'_T_o_k_e_n_\'_,_ _\'_A_d_j_e_c_t_i_v_e_T_o_k_e_n_\'_]_,_ _\'_p_o_s_\'_:_ _[_\'_R_B_\'_,_ _\'_W_D_T_\'_,_ _\'_D_T_\'_,_ _\'_J_J_\'_,_ _\'_P_R_P_\'_]_}_,_ _\'_*_\'_,_ _{_\'_n_o_d_e_T_y_p_e_\'_:_ _\'_T_o_k_e_n_\'_,_ _\'_p_o_s_\'_:_ _\'_V_B_G_\'_}_,_ _\'_|_\'_,_ _{_\'_t_e_x_t_\'_:_ _\'_h_a_v_e_\'_,_ _\'_n_o_d_e_T_y_p_e_\'_:_ _\'_T_o_k_e_n_\'_,_ _\'_p_o_s_\'_:_ _[_\'_V_B_\'_,_ _\'_V_B_P_\'_]_}_,_ _{_\'_t_e_x_t_\'_:_ _(_\'_^_\'_,_ _[_\'_a_\'_,_ _\'_a_n_\'_,_ _\'_t_h_e_\'_,_ _\'_a_s_\'_]_)_,_ _\'_n_o_d_e_T_y_p_e_\'_:_ _[_\'_T_o_k_e_n_\'_,_ _\'_A_d_j_e_c_t_i_v_e_T_o_k_e_n_\'_]_,_ _\'_p_o_s_\'_:_ _[_\'_R_B_\'_,_ _\'_W_D_T_\'_,_ _\'_D_T_\'_,_ _\'_J_J_\'_,_ _\'_P_R_P_\'_]_}_,_ _\'_*_\'_,_ _{_\'_n_o_d_e_T_y_p_e_\'_:_ _\'_T_o_k_e_n_\'_,_ _\'_p_o_s_\'_:_ _[_\'_V_B_D_\'_,_ _\'_V_B_N_\'_]_}_,_ _\'_|_\'_,_ _{_\'_n_o_d_e_T_y_p_e_\'_:_ _\'_T_o_k_e_n_\'_,_ _\'_p_o_s_\'_:_ _[_\'_V_B_\'_,_ _\'_V_B_P_\'_]_}_,_ _\'_)_\'_]'
p10
sS'initialState'
p11
I0
sS'states'
p12
(lp13
I3
aI11
aI10
aI2
aI9
aI4
aI12
aI6
aI14
aI7
aI1
aI8
aI5
aI0
aI13
asS'_arcMetadata'
p14
(dp15
sS'_isSorted'
p16
I1
sS'transitions'
p17
(lp18
(I0
I1
S"{'text': ',', 'nodeType': 'Token'}"
p19
tp20
a(I0
I2
S'{\'text\': [\'not\', "n\'t", \'neither\'], \'nodeType\': \'Token\'}'
p21
tp22
a(I0
I0
S"{'text': ('^', ['a', 'an', 'the', 'as']), 'nodeType': ['Token', 'AdjectiveToken'], 'pos': ['RB', 'WDT', 'DT', 'JJ', 'PRP']}"
tp23
a(I0
I3
S"{'text': 'be', 'nodeType': 'Token', 'pos': ['VB', 'VBP']}"
p24
tp25
a(I0
I4
S"{'nodeType': 'Token', 'pos': ['VB', 'VBP']}"
p26
tp27
a(I0
I5
S"{'text': 'have', 'nodeType': 'Token', 'pos': ['VB', 'VBP']}"
p28
tp29
a(I1
I6
S'ALL'
p30
tp31
a(I2
I1
g19
tp32
a(I2
I2
g21
tp33
a(I2
I7
S"{'text': ('^', ['a', 'an', 'the', 'as']), 'nodeType': ['Token', 'AdjectiveToken'], 'pos': ['RB', 'WDT', 'DT', 'JJ', 'PRP']}"
p34
tp35
a(I2
I3
g24
tp36
a(I2
I4
g26
tp37
a(I2
I5
g28
tp38
a(I3
I3
S"{'text': ('^', ['a', 'an', 'the', 'as']), 'nodeType': ['Token', 'AdjectiveToken'], 'pos': ['RB', 'WDT', 'DT', 'JJ', 'PRP']}"
tp39
a(I3
I8
S"{'text': 'being', 'nodeType': 'Token'}"
tp40
a(I3
I4
S"{'nodeType': 'Token', 'pos': 'VBG'}"
tp41
a(I3
I4
S"{'nodeType': 'Token', 'pos': ['VBD', 'VBN']}"
tp42
a(I3
I9
S"{'text': 'going', 'nodeType': 'Token'}"
tp43
a(I5
I4
S"{'nodeType': 'Token', 'pos': ['VBD', 'VBN']}"
p44
tp45
a(I5
I10
S"{'text': ('^', ['a', 'an', 'the', 'as']), 'nodeType': ['Token', 'AdjectiveToken'], 'pos': ['RB', 'WDT', 'DT', 'JJ', 'PRP']}"
p46
tp47
a(I5
I11
S"{'text': 'been', 'nodeType': 'Token'}"
p48
tp49
a(I5
I2
S"{'text': 'to', 'nodeType': 'Token'}"
tp50
a(I5
I9
S"{'text': 'had', 'nodeType': 'Token'}"
tp51
a(I6
I12
g30
tp52
a(I7
I7
g34
tp53
a(I7
I11
S"{'text': 'be', 'nodeType': 'Token', 'pos': ['VB', 'VBP']}"
tp54
a(I7
I10
S"{'text': 'have', 'nodeType': 'Token', 'pos': ['VB', 'VBP']}"
tp55
a(I7
I4
g26
tp56
a(I8
I8
S"{'text': ('^', ['a', 'an', 'the', 'as']), 'nodeType': ['Token', 'AdjectiveToken'], 'pos': ['RB', 'WDT', 'DT', 'JJ', 'PRP']}"
tp57
a(I8
I4
S"{'nodeType': 'Token', 'pos': ['VBD', 'VBN']}"
tp58
a(I9
I2
S"{'text': 'to', 'nodeType': 'Token'}"
tp59
a(I10
I10
g46
tp60
a(I10
I11
g48
tp61
a(I10
I4
g44
tp62
a(I11
I11
S"{'text': ('^', ['a', 'an', 'the', 'as']), 'nodeType': ['Token', 'AdjectiveToken'], 'pos': ['RB', 'WDT', 'DT', 'JJ', 'PRP']}"
tp63
a(I11
I8
S"{'text': 'being', 'nodeType': 'Token'}"
tp64
a(I11
I4
S"{'nodeType': 'Token', 'pos': 'VBG'}"
tp65
a(I11
I4
S"{'nodeType': 'Token', 'pos': ['VBD', 'VBN']}"
tp66
a(I12
I13
g30
tp67
a(I12
I2
S"{'text': ',', 'nodeType': 'Token'}"
p68
tp69
a(I13
I14
g30
tp70
a(I13
I2
g68
tp71
a(I14
I2
g68
tp72
asS'_isDeterminized'
p73
I1
sS'_isMinimized'
p74
I1
sba.