(dp1
S'completion'
p2
(dp3
S'forward'
p4
((lp5
(lp6
ccopy_reg
_reconstructor
p7
(cutilities.FSA
FSA
p8
c__builtin__
object
p9
NtRp10
(dp11
S'fsaname'
p12
S'of_NPev'
p13
sS'finalStates'
p14
(lp15
I4
asS'_isTrimmed'
p16
I1
sS'alphabet'
p17
NsS'label'
p18
S"[_{_'_n_o_d_e_T_y_p_e_'_:_ _'_T_o_k_e_n_'_,_ _'_p_o_s_'_:_ _'_P_D_T_'_}_,_ _'_?_'_,_ _{_'_n_o_d_e_T_y_p_e_'_:_ _'_N_o_u_n_C_h_u_n_k_'_}_,_ _'_?_'_,_ _{_'_t_e_x_t_'_:_ _'_o_f_'_}_,_ _{_'_n_o_d_e_T_y_p_e_'_:_ _'_T_o_k_e_n_'_,_ _'_p_o_s_'_:_ _'_P_D_T_'_}_,_ _'_?_'_,_ _'_(_'_,_ _{_'_n_o_d_e_T_y_p_e_'_:_ _'_N_o_u_n_C_h_u_n_k_'_,_ _'_e_v_e_n_t_S_t_a_t_u_s_'_:_ _'_1_'_}_,_ _'_|_'_,_ _{_'_n_o_d_e_T_y_p_e_'_:_ _'_T_o_k_e_n_'_,_ _'_p_o_s_'_:_ _'_D_T_'_}_,_ _'_(_'_,_ _{_'_n_o_d_e_T_y_p_e_'_:_ _'_T_o_k_e_n_'_,_ _'_p_o_s_'_:_ _[_'_J_J_'_,_ _'_J_J_R_'_,_ _'_J_J_S_'_]_}_,_ _'_|_'_,_ _{_'_n_o_d_e_T_y_p_e_'_:_ _'_V_e_r_b_C_h_u_n_k_'_,_ _'_p_o_s_'_:_ _[_'_V_G_B_'_,_ _'_V_B_N_'_]_}_,_ _'_|_'_,_ _{_'_p_o_s_'_:_ _'_S_Y_M_'_}_,_ _'_)_'_,_ _'_*_'_,_ _{_'_n_o_d_e_T_y_p_e_'_:_ _'_T_o_k_e_n_'_,_ _'_p_o_s_'_:_ _'_C_D_'_}_,_ _'_*_'_,_ _{_'_n_o_d_e_T_y_p_e_'_:_ _'_N_o_u_n_C_h_u_n_k_'_}_,_ _'_)_'_]"
p19
sS'initialState'
p20
I0
sS'states'
p21
(lp22
I7
aI0
aI1
aI2
aI3
aI4
aI5
aI6
asS'_arcMetadata'
p23
(dp24
sS'_isSorted'
p25
I1
sS'transitions'
p26
(lp27
(I0
I1
S"{'nodeType': 'NounChunk'}"
p28
tp29
a(I0
I2
S"{'nodeType': 'Token', 'pos': 'PDT'}"
tp30
a(I0
I3
S"{'text': 'of'}"
p31
tp32
a(I1
I3
g31
tp33
a(I2
I1
g28
tp34
a(I2
I3
g31
tp35
a(I3
I4
S"{'nodeType': 'NounChunk', 'eventStatus': '1'}"
p36
tp37
a(I3
I5
S"{'nodeType': 'Token', 'pos': 'PDT'}"
tp38
a(I3
I6
S"{'nodeType': 'Token', 'pos': 'DT'}"
p39
tp40
a(I5
I4
g36
tp41
a(I5
I6
g39
tp42
a(I6
I4
S"{'nodeType': 'NounChunk'}"
tp43
a(I6
I6
S"{'nodeType': 'Token', 'pos': ['JJ', 'JJR', 'JJS']}"
tp44
a(I6
I6
S"{'nodeType': 'VerbChunk', 'pos': ['VGB', 'VBN']}"
tp45
a(I6
I6
S"{'pos': 'SYM'}"
tp46
a(I6
I7
S"{'nodeType': 'Token', 'pos': 'CD'}"
tp47
a(I7
I4
S"{'nodeType': 'NounChunk'}"
tp48
a(I7
I7
S"{'nodeType': 'Token', 'pos': 'CD'}"
tp49
asS'_isDeterminized'
p50
I1
sS'_isMinimized'
p51
I1
sbaa(lp52
S'CULMINATES'
p53
atp54
ssS'beginnings'
p55
(dp56
g4
((lp57
(lp58
g7
(g8
g9
NtRp59
(dp60
g12
S'NP_event1'
p61
sg14
(lp62
I2
asg16
I1
sg17
Nsg18
S'[_{_\'_n_o_d_e_T_y_p_e_\'_:_ _\'_T_o_k_e_n_\'_,_ _\'_p_o_s_\'_:_ _\'_P_D_T_\'_}_,_ _\'_?_\'_,_ _{_\'_t_e_x_t_\'_:_ _[_\'_"_\'_,_ _\'_`_`_\'_,_ _"_\'_\'_"_]_}_,_ _\'_?_\'_,_ _\'_(_\'_,_ _{_\'_n_o_d_e_T_y_p_e_\'_:_ _\'_T_o_k_e_n_\'_,_ _\'_p_o_s_\'_:_ _[_\'_J_J_\'_,_ _\'_J_J_R_\'_,_ _\'_J_J_S_\'_,_ _\'_D_T_\'_,_ _\'_P_D_T_\'_,_ _\'_P_O_S_\'_,_ _\'_C_D_\'_,_ _\'_S_Y_M_\'_]_}_,_ _\'_*_\'_,_ _{_\'_n_o_d_e_T_y_p_e_\'_:_ _\'_N_o_u_n_C_h_u_n_k_\'_}_,_ _{_\'_t_e_x_t_\'_:_ _\'_o_f_\'_}_,_ _\'_)_\'_,_ _\'_*_\'_,_ _{_\'_n_o_d_e_T_y_p_e_\'_:_ _\'_N_o_u_n_C_h_u_n_k_\'_,_ _\'_e_v_e_n_t_S_t_a_t_u_s_\'_:_ _\'_1_\'_}_]'
p63
sg20
I0
sg21
(lp64
I0
aI2
aI4
aI3
aI1
aI5
asg23
(dp65
sg25
I1
sg26
(lp66
(I0
I1
S"{'nodeType': 'NounChunk'}"
p67
tp68
a(I0
I2
S"{'nodeType': 'NounChunk', 'eventStatus': '1'}"
p69
tp70
a(I0
I3
S"{'nodeType': 'Token', 'pos': 'PDT'}"
tp71
a(I0
I4
S'{\'text\': [\'"\', \'``\', "\'\'"]}'
p72
tp73
a(I0
I5
S"{'nodeType': 'Token', 'pos': ['JJ', 'JJR', 'JJS', 'DT', 'PDT', 'POS', 'CD', 'SYM']}"
p74
tp75
a(I1
I4
S"{'text': 'of'}"
tp76
a(I3
I1
g67
tp77
a(I3
I2
g69
tp78
a(I3
I4
g72
tp79
a(I3
I5
g74
tp80
a(I4
I1
g67
tp81
a(I4
I2
g69
tp82
a(I4
I5
g74
tp83
a(I5
I1
g67
tp84
a(I5
I5
g74
tp85
asg50
I1
sg51
I1
sbag7
(g8
g9
NtRp86
(dp87
g12
S'NP_event2'
p88
sg14
(lp89
I2
asg16
I1
sg17
Nsg18
S'[_{_\'_n_o_d_e_T_y_p_e_\'_:_ _\'_T_o_k_e_n_\'_,_ _\'_p_o_s_\'_:_ _\'_P_D_T_\'_}_,_ _\'_?_\'_,_ _{_\'_t_e_x_t_\'_:_ _[_\'_"_\'_,_ _\'_`_`_\'_,_ _"_\'_\'_"_]_}_,_ _\'_?_\'_,_ _{_\'_n_o_d_e_T_y_p_e_\'_:_ _\'_T_o_k_e_n_\'_,_ _\'_p_o_s_\'_:_ _\'_D_T_\'_}_,_ _\'_?_\'_,_ _{_\'_t_e_x_t_\'_:_ _[_\'_"_\'_,_ _\'_`_`_\'_,_ _"_\'_\'_"_]_}_,_ _\'_?_\'_,_ _\'_(_\'_,_ _{_\'_n_o_d_e_T_y_p_e_\'_:_ _\'_T_o_k_e_n_\'_,_ _\'_p_o_s_\'_:_ _[_\'_J_J_\'_,_ _\'_J_J_R_\'_,_ _\'_J_J_S_\'_]_}_,_ _\'_|_\'_,_ _{_\'_n_o_d_e_T_y_p_e_\'_:_ _\'_V_e_r_b_C_h_u_n_k_\'_,_ _\'_p_o_s_\'_:_ _[_\'_V_G_B_\'_,_ _\'_V_B_N_\'_]_}_,_ _\'_|_\'_,_ _{_\'_p_o_s_\'_:_ _\'_S_Y_M_\'_}_,_ _\'_)_\'_,_ _\'_*_\'_,_ _{_\'_t_e_x_t_\'_:_ _[_\'_"_\'_,_ _\'_`_`_\'_,_ _"_\'_\'_"_]_}_,_ _\'_?_\'_,_ _{_\'_n_o_d_e_T_y_p_e_\'_:_ _\'_T_o_k_e_n_\'_,_ _\'_p_o_s_\'_:_ _\'_C_D_\'_}_,_ _\'_*_\'_,_ _{_\'_t_e_x_t_\'_:_ _[_\'_"_\'_,_ _\'_`_`_\'_,_ _"_\'_\'_"_]_}_,_ _\'_?_\'_,_ _{_\'_n_o_d_e_T_y_p_e_\'_:_ _\'_N_o_u_n_C_h_u_n_k_\'_,_ _\'_e_v_e_n_t_S_t_a_t_u_s_\'_:_ _\'_1_\'_}_]'
p90
sg20
I0
sg21
(lp91
I0
aI5
aI2
aI6
aI3
aI1
aI4
aI7
asg23
(dp92
sg25
I1
sg26
(lp93
(I0
I1
S"{'nodeType': 'Token', 'pos': ['JJ', 'JJR', 'JJS']}"
tp94
a(I0
I1
S"{'nodeType': 'VerbChunk', 'pos': ['VGB', 'VBN']}"
tp95
a(I0
I1
S"{'pos': 'SYM'}"
tp96
a(I0
I2
S"{'nodeType': 'NounChunk', 'eventStatus': '1'}"
p97
tp98
a(I0
I3
S"{'nodeType': 'Token', 'pos': 'PDT'}"
tp99
a(I0
I4
S'{\'text\': [\'"\', \'``\', "\'\'"]}'
p100
tp101
a(I0
I5
S"{'nodeType': 'Token', 'pos': 'CD'}"
p102
tp103
a(I0
I6
S"{'nodeType': 'Token', 'pos': 'DT'}"
p104
tp105
a(I1
I1
S"{'nodeType': 'Token', 'pos': ['JJ', 'JJR', 'JJS']}"
tp106
a(I1
I1
S"{'nodeType': 'VerbChunk', 'pos': ['VGB', 'VBN']}"
tp107
a(I1
I1
S"{'pos': 'SYM'}"
tp108
a(I1
I2
g97
tp109
a(I1
I5
S"{'nodeType': 'Token', 'pos': 'CD'}"
tp110
a(I1
I5
S'{\'text\': [\'"\', \'``\', "\'\'"]}'
tp111
a(I3
I1
S"{'nodeType': 'Token', 'pos': ['JJ', 'JJR', 'JJS']}"
tp112
a(I3
I1
S"{'nodeType': 'VerbChunk', 'pos': ['VGB', 'VBN']}"
tp113
a(I3
I1
S"{'pos': 'SYM'}"
tp114
a(I3
I2
g97
tp115
a(I3
I4
g100
tp116
a(I3
I5
g102
tp117
a(I3
I6
g104
tp118
a(I4
I1
S"{'nodeType': 'Token', 'pos': ['JJ', 'JJR', 'JJS']}"
tp119
a(I4
I1
S"{'nodeType': 'VerbChunk', 'pos': ['VGB', 'VBN']}"
tp120
a(I4
I1
S"{'pos': 'SYM'}"
tp121
a(I4
I1
S'{\'text\': [\'"\', \'``\', "\'\'"]}'
tp122
a(I4
I2
g97
tp123
a(I4
I5
g102
tp124
a(I4
I6
g104
tp125
a(I5
I2
g97
tp126
a(I5
I7
S'{\'text\': [\'"\', \'``\', "\'\'"]}'
tp127
a(I5
I5
g102
tp128
a(I6
I1
S"{'nodeType': 'Token', 'pos': ['JJ', 'JJR', 'JJS']}"
tp129
a(I6
I1
S"{'nodeType': 'VerbChunk', 'pos': ['VGB', 'VBN']}"
tp130
a(I6
I1
S"{'pos': 'SYM'}"
tp131
a(I6
I1
S'{\'text\': [\'"\', \'``\', "\'\'"]}'
tp132
a(I6
I2
g97
tp133
a(I6
I5
g102
tp134
a(I7
I2
g97
tp135
asg50
I1
sg51
I1
sbag10
aa(lp136
S'INITIATES'
p137
atp138
ssS'opening'
p139
(dp140
g4
((lp141
(lp142
g59
ag86
ag10
aa(lp143
g137
atp144
ssS'starting'
p145
(dp146
g4
((lp147
(lp148
g59
ag86
ag10
aa(lp149
g137
atp150
ssS'ending'
p151
(dp152
g4
((lp153
(lp154
g59
ag86
ag10
aa(lp155
S'TERMINATES'
p156
atp157
ssS'close'
p158
(dp159
g4
((lp160
(lp161
g10
aa(lp162
g156
atp163
ssS'beginning'
p164
(dp165
g4
((lp166
(lp167
g59
ag86
ag10
aa(lp168
g137
atp169
ss.