(dp1
S'entering'
p2
(dp3
S'forward'
p4
((lp5
(lp6
ccopy_reg
_reconstructor
p7
(cutilities.FSA
FSA
p8
c__builtin__
object
p9
NtRp10
(dp11
S'fsaname'
p12
S'NP_event1'
p13
sS'finalStates'
p14
(lp15
I2
asS'_isTrimmed'
p16
I1
sS'alphabet'
p17
NsS'label'
p18
S'[_{_\'_n_o_d_e_T_y_p_e_\'_:_ _\'_T_o_k_e_n_\'_,_ _\'_p_o_s_\'_:_ _\'_P_D_T_\'_}_,_ _\'_?_\'_,_ _{_\'_t_e_x_t_\'_:_ _[_\'_"_\'_,_ _\'_`_`_\'_,_ _"_\'_\'_"_]_}_,_ _\'_?_\'_,_ _\'_(_\'_,_ _{_\'_n_o_d_e_T_y_p_e_\'_:_ _\'_T_o_k_e_n_\'_,_ _\'_p_o_s_\'_:_ _[_\'_J_J_\'_,_ _\'_J_J_R_\'_,_ _\'_J_J_S_\'_,_ _\'_D_T_\'_,_ _\'_P_D_T_\'_,_ _\'_P_O_S_\'_,_ _\'_C_D_\'_,_ _\'_S_Y_M_\'_]_}_,_ _\'_*_\'_,_ _{_\'_n_o_d_e_T_y_p_e_\'_:_ _\'_N_o_u_n_C_h_u_n_k_\'_}_,_ _{_\'_t_e_x_t_\'_:_ _\'_o_f_\'_}_,_ _\'_)_\'_,_ _\'_*_\'_,_ _{_\'_n_o_d_e_T_y_p_e_\'_:_ _\'_N_o_u_n_C_h_u_n_k_\'_,_ _\'_e_v_e_n_t_S_t_a_t_u_s_\'_:_ _\'_1_\'_}_]'
p19
sS'initialState'
p20
I0
sS'states'
p21
(lp22
I0
aI2
aI4
aI3
aI1
aI5
asS'_arcMetadata'
p23
(dp24
sS'_isSorted'
p25
I1
sS'transitions'
p26
(lp27
(I0
I1
S"{'nodeType': 'NounChunk'}"
p28
tp29
a(I0
I2
S"{'nodeType': 'NounChunk', 'eventStatus': '1'}"
p30
tp31
a(I0
I3
S"{'nodeType': 'Token', 'pos': 'PDT'}"
tp32
a(I0
I4
S'{\'text\': [\'"\', \'``\', "\'\'"]}'
p33
tp34
a(I0
I5
S"{'nodeType': 'Token', 'pos': ['JJ', 'JJR', 'JJS', 'DT', 'PDT', 'POS', 'CD', 'SYM']}"
p35
tp36
a(I1
I4
S"{'text': 'of'}"
tp37
a(I3
I1
g28
tp38
a(I3
I2
g30
tp39
a(I3
I4
g33
tp40
a(I3
I5
g35
tp41
a(I4
I1
g28
tp42
a(I4
I2
g30
tp43
a(I4
I5
g35
tp44
a(I5
I1
g28
tp45
a(I5
I5
g35
tp46
asS'_isDeterminized'
p47
I1
sS'_isMinimized'
p48
I1
sbag7
(g8
g9
NtRp49
(dp50
g12
S'NP_event2'
p51
sg14
(lp52
I2
asg16
I1
sg17
Nsg18
S'[_{_\'_n_o_d_e_T_y_p_e_\'_:_ _\'_T_o_k_e_n_\'_,_ _\'_p_o_s_\'_:_ _\'_P_D_T_\'_}_,_ _\'_?_\'_,_ _{_\'_t_e_x_t_\'_:_ _[_\'_"_\'_,_ _\'_`_`_\'_,_ _"_\'_\'_"_]_}_,_ _\'_?_\'_,_ _{_\'_n_o_d_e_T_y_p_e_\'_:_ _\'_T_o_k_e_n_\'_,_ _\'_p_o_s_\'_:_ _\'_D_T_\'_}_,_ _\'_?_\'_,_ _{_\'_t_e_x_t_\'_:_ _[_\'_"_\'_,_ _\'_`_`_\'_,_ _"_\'_\'_"_]_}_,_ _\'_?_\'_,_ _\'_(_\'_,_ _{_\'_n_o_d_e_T_y_p_e_\'_:_ _\'_T_o_k_e_n_\'_,_ _\'_p_o_s_\'_:_ _[_\'_J_J_\'_,_ _\'_J_J_R_\'_,_ _\'_J_J_S_\'_]_}_,_ _\'_|_\'_,_ _{_\'_n_o_d_e_T_y_p_e_\'_:_ _\'_V_e_r_b_C_h_u_n_k_\'_,_ _\'_p_o_s_\'_:_ _[_\'_V_G_B_\'_,_ _\'_V_B_N_\'_]_}_,_ _\'_|_\'_,_ _{_\'_p_o_s_\'_:_ _\'_S_Y_M_\'_}_,_ _\'_)_\'_,_ _\'_*_\'_,_ _{_\'_t_e_x_t_\'_:_ _[_\'_"_\'_,_ _\'_`_`_\'_,_ _"_\'_\'_"_]_}_,_ _\'_?_\'_,_ _{_\'_n_o_d_e_T_y_p_e_\'_:_ _\'_T_o_k_e_n_\'_,_ _\'_p_o_s_\'_:_ _\'_C_D_\'_}_,_ _\'_*_\'_,_ _{_\'_t_e_x_t_\'_:_ _[_\'_"_\'_,_ _\'_`_`_\'_,_ _"_\'_\'_"_]_}_,_ _\'_?_\'_,_ _{_\'_n_o_d_e_T_y_p_e_\'_:_ _\'_N_o_u_n_C_h_u_n_k_\'_,_ _\'_e_v_e_n_t_S_t_a_t_u_s_\'_:_ _\'_1_\'_}_]'
p53
sg20
I0
sg21
(lp54
I0
aI5
aI2
aI6
aI3
aI1
aI4
aI7
asg23
(dp55
sg25
I1
sg26
(lp56
(I0
I1
S"{'nodeType': 'Token', 'pos': ['JJ', 'JJR', 'JJS']}"
tp57
a(I0
I1
S"{'nodeType': 'VerbChunk', 'pos': ['VGB', 'VBN']}"
tp58
a(I0
I1
S"{'pos': 'SYM'}"
tp59
a(I0
I2
S"{'nodeType': 'NounChunk', 'eventStatus': '1'}"
p60
tp61
a(I0
I3
S"{'nodeType': 'Token', 'pos': 'PDT'}"
tp62
a(I0
I4
S'{\'text\': [\'"\', \'``\', "\'\'"]}'
p63
tp64
a(I0
I5
S"{'nodeType': 'Token', 'pos': 'CD'}"
p65
tp66
a(I0
I6
S"{'nodeType': 'Token', 'pos': 'DT'}"
p67
tp68
a(I1
I1
S"{'nodeType': 'Token', 'pos': ['JJ', 'JJR', 'JJS']}"
tp69
a(I1
I1
S"{'nodeType': 'VerbChunk', 'pos': ['VGB', 'VBN']}"
tp70
a(I1
I1
S"{'pos': 'SYM'}"
tp71
a(I1
I2
g60
tp72
a(I1
I5
S"{'nodeType': 'Token', 'pos': 'CD'}"
tp73
a(I1
I5
S'{\'text\': [\'"\', \'``\', "\'\'"]}'
tp74
a(I3
I1
S"{'nodeType': 'Token', 'pos': ['JJ', 'JJR', 'JJS']}"
tp75
a(I3
I1
S"{'nodeType': 'VerbChunk', 'pos': ['VGB', 'VBN']}"
tp76
a(I3
I1
S"{'pos': 'SYM'}"
tp77
a(I3
I2
g60
tp78
a(I3
I4
g63
tp79
a(I3
I5
g65
tp80
a(I3
I6
g67
tp81
a(I4
I1
S"{'nodeType': 'Token', 'pos': ['JJ', 'JJR', 'JJS']}"
tp82
a(I4
I1
S"{'nodeType': 'VerbChunk', 'pos': ['VGB', 'VBN']}"
tp83
a(I4
I1
S"{'pos': 'SYM'}"
tp84
a(I4
I1
S'{\'text\': [\'"\', \'``\', "\'\'"]}'
tp85
a(I4
I2
g60
tp86
a(I4
I5
g65
tp87
a(I4
I6
g67
tp88
a(I5
I2
g60
tp89
a(I5
I7
S'{\'text\': [\'"\', \'``\', "\'\'"]}'
tp90
a(I5
I5
g65
tp91
a(I6
I1
S"{'nodeType': 'Token', 'pos': ['JJ', 'JJR', 'JJS']}"
tp92
a(I6
I1
S"{'nodeType': 'VerbChunk', 'pos': ['VGB', 'VBN']}"
tp93
a(I6
I1
S"{'pos': 'SYM'}"
tp94
a(I6
I1
S'{\'text\': [\'"\', \'``\', "\'\'"]}'
tp95
a(I6
I2
g60
tp96
a(I6
I5
g65
tp97
a(I7
I2
g60
tp98
asg47
I1
sg48
I1
sbaa(lp99
S'INITIATES'
p100
atp101
ssS'keeps'
p102
(dp103
g4
((lp104
(lp105
g7
(g8
g9
NtRp106
(dp107
g12
S'IngClause'
p108
sg14
(lp109
I2
asg16
I1
sg17
Nsg18
S"[_{_'_n_o_d_e_T_y_p_e_'_:_ _'_T_o_k_e_n_'_,_ _'_p_o_s_'_:_ _'_P_D_T_'_}_,_ _'_?_'_,_ _{_'_n_o_d_e_T_y_p_e_'_:_ _'_N_o_u_n_C_h_u_n_k_'_}_,_ _'_?_'_,_ _{_'_n_o_d_e_T_y_p_e_'_:_ _'_V_e_r_b_C_h_u_n_k_'_,_ _'_e_v_e_n_t_S_t_a_t_u_s_'_:_ _'_1_'_,_ _'_p_o_s_'_:_ _'_V_B_G_'_}_]"
p110
sg20
I0
sg21
(lp111
I2
aI0
aI3
aI1
asg23
(dp112
sg25
I1
sg26
(lp113
(I0
I1
S"{'nodeType': 'NounChunk'}"
p114
tp115
a(I0
I2
S"{'nodeType': 'VerbChunk', 'eventStatus': '1', 'pos': 'VBG'}"
p116
tp117
a(I0
I3
S"{'nodeType': 'Token', 'pos': 'PDT'}"
tp118
a(I1
I2
g116
tp119
a(I3
I1
g114
tp120
a(I3
I2
g116
tp121
asg47
I1
sg48
I1
sbag7
(g8
g9
NtRp122
(dp123
g12
S'objectCompl_pastPart'
p124
sg14
(lp125
I3
asg16
I1
sg17
Nsg18
S"[_'_(_'_,_ _{_'_n_o_d_e_T_y_p_e_'_:_ _'_T_o_k_e_n_'_,_ _'_p_o_s_'_:_ _'_P_D_T_'_}_,_ _'_|_'_,_ _{_'_n_o_d_e_T_y_p_e_'_:_ _'_T_o_k_e_n_'_,_ _'_p_o_s_'_:_ _'_D_T_'_}_,_ _{_'_n_o_d_e_T_y_p_e_'_:_ _'_T_o_k_e_n_'_,_ _'_p_o_s_'_:_ _'_I_N_'_}_,_ _'_)_'_,_ _'_?_'_,_ _'_(_'_,_ _{_'_n_o_d_e_T_y_p_e_'_:_ _'_N_o_u_n_C_h_u_n_k_'_}_,_ _'_(_'_,_ _{_'_n_o_d_e_T_y_p_e_'_:_ _'_T_o_k_e_n_'_,_ _'_p_o_s_'_:_ _'_I_N_'_}_,_ _'_|_'_,_ _{_'_t_e_x_t_'_:_ _[_'_a_n_d_'_,_ _'_o_r_'_]_,_ _'_n_o_d_e_T_y_p_e_'_:_ _'_T_o_k_e_n_'_,_ _'_p_o_s_'_:_ _'_C_C_'_}_,_ _'_)_'_,_ _{_'_n_o_d_e_T_y_p_e_'_:_ _'_N_o_u_n_C_h_u_n_k_'_}_,_ _'_(_'_,_ _{_'_n_o_d_e_T_y_p_e_'_:_ _'_T_o_k_e_n_'_,_ _'_p_o_s_'_:_ _'_I_N_'_}_,_ _{_'_n_o_d_e_T_y_p_e_'_:_ _'_N_o_u_n_C_h_u_n_k_'_}_,_ _'_)_'_,_ _'_?_'_,_ _'_|_'_,_ _'_(_'_,_ _{_'_n_o_d_e_T_y_p_e_'_:_ _'_T_o_k_e_n_'_,_ _'_p_o_s_'_:_ _[_'_P_P_'_,_ _'_P_P_$_'_,_ _'_P_R_P_$_'_,_ _'_P_R_P_'_]_}_,_ _'_|_'_,_ _{_'_n_o_d_e_T_y_p_e_'_:_ _'_N_o_u_n_C_h_u_n_k_'_}_,_ _'_)_'_,_ _'_|_'_,_ _{_'_t_e_x_t_'_:_ _[_'_t_h_i_s_'_,_ _'_t_h_a_t_'_,_ _'_t_h_e_s_e_'_,_ _'_t_h_o_s_e_'_]_,_ _'_n_o_d_e_T_y_p_e_'_:_ _'_T_o_k_e_n_'_}_,_ _'_|_'_,_ _{_'_n_o_d_e_T_y_p_e_'_:_ _'_T_o_k_e_n_'_,_ _'_p_o_s_'_:_ _'_D_T_'_}_,_ _'_(_'_,_ _{_'_n_o_d_e_T_y_p_e_'_:_ _'_T_o_k_e_n_'_,_ _'_p_o_s_'_:_ _[_'_J_J_'_,_ _'_J_J_R_'_,_ _'_J_J_S_'_]_}_,_ _'_|_'_,_ _{_'_p_o_s_'_:_ _'_S_Y_M_'_}_,_ _'_)_'_,_ _'_*_'_,_ _{_'_n_o_d_e_T_y_p_e_'_:_ _'_T_o_k_e_n_'_,_ _'_p_o_s_'_:_ _'_C_D_'_}_,_ _'_*_'_,_ _'_(_'_,_ _{_'_n_o_d_e_T_y_p_e_'_:_ _'_N_o_u_n_C_h_u_n_k_'_}_,_ _'_|_'_,_ _{_'_n_o_d_e_T_y_p_e_'_:_ _'_N_o_u_n_C_h_u_n_k_'_}_,_ _'_(_'_,_ _{_'_n_o_d_e_T_y_p_e_'_:_ _'_T_o_k_e_n_'_,_ _'_p_o_s_'_:_ _'_I_N_'_}_,_ _'_|_'_,_ _{_'_t_e_x_t_'_:_ _[_'_a_n_d_'_,_ _'_o_r_'_]_,_ _'_n_o_d_e_T_y_p_e_'_:_ _'_T_o_k_e_n_'_,_ _'_p_o_s_'_:_ _'_C_C_'_}_,_ _'_)_'_,_ _{_'_n_o_d_e_T_y_p_e_'_:_ _'_N_o_u_n_C_h_u_n_k_'_}_,_ _'_)_'_,_ _'_)_'_,_ _'_?_'_,_ _{_'_n_o_d_e_T_y_p_e_'_:_ _'_V_e_r_b_C_h_u_n_k_'_,_ _'_e_v_e_n_t_S_t_a_t_u_s_'_:_ _'_1_'_,_ _'_p_o_s_'_:_ _'_V_B_N_'_}_]"
p126
sg20
I0
sg21
(lp127
I2
aI0
aI8
aI10
aI6
aI4
aI1
aI11
aI5
aI7
aI3
aI9
asg23
(dp128
sg25
I1
sg26
(lp129
(I0
I1
S"{'nodeType': 'NounChunk'}"
p130
tp131
a(I0
I2
S"{'nodeType': 'Token', 'pos': ['PP', 'PP$', 'PRP$', 'PRP']}"
tp132
a(I0
I2
S"{'text': ['this', 'that', 'these', 'those'], 'nodeType': 'Token'}"
tp133
a(I0
I3
S"{'nodeType': 'VerbChunk', 'eventStatus': '1', 'pos': 'VBN'}"
p134
tp135
a(I0
I4
S"{'nodeType': 'Token', 'pos': 'PDT'}"
tp136
a(I0
I5
S"{'nodeType': 'Token', 'pos': 'DT'}"
tp137
a(I1
I3
g134
tp138
a(I1
I6
S"{'nodeType': 'Token', 'pos': 'IN'}"
tp139
a(I1
I6
S"{'text': ['and', 'or'], 'nodeType': 'Token', 'pos': 'CC'}"
tp140
a(I2
I3
g134
tp141
a(I4
I2
S"{'nodeType': 'Token', 'pos': ['PP', 'PP$', 'PRP$', 'PRP']}"
tp142
a(I4
I2
S"{'text': ['this', 'that', 'these', 'those'], 'nodeType': 'Token'}"
tp143
a(I4
I3
g134
tp144
a(I4
I1
g130
tp145
a(I4
I7
S"{'nodeType': 'Token', 'pos': 'DT'}"
tp146
a(I5
I4
S"{'nodeType': 'Token', 'pos': 'IN'}"
tp147
a(I5
I8
S"{'nodeType': 'NounChunk'}"
p148
tp149
a(I5
I7
S"{'nodeType': 'Token', 'pos': ['JJ', 'JJR', 'JJS']}"
tp150
a(I5
I7
S"{'pos': 'SYM'}"
tp151
a(I5
I9
S"{'nodeType': 'Token', 'pos': 'CD'}"
p152
tp153
a(I6
I10
S"{'nodeType': 'NounChunk'}"
tp154
a(I7
I8
g148
tp155
a(I7
I7
S"{'nodeType': 'Token', 'pos': ['JJ', 'JJR', 'JJS']}"
tp156
a(I7
I7
S"{'pos': 'SYM'}"
tp157
a(I7
I9
g152
tp158
a(I8
I3
g134
tp159
a(I8
I11
S"{'nodeType': 'Token', 'pos': 'IN'}"
tp160
a(I8
I11
S"{'text': ['and', 'or'], 'nodeType': 'Token', 'pos': 'CC'}"
tp161
a(I9
I8
g148
tp162
a(I9
I9
S"{'nodeType': 'Token', 'pos': 'CD'}"
tp163
a(I10
I3
g134
tp164
a(I10
I11
S"{'nodeType': 'Token', 'pos': 'IN'}"
tp165
a(I11
I2
S"{'nodeType': 'NounChunk'}"
tp166
asg47
I1
sg48
I1
sbag7
(g8
g9
NtRp167
(dp168
g12
S'objectCompl_adj'
p169
sg14
(lp170
I4
asg16
I1
sg17
Nsg18
S"[_'_(_'_,_ _{_'_n_o_d_e_T_y_p_e_'_:_ _'_T_o_k_e_n_'_,_ _'_p_o_s_'_:_ _'_P_D_T_'_}_,_ _'_|_'_,_ _{_'_n_o_d_e_T_y_p_e_'_:_ _'_T_o_k_e_n_'_,_ _'_p_o_s_'_:_ _'_D_T_'_}_,_ _{_'_n_o_d_e_T_y_p_e_'_:_ _'_T_o_k_e_n_'_,_ _'_p_o_s_'_:_ _'_I_N_'_}_,_ _'_)_'_,_ _'_?_'_,_ _'_(_'_,_ _{_'_n_o_d_e_T_y_p_e_'_:_ _'_N_o_u_n_C_h_u_n_k_'_}_,_ _'_(_'_,_ _{_'_n_o_d_e_T_y_p_e_'_:_ _'_T_o_k_e_n_'_,_ _'_p_o_s_'_:_ _'_I_N_'_}_,_ _'_|_'_,_ _{_'_t_e_x_t_'_:_ _[_'_a_n_d_'_,_ _'_o_r_'_]_,_ _'_n_o_d_e_T_y_p_e_'_:_ _'_T_o_k_e_n_'_,_ _'_p_o_s_'_:_ _'_C_C_'_}_,_ _'_)_'_,_ _{_'_n_o_d_e_T_y_p_e_'_:_ _'_N_o_u_n_C_h_u_n_k_'_}_,_ _'_(_'_,_ _{_'_n_o_d_e_T_y_p_e_'_:_ _'_T_o_k_e_n_'_,_ _'_p_o_s_'_:_ _'_I_N_'_}_,_ _{_'_n_o_d_e_T_y_p_e_'_:_ _'_N_o_u_n_C_h_u_n_k_'_}_,_ _'_)_'_,_ _'_?_'_,_ _'_|_'_,_ _'_(_'_,_ _{_'_n_o_d_e_T_y_p_e_'_:_ _'_T_o_k_e_n_'_,_ _'_p_o_s_'_:_ _[_'_P_P_'_,_ _'_P_P_$_'_,_ _'_P_R_P_$_'_,_ _'_P_R_P_'_]_}_,_ _'_|_'_,_ _{_'_n_o_d_e_T_y_p_e_'_:_ _'_N_o_u_n_C_h_u_n_k_'_}_,_ _'_)_'_,_ _'_|_'_,_ _{_'_t_e_x_t_'_:_ _[_'_t_h_i_s_'_,_ _'_t_h_a_t_'_,_ _'_t_h_e_s_e_'_,_ _'_t_h_o_s_e_'_]_,_ _'_n_o_d_e_T_y_p_e_'_:_ _'_T_o_k_e_n_'_}_,_ _'_|_'_,_ _{_'_n_o_d_e_T_y_p_e_'_:_ _'_T_o_k_e_n_'_,_ _'_p_o_s_'_:_ _'_D_T_'_}_,_ _'_(_'_,_ _{_'_n_o_d_e_T_y_p_e_'_:_ _'_T_o_k_e_n_'_,_ _'_p_o_s_'_:_ _[_'_J_J_'_,_ _'_J_J_R_'_,_ _'_J_J_S_'_]_}_,_ _'_|_'_,_ _{_'_p_o_s_'_:_ _'_S_Y_M_'_}_,_ _'_)_'_,_ _'_*_'_,_ _{_'_n_o_d_e_T_y_p_e_'_:_ _'_T_o_k_e_n_'_,_ _'_p_o_s_'_:_ _'_C_D_'_}_,_ _'_*_'_,_ _'_(_'_,_ _{_'_n_o_d_e_T_y_p_e_'_:_ _'_N_o_u_n_C_h_u_n_k_'_}_,_ _'_|_'_,_ _{_'_n_o_d_e_T_y_p_e_'_:_ _'_N_o_u_n_C_h_u_n_k_'_}_,_ _'_(_'_,_ _{_'_n_o_d_e_T_y_p_e_'_:_ _'_T_o_k_e_n_'_,_ _'_p_o_s_'_:_ _'_I_N_'_}_,_ _'_|_'_,_ _{_'_t_e_x_t_'_:_ _[_'_a_n_d_'_,_ _'_o_r_'_]_,_ _'_n_o_d_e_T_y_p_e_'_:_ _'_T_o_k_e_n_'_,_ _'_p_o_s_'_:_ _'_C_C_'_}_,_ _'_)_'_,_ _{_'_n_o_d_e_T_y_p_e_'_:_ _'_N_o_u_n_C_h_u_n_k_'_}_,_ _'_)_'_,_ _'_)_'_,_ _'_?_'_,_ _{_'_n_o_d_e_T_y_p_e_'_:_ _'_A_d_j_e_c_t_i_v_e_T_o_k_e_n_'_,_ _'_e_v_e_n_t_S_t_a_t_u_s_'_:_ _'_1_'_}_]"
p171
sg20
I0
sg21
(lp172
I10
aI0
aI8
aI11
aI2
aI7
aI5
aI1
aI4
aI6
aI3
aI9
asg23
(dp173
sg25
I1
sg26
(lp174
(I0
I1
S"{'nodeType': 'NounChunk'}"
p175
tp176
a(I0
I2
S"{'nodeType': 'Token', 'pos': ['PP', 'PP$', 'PRP$', 'PRP']}"
tp177
a(I0
I2
S"{'text': ['this', 'that', 'these', 'those'], 'nodeType': 'Token'}"
tp178
a(I0
I3
S"{'nodeType': 'Token', 'pos': 'PDT'}"
tp179
a(I0
I4
S"{'nodeType': 'AdjectiveToken', 'eventStatus': '1'}"
p180
tp181
a(I0
I5
S"{'nodeType': 'Token', 'pos': 'DT'}"
tp182
a(I1
I6
S"{'nodeType': 'Token', 'pos': 'IN'}"
tp183
a(I1
I6
S"{'text': ['and', 'or'], 'nodeType': 'Token', 'pos': 'CC'}"
tp184
a(I1
I4
g180
tp185
a(I2
I4
g180
tp186
a(I3
I2
S"{'nodeType': 'Token', 'pos': ['PP', 'PP$', 'PRP$', 'PRP']}"
tp187
a(I3
I2
S"{'text': ['this', 'that', 'these', 'those'], 'nodeType': 'Token'}"
tp188
a(I3
I1
g175
tp189
a(I3
I7
S"{'nodeType': 'Token', 'pos': 'DT'}"
tp190
a(I3
I4
g180
tp191
a(I5
I3
S"{'nodeType': 'Token', 'pos': 'IN'}"
tp192
a(I5
I8
S"{'nodeType': 'NounChunk'}"
p193
tp194
a(I5
I7
S"{'nodeType': 'Token', 'pos': ['JJ', 'JJR', 'JJS']}"
tp195
a(I5
I7
S"{'pos': 'SYM'}"
tp196
a(I5
I9
S"{'nodeType': 'Token', 'pos': 'CD'}"
p197
tp198
a(I6
I10
S"{'nodeType': 'NounChunk'}"
tp199
a(I7
I8
g193
tp200
a(I7
I7
S"{'nodeType': 'Token', 'pos': ['JJ', 'JJR', 'JJS']}"
tp201
a(I7
I7
S"{'pos': 'SYM'}"
tp202
a(I7
I9
g197
tp203
a(I8
I11
S"{'nodeType': 'Token', 'pos': 'IN'}"
tp204
a(I8
I11
S"{'text': ['and', 'or'], 'nodeType': 'Token', 'pos': 'CC'}"
tp205
a(I8
I4
g180
tp206
a(I9
I8
g193
tp207
a(I9
I9
S"{'nodeType': 'Token', 'pos': 'CD'}"
tp208
a(I10
I11
S"{'nodeType': 'Token', 'pos': 'IN'}"
tp209
a(I10
I4
g180
tp210
a(I11
I2
S"{'nodeType': 'NounChunk'}"
tp211
asg47
I1
sg48
I1
sbaa(lp212
S'CONTINUES'
p213
atp214
ssS'ends'
p215
(dp216
g4
((lp217
(lp218
g10
ag49
aa(lp219
S'TERMINATES'
p220
atp221
sS'backwards'
p222
((lp223
(lp224
g7
(g8
g9
NtRp225
(dp226
g12
S'NP_eventAsSubj1'
p227
sg14
(lp228
I2
asg16
I1
sg17
Nsg18
S"[_{_'_n_o_d_e_T_y_p_e_'_:_ _'_V_e_r_b_C_h_u_n_k_'_,_ _'_e_v_e_n_t_S_t_a_t_u_s_'_:_ _'_1_'_}_,_ _{_'_n_o_d_e_T_y_p_e_'_:_ _'_T_o_k_e_n_'_,_ _'_p_o_s_'_:_ _[_'_J_J_'_,_ _'_R_B_'_]_}_,_ _'_?_'_,_ _{_'_n_o_d_e_T_y_p_e_'_:_ _'_N_o_u_n_C_h_u_n_k_'_,_ _'_e_v_e_n_t_S_t_a_t_u_s_'_:_ _'_1_'_}_]"
p229
sg20
I0
sg21
(lp230
I2
aI0
aI3
aI1
asg23
(dp231
sg25
I1
sg26
(lp232
(I0
I1
S"{'nodeType': 'VerbChunk', 'eventStatus': '1'}"
tp233
a(I1
I2
S"{'nodeType': 'NounChunk', 'eventStatus': '1'}"
p234
tp235
a(I1
I3
S"{'nodeType': 'Token', 'pos': ['JJ', 'RB']}"
tp236
a(I3
I2
g234
tp237
asg47
I1
sg48
I1
sbag7
(g8
g9
NtRp238
(dp239
g12
S'NP_eventAsSubj2'
p240
sg14
(lp241
I2
asg16
I1
sg17
Nsg18
S"[_{_'_n_o_d_e_T_y_p_e_'_:_ _'_V_e_r_b_C_h_u_n_k_'_,_ _'_e_v_e_n_t_S_t_a_t_u_s_'_:_ _'_1_'_}_,_ _{_'_n_o_d_e_T_y_p_e_'_:_ _'_T_o_k_e_n_'_,_ _'_p_o_s_'_:_ _[_'_J_J_'_,_ _'_R_B_'_]_}_,_ _'_?_'_,_ _{_'_n_o_d_e_T_y_p_e_'_:_ _'_V_e_r_b_C_h_u_n_k_'_,_ _'_e_v_e_n_t_S_t_a_t_u_s_'_:_ _'_1_'_,_ _'_p_o_s_'_:_ _'_V_B_G_'_}_]"
p242
sg20
I0
sg21
(lp243
I2
aI0
aI3
aI1
asg23
(dp244
sg25
I1
sg26
(lp245
(I0
I1
S"{'nodeType': 'VerbChunk', 'eventStatus': '1'}"
tp246
a(I1
I2
S"{'nodeType': 'VerbChunk', 'eventStatus': '1', 'pos': 'VBG'}"
p247
tp248
a(I1
I3
S"{'nodeType': 'Token', 'pos': ['JJ', 'RB']}"
tp249
a(I3
I2
g247
tp250
asg47
I1
sg48
I1
sbag7
(g8
g9
NtRp251
(dp252
g12
S'relClauseRestrictive'
p253
sg14
(lp254
I3
asg16
I1
sg17
Nsg18
S"[_{_'_n_o_d_e_T_y_p_e_'_:_ _'_V_e_r_b_C_h_u_n_k_'_,_ _'_e_v_e_n_t_S_t_a_t_u_s_'_:_ _'_1_'_}_,_ _{_'_n_o_d_e_T_y_p_e_'_:_ _'_T_o_k_e_n_'_,_ _'_p_o_s_'_:_ _[_'_W_P_'_,_ _'_W_D_T_'_,_ _'_W_R_B_'_]_}_,_ _{_'_n_o_d_e_T_y_p_e_'_:_ _'_N_o_u_n_C_h_u_n_k_'_,_ _'_e_v_e_n_t_S_t_a_t_u_s_'_:_ _'_1_'_}_]"
p255
sg20
I0
sg21
(lp256
I2
aI0
aI3
aI1
asg23
(dp257
sg25
I1
sg26
(lp258
(I0
I1
S"{'nodeType': 'VerbChunk', 'eventStatus': '1'}"
tp259
a(I1
I2
S"{'nodeType': 'Token', 'pos': ['WP', 'WDT', 'WRB']}"
tp260
a(I2
I3
S"{'nodeType': 'NounChunk', 'eventStatus': '1'}"
tp261
asg47
I1
sg48
I1
sbag7
(g8
g9
NtRp262
(dp263
g12
S'relClauseRestrictivePerfective'
p264
sg14
(lp265
I3
asg16
I1
sg17
Nsg18
S"[_{_'_e_v_e_n_t_S_t_a_t_u_s_'_:_ _'_1_'_,_ _'_a_s_p_e_c_t_'_:_ _'_P_E_R_F_E_C_T_I_V_E_'_}_,_ _{_'_n_o_d_e_T_y_p_e_'_:_ _'_T_o_k_e_n_'_,_ _'_p_o_s_'_:_ _[_'_W_P_'_,_ _'_W_D_T_'_,_ _'_W_R_B_'_]_}_,_ _{_'_n_o_d_e_T_y_p_e_'_:_ _'_N_o_u_n_C_h_u_n_k_'_,_ _'_e_v_e_n_t_S_t_a_t_u_s_'_:_ _'_1_'_}_]"
p266
sg20
I0
sg21
(lp267
I2
aI0
aI3
aI1
asg23
(dp268
sg25
I1
sg26
(lp269
(I0
I1
S"{'eventStatus': '1', 'aspect': 'PERFECTIVE'}"
tp270
a(I1
I2
S"{'nodeType': 'Token', 'pos': ['WP', 'WDT', 'WRB']}"
tp271
a(I2
I3
S"{'nodeType': 'NounChunk', 'eventStatus': '1'}"
tp272
asg47
I1
sg48
I1
sbaa(lp273
g220
atp274
ssS'ending'
p275
(dp276
g4
((lp277
(lp278
g10
ag49
aa(lp279
g220
atp280
sg222
((lp281
(lp282
g225
ag238
ag251
ag262
aa(lp283
g220
atp284
ssS'ended'
p285
(dp286
g4
((lp287
(lp288
g10
ag49
aa(lp289
g220
atp290
sg222
((lp291
(lp292
g225
ag238
ag251
ag262
ag7
(g8
g9
NtRp293
(dp294
g12
S'passive1'
p295
sg14
(lp296
I2
asg16
I1
sg17
Nsg18
S"[_{_'_n_o_d_e_T_y_p_e_'_:_ _'_V_e_r_b_C_h_u_n_k_'_,_ _'_e_v_e_n_t_S_t_a_t_u_s_'_:_ _'_1_'_,_ _'_p_o_s_'_:_ _'_V_B_N_'_}_,_ _{_'_n_o_d_e_T_y_p_e_'_:_ _'_N_o_u_n_C_h_u_n_k_'_,_ _'_e_v_e_n_t_S_t_a_t_u_s_'_:_ _'_1_'_}_]"
p297
sg20
I0
sg21
(lp298
I2
aI0
aI1
asg23
(dp299
sg25
I1
sg26
(lp300
(I0
I1
S"{'nodeType': 'VerbChunk', 'eventStatus': '1', 'pos': 'VBN'}"
tp301
a(I1
I2
S"{'nodeType': 'NounChunk', 'eventStatus': '1'}"
tp302
asg47
I1
sg48
I1
sbaa(lp303
g220
atp304
ssS'begun'
p305
(dp306
g4
((lp307
(lp308
g106
ag7
(g8
g9
NtRp309
(dp310
g12
S'toClause1'
p311
sg14
(lp312
I1
asg16
I1
sg17
Nsg18
S"[_{_'_p_o_s_'_:_ _[_'_R_B_'_,_ _'_R_B_R_'_,_ _'_R_B_S_'_,_ _'_R_P_'_,_ _'_J_J_R_'_]_}_,_ _'_?_'_,_ _'_(_'_,_ _{_'_t_e_n_s_e_'_:_ _'_I_N_F_I_N_I_T_I_V_E_'_,_ _'_n_o_d_e_T_y_p_e_'_:_ _'_V_e_r_b_C_h_u_n_k_'_}_,_ _'_|_'_,_ _{_'_t_e_x_t_'_:_ _'_t_o_'_,_ _'_p_o_s_'_:_ _'_T_O_'_}_,_ _{_'_p_o_s_'_:_ _'_U_H_'_}_,_ _'_?_'_,_ _'_(_'_,_ _{_'_n_o_d_e_T_y_p_e_'_:_ _'_V_e_r_b_C_h_u_n_k_'_,_ _'_e_v_e_n_t_S_t_a_t_u_s_'_:_ _'_1_'_}_,_ _'_|_'_,_ _{_'_n_o_d_e_T_y_p_e_'_:_ _'_N_o_u_n_C_h_u_n_k_'_,_ _'_e_v_e_n_t_S_t_a_t_u_s_'_:_ _'_1_'_}_,_ _'_)_'_,_ _'_)_'_]"
p313
sg20
I0
sg21
(lp314
I2
aI1
aI0
aI4
aI3
asg23
(dp315
sg25
I1
sg26
(lp316
(I0
I1
S"{'tense': 'INFINITIVE', 'nodeType': 'VerbChunk'}"
p317
tp318
a(I0
I2
S"{'pos': ['RB', 'RBR', 'RBS', 'RP', 'JJR']}"
tp319
a(I0
I3
S"{'text': 'to', 'pos': 'TO'}"
p320
tp321
a(I2
I1
g317
tp322
a(I2
I3
g320
tp323
a(I3
I1
S"{'nodeType': 'NounChunk', 'eventStatus': '1'}"
tp324
a(I3
I1
S"{'nodeType': 'VerbChunk', 'eventStatus': '1'}"
tp325
a(I3
I4
S"{'pos': 'UH'}"
tp326
a(I4
I1
S"{'nodeType': 'NounChunk', 'eventStatus': '1'}"
tp327
a(I4
I1
S"{'nodeType': 'VerbChunk', 'eventStatus': '1'}"
tp328
asg47
I1
sg48
I1
sbag7
(g8
g9
NtRp329
(dp330
g12
S'toClause5'
p331
sg14
(lp332
I4
asg16
I1
sg17
Nsg18
S"[_{_'_n_o_d_e_T_y_p_e_'_:_ _'_T_o_k_e_n_'_,_ _'_p_o_s_'_:_ _'_I_N_'_}_,_ _{_'_n_o_d_e_T_y_p_e_'_:_ _'_T_o_k_e_n_'_,_ _'_p_o_s_'_:_ _'_P_D_T_'_}_,_ _'_?_'_,_ _{_'_n_o_d_e_T_y_p_e_'_:_ _'_N_o_u_n_C_h_u_n_k_'_}_,_ _{_'_n_o_d_e_T_y_p_e_'_:_ _'_T_o_k_e_n_'_,_ _'_p_o_s_'_:_ _'_I_N_'_}_,_ _'_?_'_,_ _{_'_n_o_d_e_T_y_p_e_'_:_ _'_T_o_k_e_n_'_,_ _'_p_o_s_'_:_ _'_P_D_T_'_}_,_ _'_?_'_,_ _{_'_n_o_d_e_T_y_p_e_'_:_ _'_N_o_u_n_C_h_u_n_k_'_}_,_ _'_?_'_,_ _'_(_'_,_ _{_'_t_e_n_s_e_'_:_ _'_I_N_F_I_N_I_T_I_V_E_'_,_ _'_n_o_d_e_T_y_p_e_'_:_ _'_V_e_r_b_C_h_u_n_k_'_}_,_ _'_|_'_,_ _{_'_t_e_x_t_'_:_ _'_t_o_'_,_ _'_p_o_s_'_:_ _'_T_O_'_}_,_ _{_'_p_o_s_'_:_ _'_U_H_'_}_,_ _'_?_'_,_ _'_(_'_,_ _{_'_n_o_d_e_T_y_p_e_'_:_ _'_V_e_r_b_C_h_u_n_k_'_,_ _'_e_v_e_n_t_S_t_a_t_u_s_'_:_ _'_1_'_}_,_ _'_|_'_,_ _{_'_n_o_d_e_T_y_p_e_'_:_ _'_N_o_u_n_C_h_u_n_k_'_,_ _'_e_v_e_n_t_S_t_a_t_u_s_'_:_ _'_1_'_}_,_ _'_)_'_,_ _'_)_'_]"
p333
sg20
I0
sg21
(lp334
I4
aI0
aI1
aI2
aI3
aI8
aI9
aI5
aI6
aI7
asg23
(dp335
sg25
I1
sg26
(lp336
(I0
I1
S"{'nodeType': 'Token', 'pos': 'IN'}"
tp337
a(I1
I2
S"{'nodeType': 'NounChunk'}"
p338
tp339
a(I1
I3
S"{'nodeType': 'Token', 'pos': 'PDT'}"
tp340
a(I2
I4
S"{'tense': 'INFINITIVE', 'nodeType': 'VerbChunk'}"
p341
tp342
a(I2
I5
S"{'nodeType': 'Token', 'pos': 'IN'}"
tp343
a(I2
I6
S"{'nodeType': 'Token', 'pos': 'PDT'}"
p344
tp345
a(I2
I7
S"{'nodeType': 'NounChunk'}"
p346
tp347
a(I2
I8
S"{'text': 'to', 'pos': 'TO'}"
p348
tp349
a(I3
I2
g338
tp350
a(I5
I7
g346
tp351
a(I5
I4
g341
tp352
a(I5
I6
g344
tp353
a(I5
I8
g348
tp354
a(I6
I7
g346
tp355
a(I6
I4
g341
tp356
a(I6
I8
g348
tp357
a(I7
I4
g341
tp358
a(I7
I8
g348
tp359
a(I8
I4
S"{'nodeType': 'NounChunk', 'eventStatus': '1'}"
tp360
a(I8
I4
S"{'nodeType': 'VerbChunk', 'eventStatus': '1'}"
tp361
a(I8
I9
S"{'pos': 'UH'}"
tp362
a(I9
I4
S"{'nodeType': 'NounChunk', 'eventStatus': '1'}"
tp363
a(I9
I4
S"{'nodeType': 'VerbChunk', 'eventStatus': '1'}"
tp364
asg47
I1
sg48
I1
sbaa(lp365
g10
ag49
aa(lp366
g100
ag100
atp367
sg222
((lp368
(lp369
g225
ag238
ag251
ag262
ag293
aa(lp370
g100
atp371
ssS'stoping'
p372
(dp373
g4
((lp374
(lp375
g10
ag49
ag106
aa(lp376
g220
atp377
ssS'close'
p378
(dp379
g4
((lp380
(lp381
g10
ag49
aa(lp382
g220
atp383
ssS'open'
p384
(dp385
g4
((lp386
(lp387
g10
ag49
aa(lp388
g100
atp389
sg222
((lp390
(lp391
g225
ag238
aa(lp392
g100
atp393
ssS'finishes'
p394
(dp395
g4
((lp396
(lp397
g10
ag49
ag106
aa(lp398
S'CULMINATES'
p399
atp400
sg222
((lp401
(lp402
g225
ag238
aa(lp403
g399
atp404
ssS'closes'
p405
(dp406
g4
((lp407
(lp408
g10
ag49
aa(lp409
g220
atp410
ssS'enters'
p411
(dp412
g4
((lp413
(lp414
g10
ag49
aa(lp415
g100
atp416
ssS'end'
p417
(dp418
g4
((lp419
(lp420
g10
ag49
aa(lp421
g220
atp422
sg222
((lp423
(lp424
g225
ag238
ag251
ag262
aa(lp425
g220
atp426
ssS'opened'
p427
(dp428
g4
((lp429
(lp430
g10
ag49
aa(lp431
g100
atp432
sg222
((lp433
(lp434
g225
ag238
aa(lp435
g100
atp436
ssS'remains'
p437
(dp438
g4
((lp439
(lp440
g106
ag122
ag167
aa(lp441
g213
atp442
sg222
((lp443
(lp444
g238
ag238
aa(lp445
g213
atp446
ssS'continued'
p447
(dp448
g4
((lp449
(lp450
g106
ag309
ag329
ag7
(g8
g9
NtRp451
(dp452
g12
S'toClause7'
p453
sg14
(lp454
I2
asg16
I1
sg17
Nsg18
S"[_{_'_n_o_d_e_T_y_p_e_'_:_ _'_V_e_r_b_C_h_u_n_k_'_,_ _'_e_v_e_n_t_S_t_a_t_u_s_'_:_ _(_'_^_'_,_ _'_1_'_)_}_,_ _'_(_'_,_ _{_'_n_o_d_e_T_y_p_e_'_:_ _'_A_d_j_e_c_t_i_v_e_T_o_k_e_n_'_,_ _'_e_v_e_n_t_S_t_a_t_u_s_'_:_ _'_1_'_}_,_ _'_|_'_,_ _{_'_n_o_d_e_T_y_p_e_'_:_ _'_N_o_u_n_C_h_u_n_k_'_,_ _'_e_v_e_n_t_S_t_a_t_u_s_'_:_ _'_1_'_}_,_ _'_)_'_]"
p455
sg20
I0
sg21
(lp456
I0
aI2
aI1
asg23
(dp457
sg25
I1
sg26
(lp458
(I0
I1
S"{'nodeType': 'VerbChunk', 'eventStatus': ('^', '1')}"
tp459
a(I1
I2
S"{'nodeType': 'AdjectiveToken', 'eventStatus': '1'}"
tp460
a(I1
I2
S"{'nodeType': 'NounChunk', 'eventStatus': '1'}"
tp461
asg47
I1
sg48
I1
sbag10
ag49
ag122
ag167
aa(lp462
g213
atp463
sg222
((lp464
(lp465
g225
ag238
ag251
ag262
aa(lp466
g213
atp467
ssS'began'
p468
(dp469
g4
((lp470
(lp471
g106
ag309
ag329
aa(lp472
g10
ag49
aa(lp473
g100
ag100
atp474
sg222
((lp475
(lp476
g225
ag238
ag251
ag262
aa(lp477
g100
atp478
ssS'breaking'
p479
(dp480
g4
((lp481
(lp482
g10
ag49
aa(lp483
g220
atp484
sg222
((lp485
(lp486
g225
ag238
ag251
ag262
aa(lp487
g220
atp488
ssS'renew'
p489
(dp490
g4
((lp491
(lp492
g10
ag49
ag106
aa(lp493
S'REINITIATES'
p494
atp495
sg222
((lp496
(lp497
g225
ag238
aa(lp498
g494
atp499
ssS'stops'
p500
(dp501
g4
((lp502
(lp503
g10
ag49
ag106
aa(lp504
g220
atp505
sg222
((lp506
(lp507
g225
ag238
ag251
ag262
aa(lp508
g220
atp509
ssS'start'
p510
(dp511
g4
((lp512
(lp513
g10
ag49
ag106
aa(lp514
g100
atp515
sg222
((lp516
(lp517
g225
ag238
ag251
ag262
aa(lp518
g100
atp519
ssS'remained'
p520
(dp521
g4
((lp522
(lp523
g106
ag122
ag167
aa(lp524
g213
atp525
sg222
((lp526
(lp527
g238
ag238
ag251
ag262
ag293
aa(lp528
g213
atp529
ssS'finishing'
p530
(dp531
g4
((lp532
(lp533
g10
ag49
ag106
aa(lp534
g399
atp535
ssS'closed'
p536
(dp537
g4
((lp538
(lp539
g10
ag49
aa(lp540
g220
atp541
ssS'stopped'
p542
(dp543
g4
((lp544
(lp545
g10
ag49
ag106
aa(lp546
g220
atp547
sg222
((lp548
(lp549
g225
ag238
ag251
ag262
ag293
aa(lp550
g220
atp551
ssS'entered'
p552
(dp553
g4
((lp554
(lp555
g10
ag49
aa(lp556
g100
atp557
sg222
((lp558
(lp559
g225
ag238
ag251
ag262
ag293
aa(lp560
g100
atp561
ssS'completed'
p562
(dp563
g4
((lp564
(lp565
g10
ag49
aa(lp566
g399
atp567
sg222
((lp568
(lp569
g225
ag238
ag251
ag262
ag293
aa(lp570
g399
atp571
ssS'launching'
p572
(dp573
g4
((lp574
(lp575
g10
ag49
aa(lp576
g100
atp577
ssS'resumed'
p578
(dp579
g4
((lp580
(lp581
g10
ag49
ag106
aa(lp582
g494
atp583
sg222
((lp584
(lp585
g225
ag238
ag251
ag262
ag293
aa(lp586
g494
atp587
ssS'begin'
p588
(dp589
g4
((lp590
(lp591
g106
ag309
ag329
aa(lp592
g10
ag49
aa(lp593
g100
ag100
atp594
sg222
((lp595
(lp596
g225
ag238
ag251
ag262
aa(lp597
g100
atp598
ssS'finish'
p599
(dp600
g4
((lp601
(lp602
g10
ag49
ag106
aa(lp603
g399
atp604
sg222
((lp605
(lp606
g225
ag238
aa(lp607
g399
atp608
ssS'complete'
p609
(dp610
g4
((lp611
(lp612
g10
ag49
aa(lp613
g399
atp614
sg222
((lp615
(lp616
g251
ag262
aa(lp617
g399
atp618
ssS'opening'
p619
(dp620
g4
((lp621
(lp622
g10
ag49
aa(lp623
g100
atp624
sg222
((lp625
(lp626
g225
ag238
aa(lp627
g100
atp628
ssS'started'
p629
(dp630
g4
((lp631
(lp632
g10
ag49
ag106
aa(lp633
g100
atp634
sg222
((lp635
(lp636
g225
ag238
ag251
ag262
ag293
aa(lp637
g100
atp638
ssS'stop'
p639
(dp640
g4
((lp641
(lp642
g10
ag49
ag106
aa(lp643
g220
atp644
sg222
((lp645
(lp646
g225
ag238
ag251
ag262
aa(lp647
g220
atp648
ssS'breaks'
p649
(dp650
g4
((lp651
(lp652
g10
ag49
aa(lp653
g220
atp654
sg222
((lp655
(lp656
g225
ag238
ag251
ag262
aa(lp657
g220
atp658
ssS'continues'
p659
(dp660
g4
((lp661
(lp662
g106
ag309
ag329
ag451
ag10
ag49
ag122
ag167
aa(lp663
g213
atp664
sg222
((lp665
(lp666
g225
ag238
ag251
ag262
aa(lp667
g213
atp668
ssS'continuing'
p669
(dp670
g4
((lp671
(lp672
g106
ag309
ag329
ag451
ag10
ag49
ag122
ag167
aa(lp673
g213
atp674
sg222
((lp675
(lp676
g225
ag238
ag251
ag262
aa(lp677
g213
atp678
ssS'resumes'
p679
(dp680
g4
((lp681
(lp682
g10
ag49
ag106
aa(lp683
g494
atp684
sg222
((lp685
(lp686
g225
ag238
aa(lp687
g494
atp688
ssS'break'
p689
(dp690
g4
((lp691
(lp692
g10
ag49
aa(lp693
g220
atp694
sg222
((lp695
(lp696
g225
ag238
ag251
ag262
aa(lp697
g220
atp698
ssS'remaining'
p699
(dp700
g4
((lp701
(lp702
g106
ag122
ag167
aa(lp703
g213
atp704
sg222
((lp705
(lp706
g238
ag238
aa(lp707
g213
atp708
ssS'finished'
p709
(dp710
g4
((lp711
(lp712
g10
ag49
ag106
aa(lp713
g399
atp714
sg222
((lp715
(lp716
g225
ag238
ag251
ag262
ag293
aa(lp717
g399
atp718
ssS'renewed'
p719
(dp720
g4
((lp721
(lp722
g10
ag49
ag106
aa(lp723
g494
atp724
sg222
((lp725
(lp726
g225
ag238
ag251
ag262
ag293
aa(lp727
g494
atp728
ssS'broke'
p729
(dp730
g4
((lp731
(lp732
g10
ag49
aa(lp733
g220
atp734
sg222
((lp735
(lp736
g225
ag238
ag251
ag262
aa(lp737
g220
atp738
ssS'beginning'
p739
(dp740
g4
((lp741
(lp742
g106
ag309
ag329
aa(lp743
g10
ag49
aa(lp744
g100
ag100
atp745
sg222
((lp746
(lp747
g225
ag238
ag251
ag262
aa(lp748
g100
atp749
ssS'completes'
p750
(dp751
g4
((lp752
(lp753
g10
ag49
aa(lp754
g399
atp755
sg222
((lp756
(lp757
g251
ag262
aa(lp758
g399
atp759
ssS'begins'
p760
(dp761
g4
((lp762
(lp763
g106
ag309
ag329
aa(lp764
g10
ag49
aa(lp765
g100
ag100
atp766
sg222
((lp767
(lp768
g225
ag238
ag251
ag262
aa(lp769
g100
atp770
ssS'renews'
p771
(dp772
g4
((lp773
(lp774
g10
ag49
ag106
aa(lp775
g494
atp776
sg222
((lp777
(lp778
g225
ag238
aa(lp779
g494
atp780
ssS'keeping'
p781
(dp782
g4
((lp783
(lp784
g106
ag122
ag167
aa(lp785
g213
atp786
ssS'kept'
p787
(dp788
g4
((lp789
(lp790
g106
ag122
ag167
aa(lp791
g213
atp792
sg222
((lp793
(lp794
g238
ag238
ag251
ag262
ag293
aa(lp795
g213
atp796
ssS'launch'
p797
(dp798
g4
((lp799
(lp800
g10
ag49
aa(lp801
g100
atp802
ssS'launches'
p803
(dp804
g4
((lp805
(lp806
g10
ag49
aa(lp807
g100
atp808
ssS'completing'
p809
(dp810
g4
((lp811
(lp812
g10
ag49
aa(lp813
g399
atp814
ssS'starts'
p815
(dp816
g4
((lp817
(lp818
g10
ag49
ag106
aa(lp819
g100
atp820
sg222
((lp821
(lp822
g225
ag238
ag251
ag262
aa(lp823
g100
atp824
ssS'resume'
p825
(dp826
g4
((lp827
(lp828
g10
ag49
ag106
aa(lp829
g494
atp830
sg222
((lp831
(lp832
g225
ag238
aa(lp833
g494
atp834
ssS'keep'
p835
(dp836
g4
((lp837
(lp838
g106
ag122
ag167
aa(lp839
g213
atp840
ssS'renewing'
p841
(dp842
g4
((lp843
(lp844
g10
ag49
ag106
aa(lp845
g494
atp846
ssS'remain'
p847
(dp848
g4
((lp849
(lp850
g106
ag122
ag167
aa(lp851
g213
atp852
sg222
((lp853
(lp854
g238
ag238
aa(lp855
g213
atp856
ssS'continue'
p857
(dp858
g4
((lp859
(lp860
g106
ag309
ag329
ag451
ag10
ag49
ag122
ag167
aa(lp861
g213
atp862
sg222
((lp863
(lp864
g225
ag238
ag251
ag262
aa(lp865
g213
atp866
ssS'resuming'
p867
(dp868
g4
((lp869
(lp870
g10
ag49
ag106
aa(lp871
g494
atp872
ssS'opens'
p873
(dp874
g4
((lp875
(lp876
g10
ag49
aa(lp877
g100
atp878
sg222
((lp879
(lp880
g225
ag238
ag251
ag262
aa(lp881
g100
atp882
ssS'enter'
p883
(dp884
g4
((lp885
(lp886
g10
ag49
aa(lp887
g100
atp888
ssS'closing'
p889
(dp890
g4
((lp891
(lp892
g10
ag49
aa(lp893
g220
atp894
ssS'starting'
p895
(dp896
g4
((lp897
(lp898
g10
ag49
ag106
aa(lp899
g100
atp900
ssS'launched'
p901
(dp902
g4
((lp903
(lp904
g10
ag49
aa(lp905
g100
atp906
ss.