(dp1
S'relevant'
p2
(dp3
S'forward'
p4
((lp5
(lp6
ccopy_reg
_reconstructor
p7
(cutilities.FSA
FSA
p8
c__builtin__
object
p9
NtRp10
(dp11
S'fsaname'
p12
S'thatClause_that'
p13
sS'finalStates'
p14
(lp15
I6
asS'_isTrimmed'
p16
I1
sS'alphabet'
p17
NsS'label'
p18
S'[_\'_(_\'_,_ _{_\'_t_e_x_t_\'_:_ _[_\'_t_h_a_t_\'_,_ _\'_i_f_\'_,_ _\'_w_h_e_t_h_e_r_\'_]_,_ _\'_n_o_d_e_T_y_p_e_\'_:_ _\'_T_o_k_e_n_\'_,_ _\'_p_o_s_\'_:_ _\'_I_N_\'_}_,_ _\'_|_\'_,_ _\'_(_\'_,_ _{_\'_n_o_d_e_T_y_p_e_\'_:_ _\'_N_o_u_n_C_h_u_n_k_\'_}_,_ _\'_|_\'_,_ _{_\'_n_o_d_e_T_y_p_e_\'_:_ _\'_T_o_k_e_n_\'_,_ _\'_p_o_s_\'_:_ _\'_I_N_\'_}_,_ _\'_|_\'_,_ _{_\'_n_o_d_e_T_y_p_e_\'_:_ _\'_T_o_k_e_n_\'_,_ _\'_p_o_s_\'_:_ _[_\'_J_J_\'_,_ _\'_J_J_R_\'_,_ _\'_J_J_S_\'_,_ _\'_D_T_\'_,_ _\'_P_D_T_\'_,_ _\'_P_O_S_\'_,_ _\'_C_D_\'_,_ _\'_S_Y_M_\'_]_}_,_ _\'_|_\'_,_ _{_\'_t_e_x_t_\'_:_ _[_\'_"_\'_,_ _\'_`_`_\'_,_ _"_\'_\'_"_]_}_,_ _\'_)_\'_,_ _\'_+_\'_,_ _{_\'_t_e_x_t_\'_:_ _[_\'_t_h_a_t_\'_,_ _\'_i_f_\'_,_ _\'_w_h_e_t_h_e_r_\'_]_,_ _\'_n_o_d_e_T_y_p_e_\'_:_ _\'_T_o_k_e_n_\'_,_ _\'_p_o_s_\'_:_ _\'_I_N_\'_}_,_ _\'_|_\'_,_ _{_\'_t_e_x_t_\'_:_ _(_\'_^_\'_,_ _[_\'_,_\'_]_)_}_,_ _\'_?_\'_,_ _{_\'_t_e_x_t_\'_:_ _(_\'_^_\'_,_ _[_\'_;_\'_,_ _\'_._\'_,_ _\'_!_\'_,_ _\'_?_\'_,_ _\'_._._._\'_,_ _\'_"_\'_,_ _\'_`_`_\'_]_)_,_ _\'_p_o_s_\'_:_ _(_\'_^_\'_,_ _[_\'_W_P_\'_,_ _\'_W_D_T_\'_,_ _\'_W_R_B_\'_,_ _\'_"_\'_,_ _"_\'_\'_"_,_ _\'_`_`_\'_]_)_}_,_ _\'_?_\'_,_ _{_\'_t_e_x_t_\'_:_ _(_\'_^_\'_,_ _[_\'_;_\'_,_ _\'_._\'_,_ _\'_!_\'_,_ _\'_?_\'_,_ _\'_._._._\'_,_ _\'_"_\'_,_ _\'_`_`_\'_]_)_,_ _\'_p_o_s_\'_:_ _(_\'_^_\'_,_ _[_\'_W_P_\'_,_ _\'_W_D_T_\'_,_ _\'_W_R_B_\'_,_ _\'_"_\'_,_ _"_\'_\'_"_,_ _\'_`_`_\'_]_)_}_,_ _\'_?_\'_,_ _{_\'_t_e_x_t_\'_:_ _[_\'_t_h_a_t_\'_,_ _\'_i_f_\'_,_ _\'_w_h_e_t_h_e_r_\'_]_,_ _\'_n_o_d_e_T_y_p_e_\'_:_ _\'_T_o_k_e_n_\'_,_ _\'_p_o_s_\'_:_ _\'_I_N_\'_}_,_ _\'_|_\'_,_ _{_\'_t_e_x_t_\'_:_ _\'_,_\'_}_,_ _{_\'_t_e_x_t_\'_:_ _[_\'_t_h_a_t_\'_,_ _\'_i_f_\'_,_ _\'_w_h_e_t_h_e_r_\'_]_,_ _\'_n_o_d_e_T_y_p_e_\'_:_ _\'_T_o_k_e_n_\'_,_ _\'_p_o_s_\'_:_ _\'_I_N_\'_}_,_ _\'_)_\'_,_ _{_\'_t_e_x_t_\'_:_ _(_\'_^_\'_,_ _[_\'_;_\'_,_ _\'_._\'_,_ _\'_!_\'_,_ _\'_?_\'_,_ _\'_._._._\'_,_ _\'_"_\'_,_ _\'_`_`_\'_]_)_,_ _\'_p_o_s_\'_:_ _(_\'_^_\'_,_ _[_\'_W_P_\'_,_ _\'_W_D_T_\'_,_ _\'_W_R_B_\'_,_ _\'_"_\'_,_ _"_\'_\'_"_,_ _\'_`_`_\'_]_)_}_,_ _\'_?_\'_,_ _\'_(_\'_,_ _\'_(_\'_,_ _{_\'_n_o_d_e_T_y_p_e_\'_:_ _\'_N_o_u_n_C_h_u_n_k_\'_}_,_ _\'_|_\'_,_ _{_\'_n_o_d_e_T_y_p_e_\'_:_ _\'_T_o_k_e_n_\'_,_ _\'_p_o_s_\'_:_ _\'_I_N_\'_}_,_ _\'_|_\'_,_ _{_\'_n_o_d_e_T_y_p_e_\'_:_ _\'_T_o_k_e_n_\'_,_ _\'_p_o_s_\'_:_ _[_\'_J_J_\'_,_ _\'_J_J_R_\'_,_ _\'_J_J_S_\'_,_ _\'_D_T_\'_,_ _\'_P_D_T_\'_,_ _\'_P_O_S_\'_,_ _\'_C_D_\'_,_ _\'_S_Y_M_\'_]_}_,_ _\'_)_\'_,_ _\'_+_\'_,_ _\'_(_\'_,_ _{_\'_t_e_n_s_e_\'_:_ _[_\'_P_A_S_T_\'_,_ _\'_P_R_E_S_E_N_T_\'_,_ _\'_F_U_T_U_R_E_\'_]_,_ _\'_n_o_d_e_T_y_p_e_\'_:_ _[_\'_C_h_u_n_k_\'_,_ _\'_N_o_u_n_C_h_u_n_k_\'_,_ _\'_V_e_r_b_C_h_u_n_k_\'_,_ _\'_A_d_j_e_c_t_i_v_e_T_o_k_e_n_\'_]_}_,_ _\'_|_\'_,_ _{_\'_n_o_d_e_T_y_p_e_\'_:_ _[_\'_C_h_u_n_k_\'_,_ _\'_N_o_u_n_C_h_u_n_k_\'_,_ _\'_V_e_r_b_C_h_u_n_k_\'_,_ _\'_A_d_j_e_c_t_i_v_e_T_o_k_e_n_\'_]_,_ _\'_m_o_d_a_l_i_t_y_\'_:_ _[_\'_m_a_y_\'_,_ _\'_c_a_n_\'_,_ _\'_m_u_s_t_\'_,_ _\'_m_i_g_h_t_\'_,_ _\'_c_o_u_l_d_\'_,_ _\'_s_h_o_u_l_d_\'_,_ _\'_w_o_u_l_d_\'_,_ _\'_o_u_g_h_t_\'_,_ _\'_h_a_v_e_ _t_o_\'_]_}_,_ _\'_)_\'_,_ _\'_|_\'_,_ _{_\'_t_e_x_t_\'_:_ _(_\'_^_\'_,_ _[_\'_;_\'_,_ _\'_._\'_,_ _\'_!_\'_,_ _\'_?_\'_,_ _\'_._._._\'_,_ _\'_"_\'_,_ _\'_`_`_\'_]_)_,_ _\'_p_o_s_\'_:_ _(_\'_^_\'_,_ _[_\'_W_P_\'_,_ _\'_W_D_T_\'_,_ _\'_W_R_B_\'_,_ _\'_"_\'_,_ _"_\'_\'_"_,_ _\'_`_`_\'_]_)_}_,_ _\'_?_\'_,_ _{_\'_t_e_x_t_\'_:_ _(_\'_^_\'_,_ _[_\'_;_\'_,_ _\'_._\'_,_ _\'_!_\'_,_ _\'_?_\'_,_ _\'_._._._\'_,_ _\'_"_\'_,_ _\'_`_`_\'_]_)_,_ _\'_p_o_s_\'_:_ _(_\'_^_\'_,_ _[_\'_W_P_\'_,_ _\'_W_D_T_\'_,_ _\'_W_R_B_\'_,_ _\'_"_\'_,_ _"_\'_\'_"_,_ _\'_`_`_\'_]_)_}_,_ _\'_?_\'_,_ _{_\'_t_e_x_t_\'_:_ _(_\'_^_\'_,_ _[_\'_;_\'_,_ _\'_._\'_,_ _\'_!_\'_,_ _\'_?_\'_,_ _\'_._._._\'_,_ _\'_"_\'_,_ _\'_`_`_\'_]_)_,_ _\'_p_o_s_\'_:_ _(_\'_^_\'_,_ _[_\'_W_P_\'_,_ _\'_W_D_T_\'_,_ _\'_W_R_B_\'_,_ _\'_"_\'_,_ _"_\'_\'_"_,_ _\'_`_`_\'_]_)_}_,_ _\'_?_\'_,_ _{_\'_t_e_x_t_\'_:_ _(_\'_^_\'_,_ _[_\'_;_\'_,_ _\'_._\'_,_ _\'_!_\'_,_ _\'_?_\'_,_ _\'_._._._\'_,_ _\'_"_\'_,_ _\'_`_`_\'_]_)_,_ _\'_p_o_s_\'_:_ _(_\'_^_\'_,_ _[_\'_W_P_\'_,_ _\'_W_D_T_\'_,_ _\'_W_R_B_\'_,_ _\'_"_\'_,_ _"_\'_\'_"_,_ _\'_`_`_\'_]_)_}_,_ _\'_?_\'_,_ _{_\'_t_e_x_t_\'_:_ _(_\'_^_\'_,_ _[_\'_;_\'_,_ _\'_._\'_,_ _\'_!_\'_,_ _\'_?_\'_,_ _\'_._._._\'_,_ _\'_"_\'_,_ _\'_`_`_\'_]_)_,_ _\'_p_o_s_\'_:_ _(_\'_^_\'_,_ _[_\'_W_P_\'_,_ _\'_W_D_T_\'_,_ _\'_W_R_B_\'_,_ _\'_"_\'_,_ _"_\'_\'_"_,_ _\'_`_`_\'_]_)_}_,_ _\'_?_\'_,_ _\'_(_\'_,_ _{_\'_t_e_n_s_e_\'_:_ _[_\'_P_A_S_T_\'_,_ _\'_P_R_E_S_E_N_T_\'_,_ _\'_F_U_T_U_R_E_\'_]_,_ _\'_n_o_d_e_T_y_p_e_\'_:_ _[_\'_C_h_u_n_k_\'_,_ _\'_N_o_u_n_C_h_u_n_k_\'_,_ _\'_V_e_r_b_C_h_u_n_k_\'_,_ _\'_A_d_j_e_c_t_i_v_e_T_o_k_e_n_\'_]_}_,_ _\'_|_\'_,_ _{_\'_n_o_d_e_T_y_p_e_\'_:_ _[_\'_C_h_u_n_k_\'_,_ _\'_N_o_u_n_C_h_u_n_k_\'_,_ _\'_V_e_r_b_C_h_u_n_k_\'_,_ _\'_A_d_j_e_c_t_i_v_e_T_o_k_e_n_\'_]_,_ _\'_m_o_d_a_l_i_t_y_\'_:_ _[_\'_m_a_y_\'_,_ _\'_c_a_n_\'_,_ _\'_m_u_s_t_\'_,_ _\'_m_i_g_h_t_\'_,_ _\'_c_o_u_l_d_\'_,_ _\'_s_h_o_u_l_d_\'_,_ _\'_w_o_u_l_d_\'_,_ _\'_o_u_g_h_t_\'_,_ _\'_h_a_v_e_ _t_o_\'_]_}_,_ _\'_)_\'_,_ _\'_|_\'_,_ _{_\'_t_e_x_t_\'_:_ _[_\'_i_s_\'_,_ _\'_w_a_s_\'_,_ _\'_w_e_r_e_\'_,_ _\'_a_m_\'_,_ _\'_b_e_\'_,_ _"_\'_s_"_,_ _\'_a_r_e_\'_,_ _"_\'_r_e_"_,_ _"_\'_m_"_,_ _\'_b_e_e_n_\'_,_ _\'_b_e_i_n_g_\'_]_,_ _\'_n_o_d_e_T_y_p_e_\'_:_ _\'_V_e_r_b_C_h_u_n_k_\'_}_,_ _{_\'_n_o_d_e_T_y_p_e_\'_:_ _\'_T_o_k_e_n_\'_,_ _\'_p_o_s_\'_:_ _\'_I_N_\'_}_,_ _\'_?_\'_,_ _{_\'_n_o_d_e_T_y_p_e_\'_:_ _\'_N_o_u_n_C_h_u_n_k_\'_,_ _\'_e_v_e_n_t_S_t_a_t_u_s_\'_:_ _\'_1_\'_}_,_ _\'_)_\'_]'
p19
sS'initialState'
p20
I0
sS'states'
p21
(lp22
I14
aI0
aI2
aI1
aI10
aI12
aI9
aI8
aI6
aI7
aI3
aI4
aI13
aI5
aI15
aI11
asS'_arcMetadata'
p23
(dp24
sS'_isSorted'
p25
I1
sS'transitions'
p26
(lp27
(I0
I1
S'{\'text\': (\'^\', [\';\', \'.\', \'!\', \'?\', \'...\', \'"\', \'``\']), \'pos\': (\'^\', [\'WP\', \'WDT\', \'WRB\', \'"\', "\'\'", \'``\'])}'
p28
tp29
a(I0
I2
S"{'nodeType': 'NounChunk'}"
tp30
a(I0
I2
S"{'nodeType': 'Token', 'pos': 'IN'}"
tp31
a(I0
I2
S"{'nodeType': 'Token', 'pos': ['JJ', 'JJR', 'JJS', 'DT', 'PDT', 'POS', 'CD', 'SYM']}"
tp32
a(I0
I2
S'{\'text\': [\'"\', \'``\', "\'\'"]}'
tp33
a(I0
I3
S"{'text': ('^', [','])}"
tp34
a(I0
I4
S"{'text': ','}"
tp35
a(I0
I5
S"{'text': ['that', 'if', 'whether'], 'nodeType': 'Token', 'pos': 'IN'}"
tp36
a(I1
I5
S"{'text': ['that', 'if', 'whether'], 'nodeType': 'Token', 'pos': 'IN'}"
p37
tp38
a(I1
I4
S'{\'text\': (\'^\', [\';\', \'.\', \'!\', \'?\', \'...\', \'"\', \'``\']), \'pos\': (\'^\', [\'WP\', \'WDT\', \'WRB\', \'"\', "\'\'", \'``\'])}'
tp39
a(I2
I2
S"{'nodeType': 'NounChunk'}"
tp40
a(I2
I2
S"{'nodeType': 'Token', 'pos': 'IN'}"
tp41
a(I2
I2
S"{'nodeType': 'Token', 'pos': ['JJ', 'JJR', 'JJS', 'DT', 'PDT', 'POS', 'CD', 'SYM']}"
tp42
a(I2
I2
S'{\'text\': [\'"\', \'``\', "\'\'"]}'
tp43
a(I2
I5
S"{'text': ['that', 'if', 'whether'], 'nodeType': 'Token', 'pos': 'IN'}"
tp44
a(I3
I5
g37
tp45
a(I3
I1
g28
tp46
a(I4
I5
S"{'text': ['that', 'if', 'whether'], 'nodeType': 'Token', 'pos': 'IN'}"
tp47
a(I5
I6
S"{'nodeType': ['Chunk', 'NounChunk', 'VerbChunk', 'AdjectiveToken'], 'modality': ['may', 'can', 'must', 'might', 'could', 'should', 'would', 'ought', 'have to']}"
tp48
a(I5
I6
S"{'tense': ['PAST', 'PRESENT', 'FUTURE'], 'nodeType': ['Chunk', 'NounChunk', 'VerbChunk', 'AdjectiveToken']}"
tp49
a(I5
I7
S'{\'text\': (\'^\', [\';\', \'.\', \'!\', \'?\', \'...\', \'"\', \'``\']), \'pos\': (\'^\', [\'WP\', \'WDT\', \'WRB\', \'"\', "\'\'", \'``\'])}'
tp50
a(I5
I8
S"{'nodeType': 'NounChunk'}"
tp51
a(I5
I8
S"{'nodeType': 'Token', 'pos': 'IN'}"
tp52
a(I5
I8
S"{'nodeType': 'Token', 'pos': ['JJ', 'JJR', 'JJS', 'DT', 'PDT', 'POS', 'CD', 'SYM']}"
tp53
a(I5
I9
S'{\'text\': [\'is\', \'was\', \'were\', \'am\', \'be\', "\'s", \'are\', "\'re", "\'m", \'been\', \'being\'], \'nodeType\': \'VerbChunk\'}'
p54
tp55
a(I7
I6
S"{'nodeType': ['Chunk', 'NounChunk', 'VerbChunk', 'AdjectiveToken'], 'modality': ['may', 'can', 'must', 'might', 'could', 'should', 'would', 'ought', 'have to']}"
tp56
a(I7
I6
S"{'tense': ['PAST', 'PRESENT', 'FUTURE'], 'nodeType': ['Chunk', 'NounChunk', 'VerbChunk', 'AdjectiveToken']}"
tp57
a(I7
I10
S'{\'text\': (\'^\', [\';\', \'.\', \'!\', \'?\', \'...\', \'"\', \'``\']), \'pos\': (\'^\', [\'WP\', \'WDT\', \'WRB\', \'"\', "\'\'", \'``\'])}'
tp58
a(I7
I8
S"{'nodeType': 'NounChunk'}"
tp59
a(I7
I8
S"{'nodeType': 'Token', 'pos': 'IN'}"
tp60
a(I7
I8
S"{'nodeType': 'Token', 'pos': ['JJ', 'JJR', 'JJS', 'DT', 'PDT', 'POS', 'CD', 'SYM']}"
tp61
a(I7
I9
g54
tp62
a(I8
I6
S"{'nodeType': ['Chunk', 'NounChunk', 'VerbChunk', 'AdjectiveToken'], 'modality': ['may', 'can', 'must', 'might', 'could', 'should', 'would', 'ought', 'have to']}"
tp63
a(I8
I6
S"{'tense': ['PAST', 'PRESENT', 'FUTURE'], 'nodeType': ['Chunk', 'NounChunk', 'VerbChunk', 'AdjectiveToken']}"
tp64
a(I8
I8
S"{'nodeType': 'NounChunk'}"
tp65
a(I8
I8
S"{'nodeType': 'Token', 'pos': 'IN'}"
tp66
a(I8
I8
S"{'nodeType': 'Token', 'pos': ['JJ', 'JJR', 'JJS', 'DT', 'PDT', 'POS', 'CD', 'SYM']}"
tp67
a(I9
I11
S"{'nodeType': 'Token', 'pos': 'IN'}"
tp68
a(I9
I6
S"{'nodeType': 'NounChunk', 'eventStatus': '1'}"
p69
tp70
a(I10
I6
S"{'nodeType': ['Chunk', 'NounChunk', 'VerbChunk', 'AdjectiveToken'], 'modality': ['may', 'can', 'must', 'might', 'could', 'should', 'would', 'ought', 'have to']}"
tp71
a(I10
I6
S"{'tense': ['PAST', 'PRESENT', 'FUTURE'], 'nodeType': ['Chunk', 'NounChunk', 'VerbChunk', 'AdjectiveToken']}"
tp72
a(I10
I12
S'{\'text\': (\'^\', [\';\', \'.\', \'!\', \'?\', \'...\', \'"\', \'``\']), \'pos\': (\'^\', [\'WP\', \'WDT\', \'WRB\', \'"\', "\'\'", \'``\'])}'
tp73
a(I11
I6
g69
tp74
a(I12
I6
S"{'nodeType': ['Chunk', 'NounChunk', 'VerbChunk', 'AdjectiveToken'], 'modality': ['may', 'can', 'must', 'might', 'could', 'should', 'would', 'ought', 'have to']}"
tp75
a(I12
I6
S"{'tense': ['PAST', 'PRESENT', 'FUTURE'], 'nodeType': ['Chunk', 'NounChunk', 'VerbChunk', 'AdjectiveToken']}"
tp76
a(I12
I13
S'{\'text\': (\'^\', [\';\', \'.\', \'!\', \'?\', \'...\', \'"\', \'``\']), \'pos\': (\'^\', [\'WP\', \'WDT\', \'WRB\', \'"\', "\'\'", \'``\'])}'
tp77
a(I13
I6
S"{'nodeType': ['Chunk', 'NounChunk', 'VerbChunk', 'AdjectiveToken'], 'modality': ['may', 'can', 'must', 'might', 'could', 'should', 'would', 'ought', 'have to']}"
tp78
a(I13
I6
S"{'tense': ['PAST', 'PRESENT', 'FUTURE'], 'nodeType': ['Chunk', 'NounChunk', 'VerbChunk', 'AdjectiveToken']}"
tp79
a(I13
I14
S'{\'text\': (\'^\', [\';\', \'.\', \'!\', \'?\', \'...\', \'"\', \'``\']), \'pos\': (\'^\', [\'WP\', \'WDT\', \'WRB\', \'"\', "\'\'", \'``\'])}'
tp80
a(I14
I6
S"{'nodeType': ['Chunk', 'NounChunk', 'VerbChunk', 'AdjectiveToken'], 'modality': ['may', 'can', 'must', 'might', 'could', 'should', 'would', 'ought', 'have to']}"
tp81
a(I14
I6
S"{'tense': ['PAST', 'PRESENT', 'FUTURE'], 'nodeType': ['Chunk', 'NounChunk', 'VerbChunk', 'AdjectiveToken']}"
tp82
a(I14
I15
S'{\'text\': (\'^\', [\';\', \'.\', \'!\', \'?\', \'...\', \'"\', \'``\']), \'pos\': (\'^\', [\'WP\', \'WDT\', \'WRB\', \'"\', "\'\'", \'``\'])}'
tp83
a(I15
I6
S"{'nodeType': ['Chunk', 'NounChunk', 'VerbChunk', 'AdjectiveToken'], 'modality': ['may', 'can', 'must', 'might', 'could', 'should', 'would', 'ought', 'have to']}"
tp84
a(I15
I6
S"{'tense': ['PAST', 'PRESENT', 'FUTURE'], 'nodeType': ['Chunk', 'NounChunk', 'VerbChunk', 'AdjectiveToken']}"
tp85
asS'_isDeterminized'
p86
I1
sS'_isMinimized'
p87
I1
sbaa(lp88
g7
(g8
g9
NtRp89
(dp90
g12
S'toClause1'
p91
sg14
(lp92
I1
asg16
I1
sg17
Nsg18
S"[_{_'_p_o_s_'_:_ _[_'_R_B_'_,_ _'_R_B_R_'_,_ _'_R_B_S_'_,_ _'_R_P_'_,_ _'_J_J_R_'_]_}_,_ _'_?_'_,_ _'_(_'_,_ _{_'_t_e_n_s_e_'_:_ _'_I_N_F_I_N_I_T_I_V_E_'_,_ _'_n_o_d_e_T_y_p_e_'_:_ _'_V_e_r_b_C_h_u_n_k_'_}_,_ _'_|_'_,_ _{_'_t_e_x_t_'_:_ _'_t_o_'_,_ _'_p_o_s_'_:_ _'_T_O_'_}_,_ _{_'_p_o_s_'_:_ _'_U_H_'_}_,_ _'_?_'_,_ _'_(_'_,_ _{_'_n_o_d_e_T_y_p_e_'_:_ _'_V_e_r_b_C_h_u_n_k_'_,_ _'_e_v_e_n_t_S_t_a_t_u_s_'_:_ _'_1_'_}_,_ _'_|_'_,_ _{_'_n_o_d_e_T_y_p_e_'_:_ _'_N_o_u_n_C_h_u_n_k_'_,_ _'_e_v_e_n_t_S_t_a_t_u_s_'_:_ _'_1_'_}_,_ _'_)_'_,_ _'_)_'_]"
p93
sg20
I0
sg21
(lp94
I2
aI1
aI0
aI4
aI3
asg23
(dp95
sg25
I1
sg26
(lp96
(I0
I1
S"{'tense': 'INFINITIVE', 'nodeType': 'VerbChunk'}"
p97
tp98
a(I0
I2
S"{'pos': ['RB', 'RBR', 'RBS', 'RP', 'JJR']}"
tp99
a(I0
I3
S"{'text': 'to', 'pos': 'TO'}"
p100
tp101
a(I2
I1
g97
tp102
a(I2
I3
g100
tp103
a(I3
I1
S"{'nodeType': 'NounChunk', 'eventStatus': '1'}"
tp104
a(I3
I1
S"{'nodeType': 'VerbChunk', 'eventStatus': '1'}"
tp105
a(I3
I4
S"{'pos': 'UH'}"
tp106
a(I4
I1
S"{'nodeType': 'NounChunk', 'eventStatus': '1'}"
tp107
a(I4
I1
S"{'nodeType': 'VerbChunk', 'eventStatus': '1'}"
tp108
asg86
I1
sg87
I1
sbag7
(g8
g9
NtRp109
(dp110
g12
S'toClause3'
p111
sg14
(lp112
I5
asg16
I1
sg17
Nsg18
S"[_'_(_'_,_ _{_'_n_o_d_e_T_y_p_e_'_:_ _'_T_o_k_e_n_'_,_ _'_p_o_s_'_:_ _'_P_D_T_'_}_,_ _'_|_'_,_ _{_'_n_o_d_e_T_y_p_e_'_:_ _'_T_o_k_e_n_'_,_ _'_p_o_s_'_:_ _'_D_T_'_}_,_ _{_'_n_o_d_e_T_y_p_e_'_:_ _'_T_o_k_e_n_'_,_ _'_p_o_s_'_:_ _'_I_N_'_}_,_ _'_)_'_,_ _'_?_'_,_ _'_(_'_,_ _{_'_n_o_d_e_T_y_p_e_'_:_ _'_N_o_u_n_C_h_u_n_k_'_}_,_ _'_(_'_,_ _{_'_n_o_d_e_T_y_p_e_'_:_ _'_T_o_k_e_n_'_,_ _'_p_o_s_'_:_ _'_I_N_'_}_,_ _'_|_'_,_ _{_'_t_e_x_t_'_:_ _[_'_a_n_d_'_,_ _'_o_r_'_]_,_ _'_n_o_d_e_T_y_p_e_'_:_ _'_T_o_k_e_n_'_,_ _'_p_o_s_'_:_ _'_C_C_'_}_,_ _'_)_'_,_ _{_'_n_o_d_e_T_y_p_e_'_:_ _'_N_o_u_n_C_h_u_n_k_'_}_,_ _'_(_'_,_ _{_'_n_o_d_e_T_y_p_e_'_:_ _'_T_o_k_e_n_'_,_ _'_p_o_s_'_:_ _'_I_N_'_}_,_ _{_'_n_o_d_e_T_y_p_e_'_:_ _'_N_o_u_n_C_h_u_n_k_'_}_,_ _'_)_'_,_ _'_?_'_,_ _'_|_'_,_ _'_(_'_,_ _{_'_n_o_d_e_T_y_p_e_'_:_ _'_T_o_k_e_n_'_,_ _'_p_o_s_'_:_ _[_'_P_P_'_,_ _'_P_P_$_'_,_ _'_P_R_P_$_'_,_ _'_P_R_P_'_]_}_,_ _'_|_'_,_ _{_'_n_o_d_e_T_y_p_e_'_:_ _'_N_o_u_n_C_h_u_n_k_'_}_,_ _'_)_'_,_ _'_|_'_,_ _{_'_t_e_x_t_'_:_ _[_'_t_h_i_s_'_,_ _'_t_h_a_t_'_,_ _'_t_h_e_s_e_'_,_ _'_t_h_o_s_e_'_]_,_ _'_n_o_d_e_T_y_p_e_'_:_ _'_T_o_k_e_n_'_}_,_ _'_|_'_,_ _{_'_n_o_d_e_T_y_p_e_'_:_ _'_T_o_k_e_n_'_,_ _'_p_o_s_'_:_ _'_D_T_'_}_,_ _'_(_'_,_ _{_'_n_o_d_e_T_y_p_e_'_:_ _'_T_o_k_e_n_'_,_ _'_p_o_s_'_:_ _[_'_J_J_'_,_ _'_J_J_R_'_,_ _'_J_J_S_'_]_}_,_ _'_|_'_,_ _{_'_p_o_s_'_:_ _'_S_Y_M_'_}_,_ _'_)_'_,_ _'_*_'_,_ _{_'_n_o_d_e_T_y_p_e_'_:_ _'_T_o_k_e_n_'_,_ _'_p_o_s_'_:_ _'_C_D_'_}_,_ _'_*_'_,_ _'_(_'_,_ _{_'_n_o_d_e_T_y_p_e_'_:_ _'_N_o_u_n_C_h_u_n_k_'_}_,_ _'_|_'_,_ _{_'_n_o_d_e_T_y_p_e_'_:_ _'_N_o_u_n_C_h_u_n_k_'_}_,_ _'_(_'_,_ _{_'_n_o_d_e_T_y_p_e_'_:_ _'_T_o_k_e_n_'_,_ _'_p_o_s_'_:_ _'_I_N_'_}_,_ _'_|_'_,_ _{_'_t_e_x_t_'_:_ _[_'_a_n_d_'_,_ _'_o_r_'_]_,_ _'_n_o_d_e_T_y_p_e_'_:_ _'_T_o_k_e_n_'_,_ _'_p_o_s_'_:_ _'_C_C_'_}_,_ _'_)_'_,_ _{_'_n_o_d_e_T_y_p_e_'_:_ _'_N_o_u_n_C_h_u_n_k_'_}_,_ _'_)_'_,_ _'_)_'_,_ _'_(_'_,_ _{_'_t_e_n_s_e_'_:_ _'_I_N_F_I_N_I_T_I_V_E_'_,_ _'_n_o_d_e_T_y_p_e_'_:_ _'_V_e_r_b_C_h_u_n_k_'_}_,_ _'_|_'_,_ _{_'_t_e_x_t_'_:_ _'_t_o_'_,_ _'_p_o_s_'_:_ _'_T_O_'_}_,_ _{_'_p_o_s_'_:_ _'_U_H_'_}_,_ _'_?_'_,_ _'_(_'_,_ _{_'_n_o_d_e_T_y_p_e_'_:_ _'_V_e_r_b_C_h_u_n_k_'_,_ _'_e_v_e_n_t_S_t_a_t_u_s_'_:_ _'_1_'_}_,_ _'_|_'_,_ _{_'_n_o_d_e_T_y_p_e_'_:_ _'_N_o_u_n_C_h_u_n_k_'_,_ _'_e_v_e_n_t_S_t_a_t_u_s_'_:_ _'_1_'_}_,_ _'_)_'_,_ _'_)_'_]"
p113
sg20
I0
sg21
(lp114
I0
aI5
aI2
aI8
aI4
aI6
aI13
aI9
aI1
aI12
aI3
aI11
aI10
aI7
asg23
(dp115
sg25
I1
sg26
(lp116
(I0
I1
S"{'nodeType': 'Token', 'pos': ['PP', 'PP$', 'PRP$', 'PRP']}"
tp117
a(I0
I1
S"{'text': ['this', 'that', 'these', 'those'], 'nodeType': 'Token'}"
tp118
a(I0
I2
S"{'nodeType': 'NounChunk'}"
p119
tp120
a(I0
I3
S"{'nodeType': 'Token', 'pos': 'PDT'}"
tp121
a(I0
I4
S"{'nodeType': 'Token', 'pos': 'DT'}"
tp122
a(I1
I5
S"{'tense': 'INFINITIVE', 'nodeType': 'VerbChunk'}"
p123
tp124
a(I1
I6
S"{'text': 'to', 'pos': 'TO'}"
p125
tp126
a(I2
I7
S"{'nodeType': 'Token', 'pos': 'IN'}"
tp127
a(I2
I7
S"{'text': ['and', 'or'], 'nodeType': 'Token', 'pos': 'CC'}"
tp128
a(I2
I5
g123
tp129
a(I2
I6
g125
tp130
a(I3
I2
g119
tp131
a(I3
I1
S"{'nodeType': 'Token', 'pos': ['PP', 'PP$', 'PRP$', 'PRP']}"
tp132
a(I3
I1
S"{'text': ['this', 'that', 'these', 'those'], 'nodeType': 'Token'}"
tp133
a(I3
I8
S"{'nodeType': 'Token', 'pos': 'DT'}"
tp134
a(I4
I3
S"{'nodeType': 'Token', 'pos': 'IN'}"
tp135
a(I4
I9
S"{'nodeType': 'NounChunk'}"
p136
tp137
a(I4
I8
S"{'nodeType': 'Token', 'pos': ['JJ', 'JJR', 'JJS']}"
tp138
a(I4
I8
S"{'pos': 'SYM'}"
tp139
a(I4
I10
S"{'nodeType': 'Token', 'pos': 'CD'}"
p140
tp141
a(I6
I5
S"{'nodeType': 'NounChunk', 'eventStatus': '1'}"
tp142
a(I6
I5
S"{'nodeType': 'VerbChunk', 'eventStatus': '1'}"
tp143
a(I6
I11
S"{'pos': 'UH'}"
tp144
a(I7
I12
S"{'nodeType': 'NounChunk'}"
tp145
a(I8
I9
g136
tp146
a(I8
I8
S"{'nodeType': 'Token', 'pos': ['JJ', 'JJR', 'JJS']}"
tp147
a(I8
I8
S"{'pos': 'SYM'}"
tp148
a(I8
I10
g140
tp149
a(I9
I13
S"{'nodeType': 'Token', 'pos': 'IN'}"
tp150
a(I9
I13
S"{'text': ['and', 'or'], 'nodeType': 'Token', 'pos': 'CC'}"
tp151
a(I9
I5
g123
tp152
a(I9
I6
g125
tp153
a(I10
I9
g136
tp154
a(I10
I10
S"{'nodeType': 'Token', 'pos': 'CD'}"
tp155
a(I11
I5
S"{'nodeType': 'NounChunk', 'eventStatus': '1'}"
tp156
a(I11
I5
S"{'nodeType': 'VerbChunk', 'eventStatus': '1'}"
tp157
a(I12
I13
S"{'nodeType': 'Token', 'pos': 'IN'}"
tp158
a(I12
I5
g123
tp159
a(I12
I6
g125
tp160
a(I13
I1
S"{'nodeType': 'NounChunk'}"
tp161
asg86
I1
sg87
I1
sbag7
(g8
g9
NtRp162
(dp163
g12
S'toClause5'
p164
sg14
(lp165
I4
asg16
I1
sg17
Nsg18
S"[_{_'_n_o_d_e_T_y_p_e_'_:_ _'_T_o_k_e_n_'_,_ _'_p_o_s_'_:_ _'_I_N_'_}_,_ _{_'_n_o_d_e_T_y_p_e_'_:_ _'_T_o_k_e_n_'_,_ _'_p_o_s_'_:_ _'_P_D_T_'_}_,_ _'_?_'_,_ _{_'_n_o_d_e_T_y_p_e_'_:_ _'_N_o_u_n_C_h_u_n_k_'_}_,_ _{_'_n_o_d_e_T_y_p_e_'_:_ _'_T_o_k_e_n_'_,_ _'_p_o_s_'_:_ _'_I_N_'_}_,_ _'_?_'_,_ _{_'_n_o_d_e_T_y_p_e_'_:_ _'_T_o_k_e_n_'_,_ _'_p_o_s_'_:_ _'_P_D_T_'_}_,_ _'_?_'_,_ _{_'_n_o_d_e_T_y_p_e_'_:_ _'_N_o_u_n_C_h_u_n_k_'_}_,_ _'_?_'_,_ _'_(_'_,_ _{_'_t_e_n_s_e_'_:_ _'_I_N_F_I_N_I_T_I_V_E_'_,_ _'_n_o_d_e_T_y_p_e_'_:_ _'_V_e_r_b_C_h_u_n_k_'_}_,_ _'_|_'_,_ _{_'_t_e_x_t_'_:_ _'_t_o_'_,_ _'_p_o_s_'_:_ _'_T_O_'_}_,_ _{_'_p_o_s_'_:_ _'_U_H_'_}_,_ _'_?_'_,_ _'_(_'_,_ _{_'_n_o_d_e_T_y_p_e_'_:_ _'_V_e_r_b_C_h_u_n_k_'_,_ _'_e_v_e_n_t_S_t_a_t_u_s_'_:_ _'_1_'_}_,_ _'_|_'_,_ _{_'_n_o_d_e_T_y_p_e_'_:_ _'_N_o_u_n_C_h_u_n_k_'_,_ _'_e_v_e_n_t_S_t_a_t_u_s_'_:_ _'_1_'_}_,_ _'_)_'_,_ _'_)_'_]"
p166
sg20
I0
sg21
(lp167
I4
aI0
aI1
aI2
aI3
aI8
aI9
aI5
aI6
aI7
asg23
(dp168
sg25
I1
sg26
(lp169
(I0
I1
S"{'nodeType': 'Token', 'pos': 'IN'}"
tp170
a(I1
I2
S"{'nodeType': 'NounChunk'}"
p171
tp172
a(I1
I3
S"{'nodeType': 'Token', 'pos': 'PDT'}"
tp173
a(I2
I4
S"{'tense': 'INFINITIVE', 'nodeType': 'VerbChunk'}"
p174
tp175
a(I2
I5
S"{'nodeType': 'Token', 'pos': 'IN'}"
tp176
a(I2
I6
S"{'nodeType': 'Token', 'pos': 'PDT'}"
p177
tp178
a(I2
I7
S"{'nodeType': 'NounChunk'}"
p179
tp180
a(I2
I8
S"{'text': 'to', 'pos': 'TO'}"
p181
tp182
a(I3
I2
g171
tp183
a(I5
I7
g179
tp184
a(I5
I4
g174
tp185
a(I5
I6
g177
tp186
a(I5
I8
g181
tp187
a(I6
I7
g179
tp188
a(I6
I4
g174
tp189
a(I6
I8
g181
tp190
a(I7
I4
g174
tp191
a(I7
I8
g181
tp192
a(I8
I4
S"{'nodeType': 'NounChunk', 'eventStatus': '1'}"
tp193
a(I8
I4
S"{'nodeType': 'VerbChunk', 'eventStatus': '1'}"
tp194
a(I8
I9
S"{'pos': 'UH'}"
tp195
a(I9
I4
S"{'nodeType': 'NounChunk', 'eventStatus': '1'}"
tp196
a(I9
I4
S"{'nodeType': 'VerbChunk', 'eventStatus': '1'}"
tp197
asg86
I1
sg87
I1
sbaa(lp198
S'FACTIVE'
p199
aS'MODAL'
p200
atp201
sS'backwards'
p202
((lp203
(lp204
g7
(g8
g9
NtRp205
(dp206
g12
S'NP_eventAsSubj3'
p207
sg14
(lp208
I3
asg16
I1
sg17
Nsg18
S"[_'_(_'_,_ _{_'_n_o_d_e_T_y_p_e_'_:_ _'_A_d_j_e_c_t_i_v_e_T_o_k_e_n_'_,_ _'_e_v_e_n_t_S_t_a_t_u_s_'_:_ _'_1_'_}_,_ _'_|_'_,_ _{_'_n_o_d_e_T_y_p_e_'_:_ _'_V_e_r_b_C_h_u_n_k_'_,_ _'_e_v_e_n_t_S_t_a_t_u_s_'_:_ _'_1_'_,_ _'_p_o_s_'_:_ _[_'_V_B_G_'_,_ _'_V_B_N_'_]_}_,_ _'_)_'_,_ _{_'_n_o_d_e_T_y_p_e_'_:_ _'_V_e_r_b_C_h_u_n_k_'_,_ _'_e_v_e_n_t_S_t_a_t_u_s_'_:_ _(_'_^_'_,_ _'_1_'_)_}_,_ _{_'_n_o_d_e_T_y_p_e_'_:_ _'_T_o_k_e_n_'_,_ _'_p_o_s_'_:_ _[_'_J_J_'_,_ _'_R_B_'_]_}_,_ _'_?_'_,_ _{_'_n_o_d_e_T_y_p_e_'_:_ _'_N_o_u_n_C_h_u_n_k_'_,_ _'_e_v_e_n_t_S_t_a_t_u_s_'_:_ _'_1_'_}_]"
p209
sg20
I0
sg21
(lp210
I1
aI4
aI0
aI2
aI3
asg23
(dp211
sg25
I1
sg26
(lp212
(I0
I1
S"{'nodeType': 'AdjectiveToken', 'eventStatus': '1'}"
tp213
a(I0
I1
S"{'nodeType': 'VerbChunk', 'eventStatus': '1', 'pos': ['VBG', 'VBN']}"
tp214
a(I1
I2
S"{'nodeType': 'VerbChunk', 'eventStatus': ('^', '1')}"
tp215
a(I2
I3
S"{'nodeType': 'NounChunk', 'eventStatus': '1'}"
p216
tp217
a(I2
I4
S"{'nodeType': 'Token', 'pos': ['JJ', 'RB']}"
tp218
a(I4
I3
g216
tp219
asg86
I1
sg87
I1
sbaa(lp220
g199
atp221
ssS'due'
p222
(dp223
g4
((lp224
(lp225
g89
ag109
ag162
aa(lp226
g200
atp227
ssS'well-known'
p228
(dp229
g4
((lp230
(lp231
g10
aa(lp232
g199
atp233
ssS'improbable'
p234
(dp235
g4
((lp236
(lp237
g10
ag7
(g8
g9
NtRp238
(dp239
g12
S'thatClause_NOT_that'
p240
sg14
(lp241
I2
asg16
I1
sg17
Nsg18
S'[_{_\'_t_e_x_t_\'_:_ _(_\'_^_\'_,_ _[_\'_,_\'_]_)_}_,_ _{_\'_t_e_x_t_\'_:_ _(_\'_^_\'_,_ _[_\'_;_\'_,_ _\'_._\'_,_ _\'_!_\'_,_ _\'_?_\'_,_ _\'_._._._\'_,_ _\'_"_\'_]_)_,_ _\'_p_o_s_\'_:_ _(_\'_^_\'_,_ _[_\'_W_P_\'_,_ _\'_W_D_T_\'_,_ _\'_W_R_B_\'_,_ _\'_"_\'_,_ _"_\'_\'_"_]_)_}_,_ _\'_?_\'_,_ _\'_(_\'_,_ _{_\'_t_e_x_t_\'_:_ _(_\'_^_\'_,_ _[_\'_;_\'_,_ _\'_._\'_,_ _\'_!_\'_,_ _\'_?_\'_,_ _\'_._._._\'_,_ _\'_"_\'_,_ _\'_`_`_\'_]_)_,_ _\'_p_o_s_\'_:_ _(_\'_^_\'_,_ _[_\'_W_P_\'_,_ _\'_W_D_T_\'_,_ _\'_W_R_B_\'_,_ _\'_"_\'_,_ _"_\'_\'_"_,_ _\'_`_`_\'_]_)_}_,_ _\'_?_\'_,_ _{_\'_t_e_x_t_\'_:_ _(_\'_^_\'_,_ _[_\'_;_\'_,_ _\'_._\'_,_ _\'_!_\'_,_ _\'_?_\'_,_ _\'_._._._\'_,_ _\'_"_\'_,_ _\'_`_`_\'_]_)_,_ _\'_p_o_s_\'_:_ _(_\'_^_\'_,_ _[_\'_W_P_\'_,_ _\'_W_D_T_\'_,_ _\'_W_R_B_\'_,_ _\'_"_\'_,_ _"_\'_\'_"_,_ _\'_`_`_\'_]_)_}_,_ _\'_?_\'_,_ _{_\'_t_e_x_t_\'_:_ _(_\'_^_\'_,_ _[_\'_;_\'_,_ _\'_._\'_,_ _\'_!_\'_,_ _\'_?_\'_,_ _\'_._._._\'_,_ _\'_"_\'_,_ _\'_`_`_\'_]_)_,_ _\'_p_o_s_\'_:_ _(_\'_^_\'_,_ _[_\'_W_P_\'_,_ _\'_W_D_T_\'_,_ _\'_W_R_B_\'_,_ _\'_"_\'_,_ _"_\'_\'_"_,_ _\'_`_`_\'_]_)_}_,_ _\'_?_\'_,_ _{_\'_t_e_x_t_\'_:_ _(_\'_^_\'_,_ _[_\'_;_\'_,_ _\'_._\'_,_ _\'_!_\'_,_ _\'_?_\'_,_ _\'_._._._\'_,_ _\'_"_\'_,_ _\'_`_`_\'_]_)_,_ _\'_p_o_s_\'_:_ _(_\'_^_\'_,_ _[_\'_W_P_\'_,_ _\'_W_D_T_\'_,_ _\'_W_R_B_\'_,_ _\'_"_\'_,_ _"_\'_\'_"_,_ _\'_`_`_\'_]_)_}_,_ _\'_?_\'_,_ _{_\'_t_e_x_t_\'_:_ _(_\'_^_\'_,_ _[_\'_;_\'_,_ _\'_._\'_,_ _\'_!_\'_,_ _\'_?_\'_,_ _\'_._._._\'_,_ _\'_"_\'_,_ _\'_`_`_\'_]_)_,_ _\'_p_o_s_\'_:_ _(_\'_^_\'_,_ _[_\'_W_P_\'_,_ _\'_W_D_T_\'_,_ _\'_W_R_B_\'_,_ _\'_"_\'_,_ _"_\'_\'_"_,_ _\'_`_`_\'_]_)_}_,_ _\'_?_\'_,_ _\'_(_\'_,_ _{_\'_t_e_n_s_e_\'_:_ _[_\'_P_A_S_T_\'_,_ _\'_P_R_E_S_E_N_T_\'_,_ _\'_F_U_T_U_R_E_\'_]_,_ _\'_n_o_d_e_T_y_p_e_\'_:_ _[_\'_C_h_u_n_k_\'_,_ _\'_N_o_u_n_C_h_u_n_k_\'_,_ _\'_V_e_r_b_C_h_u_n_k_\'_,_ _\'_A_d_j_e_c_t_i_v_e_T_o_k_e_n_\'_]_}_,_ _\'_|_\'_,_ _{_\'_n_o_d_e_T_y_p_e_\'_:_ _[_\'_C_h_u_n_k_\'_,_ _\'_N_o_u_n_C_h_u_n_k_\'_,_ _\'_V_e_r_b_C_h_u_n_k_\'_,_ _\'_A_d_j_e_c_t_i_v_e_T_o_k_e_n_\'_]_,_ _\'_m_o_d_a_l_i_t_y_\'_:_ _[_\'_m_a_y_\'_,_ _\'_c_a_n_\'_,_ _\'_m_u_s_t_\'_,_ _\'_m_i_g_h_t_\'_,_ _\'_c_o_u_l_d_\'_,_ _\'_s_h_o_u_l_d_\'_,_ _\'_w_o_u_l_d_\'_,_ _\'_o_u_g_h_t_\'_,_ _\'_h_a_v_e_ _t_o_\'_]_}_,_ _\'_)_\'_,_ _\'_|_\'_,_ _{_\'_t_e_x_t_\'_:_ _[_\'_i_s_\'_,_ _\'_w_a_s_\'_,_ _\'_w_e_r_e_\'_,_ _\'_a_m_\'_,_ _\'_b_e_\'_,_ _"_\'_s_"_,_ _\'_a_r_e_\'_,_ _"_\'_r_e_"_,_ _"_\'_m_"_,_ _\'_b_e_e_n_\'_,_ _\'_b_e_i_n_g_\'_]_,_ _\'_n_o_d_e_T_y_p_e_\'_:_ _\'_V_e_r_b_C_h_u_n_k_\'_}_,_ _{_\'_n_o_d_e_T_y_p_e_\'_:_ _\'_T_o_k_e_n_\'_,_ _\'_p_o_s_\'_:_ _\'_I_N_\'_}_,_ _\'_?_\'_,_ _{_\'_n_o_d_e_T_y_p_e_\'_:_ _\'_N_o_u_n_C_h_u_n_k_\'_,_ _\'_e_v_e_n_t_S_t_a_t_u_s_\'_:_ _\'_1_\'_}_,_ _\'_)_\'_]'
p242
sg20
I0
sg21
(lp243
I0
aI1
aI7
aI3
aI2
aI4
aI10
aI8
aI6
aI5
aI9
asg23
(dp244
sg25
I1
sg26
(lp245
(I0
I1
S"{'text': ('^', [','])}"
tp246
a(I1
I2
S"{'nodeType': ['Chunk', 'NounChunk', 'VerbChunk', 'AdjectiveToken'], 'modality': ['may', 'can', 'must', 'might', 'could', 'should', 'would', 'ought', 'have to']}"
tp247
a(I1
I2
S"{'tense': ['PAST', 'PRESENT', 'FUTURE'], 'nodeType': ['Chunk', 'NounChunk', 'VerbChunk', 'AdjectiveToken']}"
tp248
a(I1
I3
S'{\'text\': [\'is\', \'was\', \'were\', \'am\', \'be\', "\'s", \'are\', "\'re", "\'m", \'been\', \'being\'], \'nodeType\': \'VerbChunk\'}'
p249
tp250
a(I1
I4
S'{\'text\': (\'^\', [\';\', \'.\', \'!\', \'?\', \'...\', \'"\']), \'pos\': (\'^\', [\'WP\', \'WDT\', \'WRB\', \'"\', "\'\'"])}'
tp251
a(I1
I5
S'{\'text\': (\'^\', [\';\', \'.\', \'!\', \'?\', \'...\', \'"\', \'``\']), \'pos\': (\'^\', [\'WP\', \'WDT\', \'WRB\', \'"\', "\'\'", \'``\'])}'
tp252
a(I3
I6
S"{'nodeType': 'Token', 'pos': 'IN'}"
tp253
a(I3
I2
S"{'nodeType': 'NounChunk', 'eventStatus': '1'}"
p254
tp255
a(I4
I2
S"{'nodeType': ['Chunk', 'NounChunk', 'VerbChunk', 'AdjectiveToken'], 'modality': ['may', 'can', 'must', 'might', 'could', 'should', 'would', 'ought', 'have to']}"
tp256
a(I4
I2
S"{'tense': ['PAST', 'PRESENT', 'FUTURE'], 'nodeType': ['Chunk', 'NounChunk', 'VerbChunk', 'AdjectiveToken']}"
tp257
a(I4
I3
g249
tp258
a(I4
I5
S'{\'text\': (\'^\', [\';\', \'.\', \'!\', \'?\', \'...\', \'"\', \'``\']), \'pos\': (\'^\', [\'WP\', \'WDT\', \'WRB\', \'"\', "\'\'", \'``\'])}'
tp259
a(I5
I2
S"{'nodeType': ['Chunk', 'NounChunk', 'VerbChunk', 'AdjectiveToken'], 'modality': ['may', 'can', 'must', 'might', 'could', 'should', 'would', 'ought', 'have to']}"
tp260
a(I5
I2
S"{'tense': ['PAST', 'PRESENT', 'FUTURE'], 'nodeType': ['Chunk', 'NounChunk', 'VerbChunk', 'AdjectiveToken']}"
tp261
a(I5
I7
S'{\'text\': (\'^\', [\';\', \'.\', \'!\', \'?\', \'...\', \'"\', \'``\']), \'pos\': (\'^\', [\'WP\', \'WDT\', \'WRB\', \'"\', "\'\'", \'``\'])}'
tp262
a(I6
I2
g254
tp263
a(I7
I2
S"{'nodeType': ['Chunk', 'NounChunk', 'VerbChunk', 'AdjectiveToken'], 'modality': ['may', 'can', 'must', 'might', 'could', 'should', 'would', 'ought', 'have to']}"
tp264
a(I7
I2
S"{'tense': ['PAST', 'PRESENT', 'FUTURE'], 'nodeType': ['Chunk', 'NounChunk', 'VerbChunk', 'AdjectiveToken']}"
tp265
a(I7
I8
S'{\'text\': (\'^\', [\';\', \'.\', \'!\', \'?\', \'...\', \'"\', \'``\']), \'pos\': (\'^\', [\'WP\', \'WDT\', \'WRB\', \'"\', "\'\'", \'``\'])}'
tp266
a(I8
I2
S"{'nodeType': ['Chunk', 'NounChunk', 'VerbChunk', 'AdjectiveToken'], 'modality': ['may', 'can', 'must', 'might', 'could', 'should', 'would', 'ought', 'have to']}"
tp267
a(I8
I2
S"{'tense': ['PAST', 'PRESENT', 'FUTURE'], 'nodeType': ['Chunk', 'NounChunk', 'VerbChunk', 'AdjectiveToken']}"
tp268
a(I8
I9
S'{\'text\': (\'^\', [\';\', \'.\', \'!\', \'?\', \'...\', \'"\', \'``\']), \'pos\': (\'^\', [\'WP\', \'WDT\', \'WRB\', \'"\', "\'\'", \'``\'])}'
tp269
a(I9
I2
S"{'nodeType': ['Chunk', 'NounChunk', 'VerbChunk', 'AdjectiveToken'], 'modality': ['may', 'can', 'must', 'might', 'could', 'should', 'would', 'ought', 'have to']}"
tp270
a(I9
I2
S"{'tense': ['PAST', 'PRESENT', 'FUTURE'], 'nodeType': ['Chunk', 'NounChunk', 'VerbChunk', 'AdjectiveToken']}"
tp271
a(I9
I10
S'{\'text\': (\'^\', [\';\', \'.\', \'!\', \'?\', \'...\', \'"\', \'``\']), \'pos\': (\'^\', [\'WP\', \'WDT\', \'WRB\', \'"\', "\'\'", \'``\'])}'
tp272
a(I10
I2
S"{'nodeType': ['Chunk', 'NounChunk', 'VerbChunk', 'AdjectiveToken'], 'modality': ['may', 'can', 'must', 'might', 'could', 'should', 'would', 'ought', 'have to']}"
tp273
a(I10
I2
S"{'tense': ['PAST', 'PRESENT', 'FUTURE'], 'nodeType': ['Chunk', 'NounChunk', 'VerbChunk', 'AdjectiveToken']}"
tp274
asg86
I1
sg87
I1
sbaa(lp275
g89
ag109
ag162
aa(lp276
g200
ag200
atp277
sg202
((lp278
(lp279
g205
aa(lp280
g200
atp281
ssS'impossible'
p282
(dp283
g4
((lp284
(lp285
g10
ag238
aa(lp286
g89
ag109
ag162
aa(lp287
g200
ag200
atp288
sg202
((lp289
(lp290
g205
aa(lp291
g200
atp292
ssS'vital'
p293
(dp294
g4
((lp295
(lp296
g10
aa(lp297
g200
atp298
sg202
((lp299
(lp300
g205
aa(lp301
g200
atp302
ssS'reluctant'
p303
(dp304
g4
((lp305
(lp306
g89
ag109
ag162
aa(lp307
g200
atp308
ssS'inconceivable'
p309
(dp310
g4
((lp311
(lp312
g10
ag238
aa(lp313
g200
atp314
sg202
((lp315
(lp316
g205
aa(lp317
g200
atp318
ssS'confident'
p319
(dp320
g4
((lp321
(lp322
g10
ag238
aa(lp323
g7
(g8
g9
NtRp324
(dp325
g12
S'about_NPev'
p326
sg14
(lp327
I4
asg16
I1
sg17
Nsg18
S"[_{_'_n_o_d_e_T_y_p_e_'_:_ _'_T_o_k_e_n_'_,_ _'_p_o_s_'_:_ _'_P_D_T_'_}_,_ _'_?_'_,_ _{_'_n_o_d_e_T_y_p_e_'_:_ _'_N_o_u_n_C_h_u_n_k_'_}_,_ _'_?_'_,_ _{_'_t_e_x_t_'_:_ _'_a_b_o_u_t_'_,_ _'_n_o_d_e_T_y_p_e_'_:_ _'_T_o_k_e_n_'_}_,_ _{_'_n_o_d_e_T_y_p_e_'_:_ _'_T_o_k_e_n_'_,_ _'_p_o_s_'_:_ _'_P_D_T_'_}_,_ _'_?_'_,_ _'_(_'_,_ _{_'_n_o_d_e_T_y_p_e_'_:_ _'_N_o_u_n_C_h_u_n_k_'_,_ _'_e_v_e_n_t_S_t_a_t_u_s_'_:_ _'_1_'_}_,_ _'_|_'_,_ _{_'_n_o_d_e_T_y_p_e_'_:_ _'_T_o_k_e_n_'_,_ _'_p_o_s_'_:_ _'_D_T_'_}_,_ _'_(_'_,_ _{_'_n_o_d_e_T_y_p_e_'_:_ _'_T_o_k_e_n_'_,_ _'_p_o_s_'_:_ _[_'_J_J_'_,_ _'_J_J_R_'_,_ _'_J_J_S_'_]_}_,_ _'_|_'_,_ _{_'_n_o_d_e_T_y_p_e_'_:_ _'_V_e_r_b_C_h_u_n_k_'_,_ _'_p_o_s_'_:_ _[_'_V_G_B_'_,_ _'_V_B_N_'_]_}_,_ _'_|_'_,_ _'_|_'_,_ _{_'_p_o_s_'_:_ _'_S_Y_M_'_}_,_ _'_)_'_,_ _'_*_'_,_ _{_'_n_o_d_e_T_y_p_e_'_:_ _'_T_o_k_e_n_'_,_ _'_p_o_s_'_:_ _'_C_D_'_}_,_ _'_*_'_,_ _{_'_n_o_d_e_T_y_p_e_'_:_ _'_N_o_u_n_C_h_u_n_k_'_}_,_ _'_)_'_]"
p328
sg20
I0
sg21
(lp329
I7
aI0
aI1
aI2
aI3
aI4
aI5
aI6
asg23
(dp330
sg25
I1
sg26
(lp331
(I0
I1
S"{'nodeType': 'NounChunk'}"
p332
tp333
a(I0
I2
S"{'text': 'about', 'nodeType': 'Token'}"
p334
tp335
a(I0
I3
S"{'nodeType': 'Token', 'pos': 'PDT'}"
tp336
a(I1
I2
g334
tp337
a(I2
I4
S"{'nodeType': 'NounChunk', 'eventStatus': '1'}"
p338
tp339
a(I2
I5
S"{'nodeType': 'Token', 'pos': 'PDT'}"
tp340
a(I2
I6
S"{'nodeType': 'Token', 'pos': 'DT'}"
p341
tp342
a(I3
I1
g332
tp343
a(I3
I2
g334
tp344
a(I5
I4
g338
tp345
a(I5
I6
g341
tp346
a(I6
I4
S"{'nodeType': 'NounChunk'}"
tp347
a(I6
I6
S"{'nodeType': 'Token', 'pos': ['JJ', 'JJR', 'JJS']}"
tp348
a(I6
I6
S"{'nodeType': 'VerbChunk', 'pos': ['VGB', 'VBN']}"
tp349
a(I6
I6
S"{'pos': 'SYM'}"
tp350
a(I6
I7
S"{'nodeType': 'Token', 'pos': 'CD'}"
tp351
a(I7
I4
S"{'nodeType': 'NounChunk'}"
tp352
a(I7
I7
S"{'nodeType': 'Token', 'pos': 'CD'}"
tp353
asg86
I1
sg87
I1
sbag7
(g8
g9
NtRp354
(dp355
g12
S'aboutING_clause'
p356
sg14
(lp357
I5
asg16
I1
sg17
Nsg18
S"[_{_'_n_o_d_e_T_y_p_e_'_:_ _'_T_o_k_e_n_'_,_ _'_p_o_s_'_:_ _'_I_N_'_}_,_ _'_?_'_,_ _{_'_n_o_d_e_T_y_p_e_'_:_ _'_T_o_k_e_n_'_,_ _'_p_o_s_'_:_ _'_P_D_T_'_}_,_ _'_?_'_,_ _{_'_n_o_d_e_T_y_p_e_'_:_ _'_N_o_u_n_C_h_u_n_k_'_}_,_ _'_?_'_,_ _{_'_t_e_x_t_'_:_ _'_a_b_o_u_t_'_,_ _'_n_o_d_e_T_y_p_e_'_:_ _'_T_o_k_e_n_'_}_,_ _{_'_n_o_d_e_T_y_p_e_'_:_ _'_V_e_r_b_C_h_u_n_k_'_,_ _'_e_v_e_n_t_S_t_a_t_u_s_'_:_ _'_1_'_}_]"
p358
sg20
I0
sg21
(lp359
I0
aI1
aI2
aI3
aI4
aI5
asg23
(dp360
sg25
I1
sg26
(lp361
(I0
I1
S"{'nodeType': 'Token', 'pos': 'IN'}"
tp362
a(I0
I2
S"{'nodeType': 'NounChunk'}"
p363
tp364
a(I0
I3
S"{'nodeType': 'Token', 'pos': 'PDT'}"
p365
tp366
a(I0
I4
S"{'text': 'about', 'nodeType': 'Token'}"
p367
tp368
a(I1
I2
g363
tp369
a(I1
I4
g367
tp370
a(I1
I3
g365
tp371
a(I2
I4
g367
tp372
a(I3
I2
g363
tp373
a(I3
I4
g367
tp374
a(I4
I5
S"{'nodeType': 'VerbChunk', 'eventStatus': '1'}"
tp375
asg86
I1
sg87
I1
sbaa(lp376
g200
ag200
atp377
ssS'unknown'
p378
(dp379
g4
((lp380
(lp381
g7
(g8
g9
NtRp382
(dp383
g12
S'thatClause_if'
p384
sg14
(lp385
I4
asg16
I1
sg17
Nsg18
S'[_{_\'_t_e_x_t_\'_:_ _(_\'_^_\'_,_ _[_\'_,_\'_]_)_}_,_ _{_\'_t_e_x_t_\'_:_ _(_\'_^_\'_,_ _[_\'_;_\'_,_ _\'_._\'_,_ _\'_!_\'_,_ _\'_?_\'_,_ _\'_._._._\'_,_ _\'_"_\'_,_ _\'_`_`_\'_]_)_,_ _\'_p_o_s_\'_:_ _(_\'_^_\'_,_ _[_\'_W_P_\'_,_ _\'_W_D_T_\'_,_ _\'_W_R_B_\'_,_ _\'_"_\'_,_ _"_\'_\'_"_,_ _\'_`_`_\'_]_)_}_,_ _\'_?_\'_,_ _{_\'_t_e_x_t_\'_:_ _(_\'_^_\'_,_ _[_\'_;_\'_,_ _\'_._\'_,_ _\'_!_\'_,_ _\'_?_\'_,_ _\'_._._._\'_,_ _\'_"_\'_,_ _\'_`_`_\'_]_)_,_ _\'_p_o_s_\'_:_ _(_\'_^_\'_,_ _[_\'_W_P_\'_,_ _\'_W_D_T_\'_,_ _\'_W_R_B_\'_,_ _\'_"_\'_,_ _"_\'_\'_"_,_ _\'_`_`_\'_]_)_}_,_ _\'_?_\'_,_ _{_\'_t_e_x_t_\'_:_ _[_\'_i_f_\'_,_ _\'_w_h_e_t_h_e_r_\'_]_,_ _\'_n_o_d_e_T_y_p_e_\'_:_ _\'_T_o_k_e_n_\'_}_,_ _{_\'_t_e_x_t_\'_:_ _(_\'_^_\'_,_ _[_\'_;_\'_,_ _\'_._\'_,_ _\'_!_\'_,_ _\'_?_\'_,_ _\'_._._._\'_,_ _\'_"_\'_,_ _\'_`_`_\'_]_)_,_ _\'_p_o_s_\'_:_ _(_\'_^_\'_,_ _[_\'_W_P_\'_,_ _\'_W_D_T_\'_,_ _\'_W_R_B_\'_,_ _\'_"_\'_,_ _"_\'_\'_"_,_ _\'_`_`_\'_]_)_}_,_ _\'_?_\'_,_ _{_\'_t_e_x_t_\'_:_ _(_\'_^_\'_,_ _[_\'_;_\'_,_ _\'_._\'_,_ _\'_!_\'_,_ _\'_?_\'_,_ _\'_._._._\'_,_ _\'_"_\'_,_ _\'_`_`_\'_]_)_,_ _\'_p_o_s_\'_:_ _(_\'_^_\'_,_ _[_\'_W_P_\'_,_ _\'_W_D_T_\'_,_ _\'_W_R_B_\'_,_ _\'_"_\'_,_ _"_\'_\'_"_,_ _\'_`_`_\'_]_)_}_,_ _\'_?_\'_,_ _{_\'_t_e_x_t_\'_:_ _(_\'_^_\'_,_ _[_\'_;_\'_,_ _\'_._\'_,_ _\'_!_\'_,_ _\'_?_\'_,_ _\'_._._._\'_,_ _\'_"_\'_,_ _\'_`_`_\'_]_)_,_ _\'_p_o_s_\'_:_ _(_\'_^_\'_,_ _[_\'_W_P_\'_,_ _\'_W_D_T_\'_,_ _\'_W_R_B_\'_,_ _\'_"_\'_,_ _"_\'_\'_"_,_ _\'_`_`_\'_]_)_}_,_ _\'_?_\'_,_ _{_\'_t_e_x_t_\'_:_ _(_\'_^_\'_,_ _[_\'_;_\'_,_ _\'_._\'_,_ _\'_!_\'_,_ _\'_?_\'_,_ _\'_._._._\'_,_ _\'_"_\'_,_ _\'_`_`_\'_]_)_,_ _\'_p_o_s_\'_:_ _(_\'_^_\'_,_ _[_\'_W_P_\'_,_ _\'_W_D_T_\'_,_ _\'_W_R_B_\'_,_ _\'_"_\'_,_ _"_\'_\'_"_,_ _\'_`_`_\'_]_)_}_,_ _\'_?_\'_,_ _{_\'_t_e_x_t_\'_:_ _(_\'_^_\'_,_ _[_\'_;_\'_,_ _\'_._\'_,_ _\'_!_\'_,_ _\'_?_\'_,_ _\'_._._._\'_,_ _\'_"_\'_,_ _\'_`_`_\'_]_)_,_ _\'_p_o_s_\'_:_ _(_\'_^_\'_,_ _[_\'_W_P_\'_,_ _\'_W_D_T_\'_,_ _\'_W_R_B_\'_,_ _\'_"_\'_,_ _"_\'_\'_"_,_ _\'_`_`_\'_]_)_}_,_ _\'_?_\'_,_ _{_\'_t_e_x_t_\'_:_ _(_\'_^_\'_,_ _[_\'_;_\'_,_ _\'_._\'_,_ _\'_!_\'_,_ _\'_?_\'_,_ _\'_._._._\'_,_ _\'_"_\'_,_ _\'_`_`_\'_]_)_,_ _\'_p_o_s_\'_:_ _(_\'_^_\'_,_ _[_\'_W_P_\'_,_ _\'_W_D_T_\'_,_ _\'_W_R_B_\'_,_ _\'_"_\'_,_ _"_\'_\'_"_,_ _\'_`_`_\'_]_)_}_,_ _\'_?_\'_,_ _\'_(_\'_,_ _{_\'_t_e_n_s_e_\'_:_ _[_\'_P_A_S_T_\'_,_ _\'_P_R_E_S_E_N_T_\'_,_ _\'_F_U_T_U_R_E_\'_]_,_ _\'_n_o_d_e_T_y_p_e_\'_:_ _[_\'_C_h_u_n_k_\'_,_ _\'_N_o_u_n_C_h_u_n_k_\'_,_ _\'_V_e_r_b_C_h_u_n_k_\'_,_ _\'_A_d_j_e_c_t_i_v_e_T_o_k_e_n_\'_]_}_,_ _\'_|_\'_,_ _{_\'_n_o_d_e_T_y_p_e_\'_:_ _[_\'_C_h_u_n_k_\'_,_ _\'_N_o_u_n_C_h_u_n_k_\'_,_ _\'_V_e_r_b_C_h_u_n_k_\'_,_ _\'_A_d_j_e_c_t_i_v_e_T_o_k_e_n_\'_]_,_ _\'_m_o_d_a_l_i_t_y_\'_:_ _[_\'_m_a_y_\'_,_ _\'_c_a_n_\'_,_ _\'_m_u_s_t_\'_,_ _\'_m_i_g_h_t_\'_,_ _\'_c_o_u_l_d_\'_,_ _\'_s_h_o_u_l_d_\'_,_ _\'_w_o_u_l_d_\'_,_ _\'_o_u_g_h_t_\'_,_ _\'_h_a_v_e_ _t_o_\'_]_}_,_ _\'_)_\'_]'
p386
sg20
I0
sg21
(lp387
I0
aI1
aI2
aI3
aI4
aI7
aI8
aI5
aI9
aI6
aI10
aI11
asg23
(dp388
sg25
I1
sg26
(lp389
(I0
I1
S"{'text': ('^', [','])}"
tp390
a(I1
I2
S"{'text': ['if', 'whether'], 'nodeType': 'Token'}"
p391
tp392
a(I1
I3
S'{\'text\': (\'^\', [\';\', \'.\', \'!\', \'?\', \'...\', \'"\', \'``\']), \'pos\': (\'^\', [\'WP\', \'WDT\', \'WRB\', \'"\', "\'\'", \'``\'])}'
tp393
a(I2
I4
S"{'nodeType': ['Chunk', 'NounChunk', 'VerbChunk', 'AdjectiveToken'], 'modality': ['may', 'can', 'must', 'might', 'could', 'should', 'would', 'ought', 'have to']}"
tp394
a(I2
I4
S"{'tense': ['PAST', 'PRESENT', 'FUTURE'], 'nodeType': ['Chunk', 'NounChunk', 'VerbChunk', 'AdjectiveToken']}"
tp395
a(I2
I5
S'{\'text\': (\'^\', [\';\', \'.\', \'!\', \'?\', \'...\', \'"\', \'``\']), \'pos\': (\'^\', [\'WP\', \'WDT\', \'WRB\', \'"\', "\'\'", \'``\'])}'
tp396
a(I3
I2
g391
tp397
a(I3
I6
S'{\'text\': (\'^\', [\';\', \'.\', \'!\', \'?\', \'...\', \'"\', \'``\']), \'pos\': (\'^\', [\'WP\', \'WDT\', \'WRB\', \'"\', "\'\'", \'``\'])}'
tp398
a(I5
I4
S"{'nodeType': ['Chunk', 'NounChunk', 'VerbChunk', 'AdjectiveToken'], 'modality': ['may', 'can', 'must', 'might', 'could', 'should', 'would', 'ought', 'have to']}"
tp399
a(I5
I4
S"{'tense': ['PAST', 'PRESENT', 'FUTURE'], 'nodeType': ['Chunk', 'NounChunk', 'VerbChunk', 'AdjectiveToken']}"
tp400
a(I5
I7
S'{\'text\': (\'^\', [\';\', \'.\', \'!\', \'?\', \'...\', \'"\', \'``\']), \'pos\': (\'^\', [\'WP\', \'WDT\', \'WRB\', \'"\', "\'\'", \'``\'])}'
tp401
a(I6
I2
g391
tp402
a(I7
I4
S"{'nodeType': ['Chunk', 'NounChunk', 'VerbChunk', 'AdjectiveToken'], 'modality': ['may', 'can', 'must', 'might', 'could', 'should', 'would', 'ought', 'have to']}"
tp403
a(I7
I4
S"{'tense': ['PAST', 'PRESENT', 'FUTURE'], 'nodeType': ['Chunk', 'NounChunk', 'VerbChunk', 'AdjectiveToken']}"
tp404
a(I7
I8
S'{\'text\': (\'^\', [\';\', \'.\', \'!\', \'?\', \'...\', \'"\', \'``\']), \'pos\': (\'^\', [\'WP\', \'WDT\', \'WRB\', \'"\', "\'\'", \'``\'])}'
tp405
a(I8
I4
S"{'nodeType': ['Chunk', 'NounChunk', 'VerbChunk', 'AdjectiveToken'], 'modality': ['may', 'can', 'must', 'might', 'could', 'should', 'would', 'ought', 'have to']}"
tp406
a(I8
I4
S"{'tense': ['PAST', 'PRESENT', 'FUTURE'], 'nodeType': ['Chunk', 'NounChunk', 'VerbChunk', 'AdjectiveToken']}"
tp407
a(I8
I9
S'{\'text\': (\'^\', [\';\', \'.\', \'!\', \'?\', \'...\', \'"\', \'``\']), \'pos\': (\'^\', [\'WP\', \'WDT\', \'WRB\', \'"\', "\'\'", \'``\'])}'
tp408
a(I9
I4
S"{'nodeType': ['Chunk', 'NounChunk', 'VerbChunk', 'AdjectiveToken'], 'modality': ['may', 'can', 'must', 'might', 'could', 'should', 'would', 'ought', 'have to']}"
tp409
a(I9
I4
S"{'tense': ['PAST', 'PRESENT', 'FUTURE'], 'nodeType': ['Chunk', 'NounChunk', 'VerbChunk', 'AdjectiveToken']}"
tp410
a(I9
I10
S'{\'text\': (\'^\', [\';\', \'.\', \'!\', \'?\', \'...\', \'"\', \'``\']), \'pos\': (\'^\', [\'WP\', \'WDT\', \'WRB\', \'"\', "\'\'", \'``\'])}'
tp411
a(I10
I4
S"{'nodeType': ['Chunk', 'NounChunk', 'VerbChunk', 'AdjectiveToken'], 'modality': ['may', 'can', 'must', 'might', 'could', 'should', 'would', 'ought', 'have to']}"
tp412
a(I10
I4
S"{'tense': ['PAST', 'PRESENT', 'FUTURE'], 'nodeType': ['Chunk', 'NounChunk', 'VerbChunk', 'AdjectiveToken']}"
tp413
a(I10
I11
S'{\'text\': (\'^\', [\';\', \'.\', \'!\', \'?\', \'...\', \'"\', \'``\']), \'pos\': (\'^\', [\'WP\', \'WDT\', \'WRB\', \'"\', "\'\'", \'``\'])}'
tp414
a(I11
I4
S"{'nodeType': ['Chunk', 'NounChunk', 'VerbChunk', 'AdjectiveToken'], 'modality': ['may', 'can', 'must', 'might', 'could', 'should', 'would', 'ought', 'have to']}"
tp415
a(I11
I4
S"{'tense': ['PAST', 'PRESENT', 'FUTURE'], 'nodeType': ['Chunk', 'NounChunk', 'VerbChunk', 'AdjectiveToken']}"
tp416
asg86
I1
sg87
I1
sbaa(lp417
g200
atp418
ssS'alleged'
p419
(dp420
g4
((lp421
(lp422
g7
(g8
g9
NtRp423
(dp424
g12
S'NP_event1'
p425
sg14
(lp426
I2
asg16
I1
sg17
Nsg18
S'[_{_\'_n_o_d_e_T_y_p_e_\'_:_ _\'_T_o_k_e_n_\'_,_ _\'_p_o_s_\'_:_ _\'_P_D_T_\'_}_,_ _\'_?_\'_,_ _{_\'_t_e_x_t_\'_:_ _[_\'_"_\'_,_ _\'_`_`_\'_,_ _"_\'_\'_"_]_}_,_ _\'_?_\'_,_ _\'_(_\'_,_ _{_\'_n_o_d_e_T_y_p_e_\'_:_ _\'_T_o_k_e_n_\'_,_ _\'_p_o_s_\'_:_ _[_\'_J_J_\'_,_ _\'_J_J_R_\'_,_ _\'_J_J_S_\'_,_ _\'_D_T_\'_,_ _\'_P_D_T_\'_,_ _\'_P_O_S_\'_,_ _\'_C_D_\'_,_ _\'_S_Y_M_\'_]_}_,_ _\'_*_\'_,_ _{_\'_n_o_d_e_T_y_p_e_\'_:_ _\'_N_o_u_n_C_h_u_n_k_\'_}_,_ _{_\'_t_e_x_t_\'_:_ _\'_o_f_\'_}_,_ _\'_)_\'_,_ _\'_*_\'_,_ _{_\'_n_o_d_e_T_y_p_e_\'_:_ _\'_N_o_u_n_C_h_u_n_k_\'_,_ _\'_e_v_e_n_t_S_t_a_t_u_s_\'_:_ _\'_1_\'_}_]'
p427
sg20
I0
sg21
(lp428
I0
aI2
aI4
aI3
aI1
aI5
asg23
(dp429
sg25
I1
sg26
(lp430
(I0
I1
S"{'nodeType': 'NounChunk'}"
p431
tp432
a(I0
I2
S"{'nodeType': 'NounChunk', 'eventStatus': '1'}"
p433
tp434
a(I0
I3
S"{'nodeType': 'Token', 'pos': 'PDT'}"
tp435
a(I0
I4
S'{\'text\': [\'"\', \'``\', "\'\'"]}'
p436
tp437
a(I0
I5
S"{'nodeType': 'Token', 'pos': ['JJ', 'JJR', 'JJS', 'DT', 'PDT', 'POS', 'CD', 'SYM']}"
p438
tp439
a(I1
I4
S"{'text': 'of'}"
tp440
a(I3
I1
g431
tp441
a(I3
I2
g433
tp442
a(I3
I4
g436
tp443
a(I3
I5
g438
tp444
a(I4
I1
g431
tp445
a(I4
I2
g433
tp446
a(I4
I5
g438
tp447
a(I5
I1
g431
tp448
a(I5
I5
g438
tp449
asg86
I1
sg87
I1
sbag7
(g8
g9
NtRp450
(dp451
g12
S'NP_event2'
p452
sg14
(lp453
I2
asg16
I1
sg17
Nsg18
S'[_{_\'_n_o_d_e_T_y_p_e_\'_:_ _\'_T_o_k_e_n_\'_,_ _\'_p_o_s_\'_:_ _\'_P_D_T_\'_}_,_ _\'_?_\'_,_ _{_\'_t_e_x_t_\'_:_ _[_\'_"_\'_,_ _\'_`_`_\'_,_ _"_\'_\'_"_]_}_,_ _\'_?_\'_,_ _{_\'_n_o_d_e_T_y_p_e_\'_:_ _\'_T_o_k_e_n_\'_,_ _\'_p_o_s_\'_:_ _\'_D_T_\'_}_,_ _\'_?_\'_,_ _{_\'_t_e_x_t_\'_:_ _[_\'_"_\'_,_ _\'_`_`_\'_,_ _"_\'_\'_"_]_}_,_ _\'_?_\'_,_ _\'_(_\'_,_ _{_\'_n_o_d_e_T_y_p_e_\'_:_ _\'_T_o_k_e_n_\'_,_ _\'_p_o_s_\'_:_ _[_\'_J_J_\'_,_ _\'_J_J_R_\'_,_ _\'_J_J_S_\'_]_}_,_ _\'_|_\'_,_ _{_\'_n_o_d_e_T_y_p_e_\'_:_ _\'_V_e_r_b_C_h_u_n_k_\'_,_ _\'_p_o_s_\'_:_ _[_\'_V_G_B_\'_,_ _\'_V_B_N_\'_]_}_,_ _\'_|_\'_,_ _{_\'_p_o_s_\'_:_ _\'_S_Y_M_\'_}_,_ _\'_)_\'_,_ _\'_*_\'_,_ _{_\'_t_e_x_t_\'_:_ _[_\'_"_\'_,_ _\'_`_`_\'_,_ _"_\'_\'_"_]_}_,_ _\'_?_\'_,_ _{_\'_n_o_d_e_T_y_p_e_\'_:_ _\'_T_o_k_e_n_\'_,_ _\'_p_o_s_\'_:_ _\'_C_D_\'_}_,_ _\'_*_\'_,_ _{_\'_t_e_x_t_\'_:_ _[_\'_"_\'_,_ _\'_`_`_\'_,_ _"_\'_\'_"_]_}_,_ _\'_?_\'_,_ _{_\'_n_o_d_e_T_y_p_e_\'_:_ _\'_N_o_u_n_C_h_u_n_k_\'_,_ _\'_e_v_e_n_t_S_t_a_t_u_s_\'_:_ _\'_1_\'_}_]'
p454
sg20
I0
sg21
(lp455
I0
aI5
aI2
aI6
aI3
aI1
aI4
aI7
asg23
(dp456
sg25
I1
sg26
(lp457
(I0
I1
S"{'nodeType': 'Token', 'pos': ['JJ', 'JJR', 'JJS']}"
tp458
a(I0
I1
S"{'nodeType': 'VerbChunk', 'pos': ['VGB', 'VBN']}"
tp459
a(I0
I1
S"{'pos': 'SYM'}"
tp460
a(I0
I2
S"{'nodeType': 'NounChunk', 'eventStatus': '1'}"
p461
tp462
a(I0
I3
S"{'nodeType': 'Token', 'pos': 'PDT'}"
tp463
a(I0
I4
S'{\'text\': [\'"\', \'``\', "\'\'"]}'
p464
tp465
a(I0
I5
S"{'nodeType': 'Token', 'pos': 'CD'}"
p466
tp467
a(I0
I6
S"{'nodeType': 'Token', 'pos': 'DT'}"
p468
tp469
a(I1
I1
S"{'nodeType': 'Token', 'pos': ['JJ', 'JJR', 'JJS']}"
tp470
a(I1
I1
S"{'nodeType': 'VerbChunk', 'pos': ['VGB', 'VBN']}"
tp471
a(I1
I1
S"{'pos': 'SYM'}"
tp472
a(I1
I2
g461
tp473
a(I1
I5
S"{'nodeType': 'Token', 'pos': 'CD'}"
tp474
a(I1
I5
S'{\'text\': [\'"\', \'``\', "\'\'"]}'
tp475
a(I3
I1
S"{'nodeType': 'Token', 'pos': ['JJ', 'JJR', 'JJS']}"
tp476
a(I3
I1
S"{'nodeType': 'VerbChunk', 'pos': ['VGB', 'VBN']}"
tp477
a(I3
I1
S"{'pos': 'SYM'}"
tp478
a(I3
I2
g461
tp479
a(I3
I4
g464
tp480
a(I3
I5
g466
tp481
a(I3
I6
g468
tp482
a(I4
I1
S"{'nodeType': 'Token', 'pos': ['JJ', 'JJR', 'JJS']}"
tp483
a(I4
I1
S"{'nodeType': 'VerbChunk', 'pos': ['VGB', 'VBN']}"
tp484
a(I4
I1
S"{'pos': 'SYM'}"
tp485
a(I4
I1
S'{\'text\': [\'"\', \'``\', "\'\'"]}'
tp486
a(I4
I2
g461
tp487
a(I4
I5
g466
tp488
a(I4
I6
g468
tp489
a(I5
I2
g461
tp490
a(I5
I7
S'{\'text\': [\'"\', \'``\', "\'\'"]}'
tp491
a(I5
I5
g466
tp492
a(I6
I1
S"{'nodeType': 'Token', 'pos': ['JJ', 'JJR', 'JJS']}"
tp493
a(I6
I1
S"{'nodeType': 'VerbChunk', 'pos': ['VGB', 'VBN']}"
tp494
a(I6
I1
S"{'pos': 'SYM'}"
tp495
a(I6
I1
S'{\'text\': [\'"\', \'``\', "\'\'"]}'
tp496
a(I6
I2
g461
tp497
a(I6
I5
g466
tp498
a(I7
I2
g461
tp499
asg86
I1
sg87
I1
sbaa(lp500
g200
atp501
ssS'eager'
p502
(dp503
g4
((lp504
(lp505
g89
ag109
ag162
aa(lp506
g200
atp507
ssS'responsable'
p508
(dp509
g4
((lp510
(lp511
g89
ag109
ag162
aa(lp512
g7
(g8
g9
NtRp513
(dp514
g12
S'of_NPev'
p515
sg14
(lp516
I4
asg16
I1
sg17
Nsg18
S"[_{_'_n_o_d_e_T_y_p_e_'_:_ _'_T_o_k_e_n_'_,_ _'_p_o_s_'_:_ _'_P_D_T_'_}_,_ _'_?_'_,_ _{_'_n_o_d_e_T_y_p_e_'_:_ _'_N_o_u_n_C_h_u_n_k_'_}_,_ _'_?_'_,_ _{_'_t_e_x_t_'_:_ _'_o_f_'_}_,_ _{_'_n_o_d_e_T_y_p_e_'_:_ _'_T_o_k_e_n_'_,_ _'_p_o_s_'_:_ _'_P_D_T_'_}_,_ _'_?_'_,_ _'_(_'_,_ _{_'_n_o_d_e_T_y_p_e_'_:_ _'_N_o_u_n_C_h_u_n_k_'_,_ _'_e_v_e_n_t_S_t_a_t_u_s_'_:_ _'_1_'_}_,_ _'_|_'_,_ _{_'_n_o_d_e_T_y_p_e_'_:_ _'_T_o_k_e_n_'_,_ _'_p_o_s_'_:_ _'_D_T_'_}_,_ _'_(_'_,_ _{_'_n_o_d_e_T_y_p_e_'_:_ _'_T_o_k_e_n_'_,_ _'_p_o_s_'_:_ _[_'_J_J_'_,_ _'_J_J_R_'_,_ _'_J_J_S_'_]_}_,_ _'_|_'_,_ _{_'_n_o_d_e_T_y_p_e_'_:_ _'_V_e_r_b_C_h_u_n_k_'_,_ _'_p_o_s_'_:_ _[_'_V_G_B_'_,_ _'_V_B_N_'_]_}_,_ _'_|_'_,_ _{_'_p_o_s_'_:_ _'_S_Y_M_'_}_,_ _'_)_'_,_ _'_*_'_,_ _{_'_n_o_d_e_T_y_p_e_'_:_ _'_T_o_k_e_n_'_,_ _'_p_o_s_'_:_ _'_C_D_'_}_,_ _'_*_'_,_ _{_'_n_o_d_e_T_y_p_e_'_:_ _'_N_o_u_n_C_h_u_n_k_'_}_,_ _'_)_'_]"
p517
sg20
I0
sg21
(lp518
I7
aI0
aI1
aI2
aI3
aI4
aI5
aI6
asg23
(dp519
sg25
I1
sg26
(lp520
(I0
I1
S"{'nodeType': 'NounChunk'}"
p521
tp522
a(I0
I2
S"{'nodeType': 'Token', 'pos': 'PDT'}"
tp523
a(I0
I3
S"{'text': 'of'}"
p524
tp525
a(I1
I3
g524
tp526
a(I2
I1
g521
tp527
a(I2
I3
g524
tp528
a(I3
I4
S"{'nodeType': 'NounChunk', 'eventStatus': '1'}"
p529
tp530
a(I3
I5
S"{'nodeType': 'Token', 'pos': 'PDT'}"
tp531
a(I3
I6
S"{'nodeType': 'Token', 'pos': 'DT'}"
p532
tp533
a(I5
I4
g529
tp534
a(I5
I6
g532
tp535
a(I6
I4
S"{'nodeType': 'NounChunk'}"
tp536
a(I6
I6
S"{'nodeType': 'Token', 'pos': ['JJ', 'JJR', 'JJS']}"
tp537
a(I6
I6
S"{'nodeType': 'VerbChunk', 'pos': ['VGB', 'VBN']}"
tp538
a(I6
I6
S"{'pos': 'SYM'}"
tp539
a(I6
I7
S"{'nodeType': 'Token', 'pos': 'CD'}"
tp540
a(I7
I4
S"{'nodeType': 'NounChunk'}"
tp541
a(I7
I7
S"{'nodeType': 'Token', 'pos': 'CD'}"
tp542
asg86
I1
sg87
I1
sbag7
(g8
g9
NtRp543
(dp544
g12
S'ofING_clause'
p545
sg14
(lp546
I5
asg16
I1
sg17
Nsg18
S"[_{_'_n_o_d_e_T_y_p_e_'_:_ _'_T_o_k_e_n_'_,_ _'_p_o_s_'_:_ _'_I_N_'_}_,_ _'_?_'_,_ _{_'_n_o_d_e_T_y_p_e_'_:_ _'_T_o_k_e_n_'_,_ _'_p_o_s_'_:_ _'_P_D_T_'_}_,_ _'_?_'_,_ _{_'_n_o_d_e_T_y_p_e_'_:_ _'_N_o_u_n_C_h_u_n_k_'_}_,_ _'_?_'_,_ _{_'_t_e_x_t_'_:_ _'_o_f_'_}_,_ _{_'_n_o_d_e_T_y_p_e_'_:_ _'_V_e_r_b_C_h_u_n_k_'_,_ _'_e_v_e_n_t_S_t_a_t_u_s_'_:_ _'_1_'_}_]"
p547
sg20
I0
sg21
(lp548
I0
aI1
aI2
aI3
aI4
aI5
asg23
(dp549
sg25
I1
sg26
(lp550
(I0
I1
S"{'nodeType': 'Token', 'pos': 'IN'}"
tp551
a(I0
I2
S"{'nodeType': 'NounChunk'}"
p552
tp553
a(I0
I3
S"{'nodeType': 'Token', 'pos': 'PDT'}"
p554
tp555
a(I0
I4
S"{'text': 'of'}"
p556
tp557
a(I1
I2
g552
tp558
a(I1
I3
g554
tp559
a(I1
I4
g556
tp560
a(I2
I4
g556
tp561
a(I3
I2
g552
tp562
a(I3
I4
g556
tp563
a(I4
I5
S"{'nodeType': 'VerbChunk', 'eventStatus': '1'}"
tp564
asg86
I1
sg87
I1
sbag7
(g8
g9
NtRp565
(dp566
g12
S'for_NPev'
p567
sg14
(lp568
I4
asg16
I1
sg17
Nsg18
S"[_{_'_n_o_d_e_T_y_p_e_'_:_ _'_T_o_k_e_n_'_,_ _'_p_o_s_'_:_ _'_P_D_T_'_}_,_ _'_?_'_,_ _{_'_n_o_d_e_T_y_p_e_'_:_ _'_N_o_u_n_C_h_u_n_k_'_}_,_ _'_?_'_,_ _{_'_t_e_x_t_'_:_ _'_f_o_r_'_}_,_ _{_'_n_o_d_e_T_y_p_e_'_:_ _'_T_o_k_e_n_'_,_ _'_p_o_s_'_:_ _'_P_D_T_'_}_,_ _'_?_'_,_ _'_(_'_,_ _{_'_n_o_d_e_T_y_p_e_'_:_ _'_N_o_u_n_C_h_u_n_k_'_,_ _'_e_v_e_n_t_S_t_a_t_u_s_'_:_ _'_1_'_}_,_ _'_|_'_,_ _{_'_n_o_d_e_T_y_p_e_'_:_ _'_T_o_k_e_n_'_,_ _'_p_o_s_'_:_ _'_D_T_'_}_,_ _'_(_'_,_ _{_'_n_o_d_e_T_y_p_e_'_:_ _'_T_o_k_e_n_'_,_ _'_p_o_s_'_:_ _[_'_J_J_'_,_ _'_J_J_R_'_,_ _'_J_J_S_'_]_}_,_ _'_|_'_,_ _{_'_n_o_d_e_T_y_p_e_'_:_ _'_V_e_r_b_C_h_u_n_k_'_,_ _'_p_o_s_'_:_ _[_'_V_G_B_'_,_ _'_V_B_N_'_]_}_,_ _'_|_'_,_ _'_|_'_,_ _{_'_p_o_s_'_:_ _'_S_Y_M_'_}_,_ _'_)_'_,_ _'_*_'_,_ _{_'_n_o_d_e_T_y_p_e_'_:_ _'_T_o_k_e_n_'_,_ _'_p_o_s_'_:_ _'_C_D_'_}_,_ _'_*_'_,_ _{_'_n_o_d_e_T_y_p_e_'_:_ _'_N_o_u_n_C_h_u_n_k_'_}_,_ _'_)_'_]"
p569
sg20
I0
sg21
(lp570
I7
aI0
aI1
aI2
aI3
aI4
aI5
aI6
asg23
(dp571
sg25
I1
sg26
(lp572
(I0
I1
S"{'nodeType': 'NounChunk'}"
p573
tp574
a(I0
I2
S"{'nodeType': 'Token', 'pos': 'PDT'}"
tp575
a(I0
I3
S"{'text': 'for'}"
p576
tp577
a(I1
I3
g576
tp578
a(I2
I1
g573
tp579
a(I2
I3
g576
tp580
a(I3
I4
S"{'nodeType': 'NounChunk', 'eventStatus': '1'}"
p581
tp582
a(I3
I5
S"{'nodeType': 'Token', 'pos': 'PDT'}"
tp583
a(I3
I6
S"{'nodeType': 'Token', 'pos': 'DT'}"
p584
tp585
a(I5
I4
g581
tp586
a(I5
I6
g584
tp587
a(I6
I4
S"{'nodeType': 'NounChunk'}"
tp588
a(I6
I6
S"{'nodeType': 'Token', 'pos': ['JJ', 'JJR', 'JJS']}"
tp589
a(I6
I6
S"{'nodeType': 'VerbChunk', 'pos': ['VGB', 'VBN']}"
tp590
a(I6
I6
S"{'pos': 'SYM'}"
tp591
a(I6
I7
S"{'nodeType': 'Token', 'pos': 'CD'}"
tp592
a(I7
I4
S"{'nodeType': 'NounChunk'}"
tp593
a(I7
I7
S"{'nodeType': 'Token', 'pos': 'CD'}"
tp594
asg86
I1
sg87
I1
sbag7
(g8
g9
NtRp595
(dp596
g12
S'forING_clause'
p597
sg14
(lp598
I5
asg16
I1
sg17
Nsg18
S"[_{_'_n_o_d_e_T_y_p_e_'_:_ _'_T_o_k_e_n_'_,_ _'_p_o_s_'_:_ _'_I_N_'_}_,_ _'_?_'_,_ _{_'_n_o_d_e_T_y_p_e_'_:_ _'_T_o_k_e_n_'_,_ _'_p_o_s_'_:_ _'_P_D_T_'_}_,_ _'_?_'_,_ _{_'_n_o_d_e_T_y_p_e_'_:_ _'_N_o_u_n_C_h_u_n_k_'_}_,_ _'_?_'_,_ _{_'_t_e_x_t_'_:_ _'_f_o_r_'_}_,_ _{_'_n_o_d_e_T_y_p_e_'_:_ _'_V_e_r_b_C_h_u_n_k_'_,_ _'_e_v_e_n_t_S_t_a_t_u_s_'_:_ _'_1_'_}_]"
p599
sg20
I0
sg21
(lp600
I0
aI1
aI2
aI3
aI4
aI5
asg23
(dp601
sg25
I1
sg26
(lp602
(I0
I1
S"{'nodeType': 'Token', 'pos': 'IN'}"
tp603
a(I0
I2
S"{'nodeType': 'NounChunk'}"
p604
tp605
a(I0
I3
S"{'nodeType': 'Token', 'pos': 'PDT'}"
p606
tp607
a(I0
I4
S"{'text': 'for'}"
p608
tp609
a(I1
I2
g604
tp610
a(I1
I3
g606
tp611
a(I1
I4
g608
tp612
a(I2
I4
g608
tp613
a(I3
I2
g604
tp614
a(I3
I4
g608
tp615
a(I4
I5
S"{'nodeType': 'VerbChunk', 'eventStatus': '1'}"
tp616
asg86
I1
sg87
I1
sbaa(lp617
g200
ag200
atp618
ssS'tragic'
p619
(dp620
g4
((lp621
(lp622
g10
aa(lp623
g89
ag109
ag162
aa(lp624
g382
aa(lp625
g199
ag200
ag200
atp626
ssS'sorry'
p627
(dp628
g4
((lp629
(lp630
g10
aa(lp631
g324
ag354
aa(lp632
g199
ag199
atp633
ssS'lucky'
p634
(dp635
g4
((lp636
(lp637
g89
ag109
ag162
aa(lp638
g10
ag238
aa(lp639
g199
atp640
ssS'aware'
p641
(dp642
g4
((lp643
(lp644
g10
aa(lp645
g513
aa(lp646
g200
ag199
atp647
ssS'true'
p648
(dp649
g4
((lp650
(lp651
g10
ag238
aa(lp652
g199
atp653
sg202
((lp654
(lp655
g205
aa(lp656
g199
atp657
ssS'conceivable'
p658
(dp659
g4
((lp660
(lp661
g10
ag238
aa(lp662
g200
atp663
sg202
((lp664
(lp665
g205
aa(lp666
g200
atp667
ssS'evident'
p668
(dp669
g4
((lp670
(lp671
g10
ag238
aa(lp672
g199
atp673
sg202
((lp674
(lp675
g205
aa(lp676
g199
atp677
ssS'anxious'
p678
(dp679
g4
((lp680
(lp681
g10
ag238
aa(lp682
g89
ag109
ag162
aa(lp683
g324
aa(lp684
g200
ag200
ag199
atp685
ssS'obvious'
p686
(dp687
g4
((lp688
(lp689
g10
ag238
aa(lp690
g199
atp691
sg202
((lp692
(lp693
g205
aa(lp694
g199
atp695
ssS'crazy'
p696
(dp697
g4
((lp698
(lp699
g10
aa(lp700
g89
ag109
ag162
aa(lp701
g382
aa(lp702
g199
ag200
ag200
atp703
sg202
((lp704
(lp705
g205
aa(lp706
g199
atp707
ssS'false'
p708
(dp709
g4
((lp710
(lp711
g10
ag238
aa(lp712
S'COUNTER_FACTIVE'
p713
atp714
ssS'worthwhile'
p715
(dp716
g4
((lp717
(lp718
g89
ag109
ag162
aa(lp719
g200
atp720
ssS'certain'
p721
(dp722
g4
((lp723
(lp724
g10
aa(lp725
g199
atp726
ssS'sad'
p727
(dp728
g4
((lp729
(lp730
g10
aa(lp731
g89
ag109
ag162
aa(lp732
g382
aa(lp733
g199
ag200
ag200
atp734
ssS'urgent'
p735
(dp736
g4
((lp737
(lp738
g10
ag238
aa(lp739
g200
atp740
sg202
((lp741
(lp742
g205
aa(lp743
g200
atp744
ssS'likely'
p745
(dp746
g4
((lp747
(lp748
g89
ag109
ag162
ag10
ag238
aa(lp749
g200
atp750
sg202
((lp751
(lp752
g205
aa(lp753
g200
atp754
ssS'accused'
p755
(dp756
g4
((lp757
(lp758
g513
ag543
aa(lp759
g200
atp760
ssS'unlikely'
p761
(dp762
g4
((lp763
(lp764
g10
ag238
aa(lp765
g200
atp766
sg202
((lp767
(lp768
g205
aa(lp769
g200
atp770
ssS'odd'
p771
(dp772
g4
((lp773
(lp774
g10
aa(lp775
g89
ag109
ag162
aa(lp776
g382
aa(lp777
g199
ag200
ag200
atp778
sg202
((lp779
(lp780
g205
aa(lp781
g199
atp782
ssS'afraid'
p783
(dp784
g4
((lp785
(lp786
g89
ag109
ag162
aa(lp787
g10
aa(lp788
g513
aa(lp789
g543
aa(lp790
g200
ag200
ag199
ag200
atp791
ssS'probable'
p792
(dp793
g4
((lp794
(lp795
g10
ag238
aa(lp796
g200
atp797
sg202
((lp798
(lp799
g205
aa(lp800
g200
atp801
ssS'imminent'
p802
(dp803
g202
((lp804
(lp805
g205
aa(lp806
g200
atp807
ssS'able'
p808
(dp809
g4
((lp810
(lp811
g89
ag109
ag162
aa(lp812
g200
atp813
ssS'strange'
p814
(dp815
g4
((lp816
(lp817
g10
aa(lp818
g89
ag109
ag162
aa(lp819
g382
aa(lp820
g199
ag200
ag200
atp821
sg202
((lp822
(lp823
g205
aa(lp824
g199
atp825
ssS'unfortunate'
p826
(dp827
g4
((lp828
(lp829
g10
ag238
aa(lp830
g89
ag109
ag162
aa(lp831
g199
ag199
atp832
ssS'sure'
p833
(dp834
g4
((lp835
(lp836
g10
aa(lp837
g324
ag354
aa(lp838
g89
ag109
aa(lp839
g199
ag200
ag200
atp840
ssS'possible'
p841
(dp842
g4
((lp843
(lp844
g10
ag238
aa(lp845
g89
ag109
ag162
aa(lp846
g200
ag200
atp847
sg202
((lp848
(lp849
g205
aa(lp850
g200
atp851
ssS'willing'
p852
(dp853
g4
((lp854
(lp855
g89
ag109
ag162
aa(lp856
g200
atp857
ssS'important'
p858
(dp859
g4
((lp860
(lp861
g10
aa(lp862
g89
ag109
ag162
aa(lp863
g199
ag200
atp864
sg202
((lp865
(lp866
g205
aa(lp867
g199
atp868
ssS'significant'
p869
(dp870
g4
((lp871
(lp872
g10
aa(lp873
g199
ag200
atp874
sg202
((lp875
(lp876
g205
aa(lp877
g199
atp878
ssS'exciting'
p879
(dp880
g4
((lp881
(lp882
g10
aa(lp883
g89
ag109
ag162
aa(lp884
g382
aa(lp885
g199
ag200
ag200
atp886
sg202
((lp887
(lp888
g205
aa(lp889
g199
atp890
ssS'clear'
p891
(dp892
g4
((lp893
(lp894
g10
ag238
aa(lp895
g199
atp896
sg202
((lp897
(lp898
g205
aa(lp899
g199
atp900
ssS'proud'
p901
(dp902
g4
((lp903
(lp904
g543
ag513
aa(lp905
g7
(g8
g9
NtRp906
(dp907
g12
S'toClause1_PERFECTIVE'
p908
sg14
(lp909
I3
asg16
I1
sg17
Nsg18
S"[_{_'_p_o_s_'_:_ _[_'_R_B_'_,_ _'_R_B_R_'_,_ _'_R_B_S_'_,_ _'_R_P_'_,_ _'_J_J_R_'_]_}_,_ _'_?_'_,_ _'_(_'_,_ _{_'_t_e_n_s_e_'_:_ _'_I_N_F_I_N_I_T_I_V_E_'_,_ _'_e_v_e_n_t_S_t_a_t_u_s_'_:_ _'_1_'_,_ _'_a_s_p_e_c_t_'_:_ _'_P_E_R_F_E_C_T_I_V_E_'_}_,_ _'_|_'_,_ _{_'_t_e_x_t_'_:_ _'_t_o_'_,_ _'_p_o_s_'_:_ _'_T_O_'_}_,_ _{_'_p_o_s_'_:_ _'_U_H_'_}_,_ _'_?_'_,_ _{_'_e_v_e_n_t_S_t_a_t_u_s_'_:_ _'_1_'_,_ _'_a_s_p_e_c_t_'_:_ _'_P_E_R_F_E_C_T_I_V_E_'_}_,_ _'_)_'_]"
p910
sg20
I0
sg21
(lp911
I4
aI2
aI0
aI1
aI3
asg23
(dp912
sg25
I1
sg26
(lp913
(I0
I1
S"{'text': 'to', 'pos': 'TO'}"
p914
tp915
a(I0
I2
S"{'pos': ['RB', 'RBR', 'RBS', 'RP', 'JJR']}"
tp916
a(I0
I3
S"{'tense': 'INFINITIVE', 'eventStatus': '1', 'aspect': 'PERFECTIVE'}"
p917
tp918
a(I1
I3
S"{'eventStatus': '1', 'aspect': 'PERFECTIVE'}"
p919
tp920
a(I1
I4
S"{'pos': 'UH'}"
tp921
a(I2
I1
g914
tp922
a(I2
I3
g917
tp923
a(I4
I3
g919
tp924
asg86
I1
sg87
I1
sbag7
(g8
g9
NtRp925
(dp926
g12
S'toClause3_PERFECTIVE'
p927
sg14
(lp928
I6
asg16
I1
sg17
Nsg18
S"[_'_(_'_,_ _{_'_n_o_d_e_T_y_p_e_'_:_ _'_T_o_k_e_n_'_,_ _'_p_o_s_'_:_ _'_P_D_T_'_}_,_ _'_|_'_,_ _{_'_n_o_d_e_T_y_p_e_'_:_ _'_T_o_k_e_n_'_,_ _'_p_o_s_'_:_ _'_D_T_'_}_,_ _{_'_n_o_d_e_T_y_p_e_'_:_ _'_T_o_k_e_n_'_,_ _'_p_o_s_'_:_ _'_I_N_'_}_,_ _'_)_'_,_ _'_?_'_,_ _'_(_'_,_ _{_'_n_o_d_e_T_y_p_e_'_:_ _'_N_o_u_n_C_h_u_n_k_'_}_,_ _'_(_'_,_ _{_'_n_o_d_e_T_y_p_e_'_:_ _'_T_o_k_e_n_'_,_ _'_p_o_s_'_:_ _'_I_N_'_}_,_ _'_|_'_,_ _{_'_t_e_x_t_'_:_ _[_'_a_n_d_'_,_ _'_o_r_'_]_,_ _'_n_o_d_e_T_y_p_e_'_:_ _'_T_o_k_e_n_'_,_ _'_p_o_s_'_:_ _'_C_C_'_}_,_ _'_)_'_,_ _{_'_n_o_d_e_T_y_p_e_'_:_ _'_N_o_u_n_C_h_u_n_k_'_}_,_ _'_(_'_,_ _{_'_n_o_d_e_T_y_p_e_'_:_ _'_T_o_k_e_n_'_,_ _'_p_o_s_'_:_ _'_I_N_'_}_,_ _{_'_n_o_d_e_T_y_p_e_'_:_ _'_N_o_u_n_C_h_u_n_k_'_}_,_ _'_)_'_,_ _'_?_'_,_ _'_|_'_,_ _'_(_'_,_ _{_'_n_o_d_e_T_y_p_e_'_:_ _'_T_o_k_e_n_'_,_ _'_p_o_s_'_:_ _[_'_P_P_'_,_ _'_P_P_$_'_,_ _'_P_R_P_$_'_,_ _'_P_R_P_'_]_}_,_ _'_|_'_,_ _{_'_n_o_d_e_T_y_p_e_'_:_ _'_N_o_u_n_C_h_u_n_k_'_}_,_ _'_)_'_,_ _'_|_'_,_ _{_'_t_e_x_t_'_:_ _[_'_t_h_i_s_'_,_ _'_t_h_a_t_'_,_ _'_t_h_e_s_e_'_,_ _'_t_h_o_s_e_'_]_,_ _'_n_o_d_e_T_y_p_e_'_:_ _'_T_o_k_e_n_'_}_,_ _'_|_'_,_ _{_'_n_o_d_e_T_y_p_e_'_:_ _'_T_o_k_e_n_'_,_ _'_p_o_s_'_:_ _'_D_T_'_}_,_ _'_(_'_,_ _{_'_n_o_d_e_T_y_p_e_'_:_ _'_T_o_k_e_n_'_,_ _'_p_o_s_'_:_ _[_'_J_J_'_,_ _'_J_J_R_'_,_ _'_J_J_S_'_]_}_,_ _'_|_'_,_ _{_'_p_o_s_'_:_ _'_S_Y_M_'_}_,_ _'_)_'_,_ _'_*_'_,_ _{_'_n_o_d_e_T_y_p_e_'_:_ _'_T_o_k_e_n_'_,_ _'_p_o_s_'_:_ _'_C_D_'_}_,_ _'_*_'_,_ _'_(_'_,_ _{_'_n_o_d_e_T_y_p_e_'_:_ _'_N_o_u_n_C_h_u_n_k_'_}_,_ _'_|_'_,_ _{_'_n_o_d_e_T_y_p_e_'_:_ _'_N_o_u_n_C_h_u_n_k_'_}_,_ _'_(_'_,_ _{_'_n_o_d_e_T_y_p_e_'_:_ _'_T_o_k_e_n_'_,_ _'_p_o_s_'_:_ _'_I_N_'_}_,_ _'_|_'_,_ _{_'_t_e_x_t_'_:_ _[_'_a_n_d_'_,_ _'_o_r_'_]_,_ _'_n_o_d_e_T_y_p_e_'_:_ _'_T_o_k_e_n_'_,_ _'_p_o_s_'_:_ _'_C_C_'_}_,_ _'_)_'_,_ _{_'_n_o_d_e_T_y_p_e_'_:_ _'_N_o_u_n_C_h_u_n_k_'_}_,_ _'_)_'_,_ _'_)_'_,_ _'_(_'_,_ _{_'_t_e_n_s_e_'_:_ _'_I_N_F_I_N_I_T_I_V_E_'_,_ _'_e_v_e_n_t_S_t_a_t_u_s_'_:_ _'_1_'_,_ _'_a_s_p_e_c_t_'_:_ _'_P_E_R_F_E_C_T_I_V_E_'_}_,_ _'_|_'_,_ _{_'_t_e_x_t_'_:_ _'_t_o_'_,_ _'_p_o_s_'_:_ _'_T_O_'_}_,_ _{_'_p_o_s_'_:_ _'_U_H_'_}_,_ _'_?_'_,_ _{_'_e_v_e_n_t_S_t_a_t_u_s_'_:_ _'_1_'_,_ _'_a_s_p_e_c_t_'_:_ _'_P_E_R_F_E_C_T_I_V_E_'_}_,_ _'_)_'_]"
p929
sg20
I0
sg21
(lp930
I7
aI0
aI1
aI11
aI13
aI4
aI10
aI8
aI5
aI2
aI3
aI6
aI9
aI12
asg23
(dp931
sg25
I1
sg26
(lp932
(I0
I1
S"{'nodeType': 'Token', 'pos': ['PP', 'PP$', 'PRP$', 'PRP']}"
tp933
a(I0
I1
S"{'text': ['this', 'that', 'these', 'those'], 'nodeType': 'Token'}"
tp934
a(I0
I2
S"{'nodeType': 'NounChunk'}"
p935
tp936
a(I0
I3
S"{'nodeType': 'Token', 'pos': 'PDT'}"
tp937
a(I0
I4
S"{'nodeType': 'Token', 'pos': 'DT'}"
tp938
a(I1
I5
S"{'text': 'to', 'pos': 'TO'}"
p939
tp940
a(I1
I6
S"{'tense': 'INFINITIVE', 'eventStatus': '1', 'aspect': 'PERFECTIVE'}"
p941
tp942
a(I2
I7
S"{'nodeType': 'Token', 'pos': 'IN'}"
tp943
a(I2
I7
S"{'text': ['and', 'or'], 'nodeType': 'Token', 'pos': 'CC'}"
tp944
a(I2
I5
g939
tp945
a(I2
I6
g941
tp946
a(I3
I2
g935
tp947
a(I3
I1
S"{'nodeType': 'Token', 'pos': ['PP', 'PP$', 'PRP$', 'PRP']}"
tp948
a(I3
I1
S"{'text': ['this', 'that', 'these', 'those'], 'nodeType': 'Token'}"
tp949
a(I3
I8
S"{'nodeType': 'Token', 'pos': 'DT'}"
tp950
a(I4
I3
S"{'nodeType': 'Token', 'pos': 'IN'}"
tp951
a(I4
I9
S"{'nodeType': 'NounChunk'}"
p952
tp953
a(I4
I8
S"{'nodeType': 'Token', 'pos': ['JJ', 'JJR', 'JJS']}"
tp954
a(I4
I8
S"{'pos': 'SYM'}"
tp955
a(I4
I10
S"{'nodeType': 'Token', 'pos': 'CD'}"
p956
tp957
a(I5
I6
S"{'eventStatus': '1', 'aspect': 'PERFECTIVE'}"
p958
tp959
a(I5
I11
S"{'pos': 'UH'}"
tp960
a(I7
I12
S"{'nodeType': 'NounChunk'}"
tp961
a(I8
I9
g952
tp962
a(I8
I8
S"{'nodeType': 'Token', 'pos': ['JJ', 'JJR', 'JJS']}"
tp963
a(I8
I8
S"{'pos': 'SYM'}"
tp964
a(I8
I10
g956
tp965
a(I9
I13
S"{'nodeType': 'Token', 'pos': 'IN'}"
tp966
a(I9
I13
S"{'text': ['and', 'or'], 'nodeType': 'Token', 'pos': 'CC'}"
tp967
a(I9
I5
g939
tp968
a(I9
I6
g941
tp969
a(I10
I9
g952
tp970
a(I10
I10
S"{'nodeType': 'Token', 'pos': 'CD'}"
tp971
a(I11
I6
g958
tp972
a(I12
I13
S"{'nodeType': 'Token', 'pos': 'IN'}"
tp973
a(I12
I5
g939
tp974
a(I12
I6
g941
tp975
a(I13
I1
S"{'nodeType': 'NounChunk'}"
tp976
asg86
I1
sg87
I1
sbag7
(g8
g9
NtRp977
(dp978
g12
S'toClause5_PERFECTIVE'
p979
sg14
(lp980
I8
asg16
I1
sg17
Nsg18
S"[_{_'_n_o_d_e_T_y_p_e_'_:_ _'_T_o_k_e_n_'_,_ _'_p_o_s_'_:_ _'_I_N_'_}_,_ _{_'_n_o_d_e_T_y_p_e_'_:_ _'_T_o_k_e_n_'_,_ _'_p_o_s_'_:_ _'_P_D_T_'_}_,_ _'_?_'_,_ _{_'_n_o_d_e_T_y_p_e_'_:_ _'_N_o_u_n_C_h_u_n_k_'_}_,_ _{_'_n_o_d_e_T_y_p_e_'_:_ _'_T_o_k_e_n_'_,_ _'_p_o_s_'_:_ _'_I_N_'_}_,_ _'_?_'_,_ _{_'_n_o_d_e_T_y_p_e_'_:_ _'_T_o_k_e_n_'_,_ _'_p_o_s_'_:_ _'_P_D_T_'_}_,_ _'_?_'_,_ _{_'_n_o_d_e_T_y_p_e_'_:_ _'_N_o_u_n_C_h_u_n_k_'_}_,_ _'_?_'_,_ _'_(_'_,_ _{_'_t_e_n_s_e_'_:_ _'_I_N_F_I_N_I_T_I_V_E_'_,_ _'_e_v_e_n_t_S_t_a_t_u_s_'_:_ _'_1_'_,_ _'_a_s_p_e_c_t_'_:_ _'_P_E_R_F_E_C_T_I_V_E_'_}_,_ _'_|_'_,_ _{_'_t_e_x_t_'_:_ _'_t_o_'_,_ _'_p_o_s_'_:_ _'_T_O_'_}_,_ _{_'_p_o_s_'_:_ _'_U_H_'_}_,_ _'_?_'_,_ _{_'_e_v_e_n_t_S_t_a_t_u_s_'_:_ _'_1_'_,_ _'_a_s_p_e_c_t_'_:_ _'_P_E_R_F_E_C_T_I_V_E_'_}_,_ _'_)_'_]"
p981
sg20
I0
sg21
(lp982
I0
aI9
aI1
aI2
aI3
aI4
aI5
aI6
aI8
aI7
asg23
(dp983
sg25
I1
sg26
(lp984
(I0
I1
S"{'nodeType': 'Token', 'pos': 'IN'}"
tp985
a(I1
I2
S"{'nodeType': 'NounChunk'}"
p986
tp987
a(I1
I3
S"{'nodeType': 'Token', 'pos': 'PDT'}"
tp988
a(I2
I4
S"{'nodeType': 'Token', 'pos': 'IN'}"
tp989
a(I2
I5
S"{'nodeType': 'NounChunk'}"
p990
tp991
a(I2
I6
S"{'nodeType': 'Token', 'pos': 'PDT'}"
p992
tp993
a(I2
I7
S"{'text': 'to', 'pos': 'TO'}"
p994
tp995
a(I2
I8
S"{'tense': 'INFINITIVE', 'eventStatus': '1', 'aspect': 'PERFECTIVE'}"
p996
tp997
a(I3
I2
g986
tp998
a(I4
I5
g990
tp999
a(I4
I7
g994
tp1000
a(I4
I6
g992
tp1001
a(I4
I8
g996
tp1002
a(I5
I7
g994
tp1003
a(I5
I8
g996
tp1004
a(I6
I5
g990
tp1005
a(I6
I7
g994
tp1006
a(I6
I8
g996
tp1007
a(I7
I8
S"{'eventStatus': '1', 'aspect': 'PERFECTIVE'}"
p1008
tp1009
a(I7
I9
S"{'pos': 'UH'}"
tp1010
a(I9
I8
g1008
tp1011
asg86
I1
sg87
I1
sbaa(lp1012
g89
ag109
ag162
aa(lp1013
g199
ag199
ag200
atp1014
ssS'interesting'
p1015
(dp1016
g4
((lp1017
(lp1018
g10
aa(lp1019
g89
ag109
ag162
aa(lp1020
g382
aa(lp1021
g199
ag200
ag200
atp1022
sg202
((lp1023
(lp1024
g205
aa(lp1025
g199
atp1026
ss.