(dp1
S'certification'
p2
(dp3
S'forward'
p4
((lp5
(lp6
(iutilities.FSA
FSA
p7
(dp8
S'fsaname'
p9
S'thatClause_that'
p10
sS'finalStates'
p11
(lp12
I6
asS'_isTrimmed'
p13
I1
sS'alphabet'
p14
NsS'label'
p15
S'[_\'_(_\'_,_ _{_\'_t_e_x_t_\'_:_ _[_\'_t_h_a_t_\'_,_ _\'_i_f_\'_,_ _\'_w_h_e_t_h_e_r_\'_]_,_ _\'_n_o_d_e_T_y_p_e_\'_:_ _\'_T_o_k_e_n_\'_,_ _\'_p_o_s_\'_:_ _\'_I_N_\'_}_,_ _\'_|_\'_,_ _\'_(_\'_,_ _{_\'_n_o_d_e_T_y_p_e_\'_:_ _\'_N_o_u_n_C_h_u_n_k_\'_}_,_ _\'_|_\'_,_ _{_\'_n_o_d_e_T_y_p_e_\'_:_ _\'_T_o_k_e_n_\'_,_ _\'_p_o_s_\'_:_ _\'_I_N_\'_}_,_ _\'_|_\'_,_ _{_\'_n_o_d_e_T_y_p_e_\'_:_ _\'_T_o_k_e_n_\'_,_ _\'_p_o_s_\'_:_ _[_\'_J_J_\'_,_ _\'_J_J_R_\'_,_ _\'_J_J_S_\'_,_ _\'_D_T_\'_,_ _\'_P_D_T_\'_,_ _\'_P_O_S_\'_,_ _\'_C_D_\'_,_ _\'_S_Y_M_\'_]_}_,_ _\'_|_\'_,_ _{_\'_t_e_x_t_\'_:_ _[_\'_"_\'_,_ _\'_`_`_\'_,_ _"_\'_\'_"_]_}_,_ _\'_)_\'_,_ _\'_+_\'_,_ _{_\'_t_e_x_t_\'_:_ _[_\'_t_h_a_t_\'_,_ _\'_i_f_\'_,_ _\'_w_h_e_t_h_e_r_\'_]_,_ _\'_n_o_d_e_T_y_p_e_\'_:_ _\'_T_o_k_e_n_\'_,_ _\'_p_o_s_\'_:_ _\'_I_N_\'_}_,_ _\'_|_\'_,_ _{_\'_t_e_x_t_\'_:_ _(_\'_^_\'_,_ _[_\'_,_\'_]_)_}_,_ _\'_?_\'_,_ _{_\'_t_e_x_t_\'_:_ _(_\'_^_\'_,_ _[_\'_;_\'_,_ _\'_._\'_,_ _\'_!_\'_,_ _\'_?_\'_,_ _\'_._._._\'_,_ _\'_"_\'_,_ _\'_`_`_\'_]_)_,_ _\'_p_o_s_\'_:_ _(_\'_^_\'_,_ _[_\'_W_P_\'_,_ _\'_W_D_T_\'_,_ _\'_W_R_B_\'_,_ _\'_"_\'_,_ _"_\'_\'_"_,_ _\'_`_`_\'_]_)_}_,_ _\'_?_\'_,_ _{_\'_t_e_x_t_\'_:_ _(_\'_^_\'_,_ _[_\'_;_\'_,_ _\'_._\'_,_ _\'_!_\'_,_ _\'_?_\'_,_ _\'_._._._\'_,_ _\'_"_\'_,_ _\'_`_`_\'_]_)_,_ _\'_p_o_s_\'_:_ _(_\'_^_\'_,_ _[_\'_W_P_\'_,_ _\'_W_D_T_\'_,_ _\'_W_R_B_\'_,_ _\'_"_\'_,_ _"_\'_\'_"_,_ _\'_`_`_\'_]_)_}_,_ _\'_?_\'_,_ _{_\'_t_e_x_t_\'_:_ _[_\'_t_h_a_t_\'_,_ _\'_i_f_\'_,_ _\'_w_h_e_t_h_e_r_\'_]_,_ _\'_n_o_d_e_T_y_p_e_\'_:_ _\'_T_o_k_e_n_\'_,_ _\'_p_o_s_\'_:_ _\'_I_N_\'_}_,_ _\'_|_\'_,_ _{_\'_t_e_x_t_\'_:_ _\'_,_\'_}_,_ _{_\'_t_e_x_t_\'_:_ _[_\'_t_h_a_t_\'_,_ _\'_i_f_\'_,_ _\'_w_h_e_t_h_e_r_\'_]_,_ _\'_n_o_d_e_T_y_p_e_\'_:_ _\'_T_o_k_e_n_\'_,_ _\'_p_o_s_\'_:_ _\'_I_N_\'_}_,_ _\'_)_\'_,_ _{_\'_t_e_x_t_\'_:_ _(_\'_^_\'_,_ _[_\'_;_\'_,_ _\'_._\'_,_ _\'_!_\'_,_ _\'_?_\'_,_ _\'_._._._\'_,_ _\'_"_\'_,_ _\'_`_`_\'_]_)_,_ _\'_p_o_s_\'_:_ _(_\'_^_\'_,_ _[_\'_W_P_\'_,_ _\'_W_D_T_\'_,_ _\'_W_R_B_\'_,_ _\'_"_\'_,_ _"_\'_\'_"_,_ _\'_`_`_\'_]_)_}_,_ _\'_?_\'_,_ _\'_(_\'_,_ _\'_(_\'_,_ _{_\'_n_o_d_e_T_y_p_e_\'_:_ _\'_N_o_u_n_C_h_u_n_k_\'_}_,_ _\'_|_\'_,_ _{_\'_n_o_d_e_T_y_p_e_\'_:_ _\'_T_o_k_e_n_\'_,_ _\'_p_o_s_\'_:_ _\'_I_N_\'_}_,_ _\'_|_\'_,_ _{_\'_n_o_d_e_T_y_p_e_\'_:_ _\'_T_o_k_e_n_\'_,_ _\'_p_o_s_\'_:_ _[_\'_J_J_\'_,_ _\'_J_J_R_\'_,_ _\'_J_J_S_\'_,_ _\'_D_T_\'_,_ _\'_P_D_T_\'_,_ _\'_P_O_S_\'_,_ _\'_C_D_\'_,_ _\'_S_Y_M_\'_]_}_,_ _\'_)_\'_,_ _\'_+_\'_,_ _\'_(_\'_,_ _{_\'_t_e_n_s_e_\'_:_ _[_\'_P_A_S_T_\'_,_ _\'_P_R_E_S_E_N_T_\'_,_ _\'_F_U_T_U_R_E_\'_]_,_ _\'_n_o_d_e_T_y_p_e_\'_:_ _[_\'_C_h_u_n_k_\'_,_ _\'_N_o_u_n_C_h_u_n_k_\'_,_ _\'_V_e_r_b_C_h_u_n_k_\'_,_ _\'_A_d_j_e_c_t_i_v_e_T_o_k_e_n_\'_]_}_,_ _\'_|_\'_,_ _{_\'_n_o_d_e_T_y_p_e_\'_:_ _[_\'_C_h_u_n_k_\'_,_ _\'_N_o_u_n_C_h_u_n_k_\'_,_ _\'_V_e_r_b_C_h_u_n_k_\'_,_ _\'_A_d_j_e_c_t_i_v_e_T_o_k_e_n_\'_]_,_ _\'_m_o_d_a_l_i_t_y_\'_:_ _[_\'_m_a_y_\'_,_ _\'_c_a_n_\'_,_ _\'_m_u_s_t_\'_,_ _\'_m_i_g_h_t_\'_,_ _\'_c_o_u_l_d_\'_,_ _\'_s_h_o_u_l_d_\'_,_ _\'_w_o_u_l_d_\'_,_ _\'_o_u_g_h_t_\'_,_ _\'_h_a_v_e_ _t_o_\'_]_}_,_ _\'_)_\'_,_ _\'_|_\'_,_ _{_\'_t_e_x_t_\'_:_ _(_\'_^_\'_,_ _[_\'_;_\'_,_ _\'_._\'_,_ _\'_!_\'_,_ _\'_?_\'_,_ _\'_._._._\'_,_ _\'_"_\'_,_ _\'_`_`_\'_]_)_,_ _\'_p_o_s_\'_:_ _(_\'_^_\'_,_ _[_\'_W_P_\'_,_ _\'_W_D_T_\'_,_ _\'_W_R_B_\'_,_ _\'_"_\'_,_ _"_\'_\'_"_,_ _\'_`_`_\'_]_)_}_,_ _\'_?_\'_,_ _{_\'_t_e_x_t_\'_:_ _(_\'_^_\'_,_ _[_\'_;_\'_,_ _\'_._\'_,_ _\'_!_\'_,_ _\'_?_\'_,_ _\'_._._._\'_,_ _\'_"_\'_,_ _\'_`_`_\'_]_)_,_ _\'_p_o_s_\'_:_ _(_\'_^_\'_,_ _[_\'_W_P_\'_,_ _\'_W_D_T_\'_,_ _\'_W_R_B_\'_,_ _\'_"_\'_,_ _"_\'_\'_"_,_ _\'_`_`_\'_]_)_}_,_ _\'_?_\'_,_ _{_\'_t_e_x_t_\'_:_ _(_\'_^_\'_,_ _[_\'_;_\'_,_ _\'_._\'_,_ _\'_!_\'_,_ _\'_?_\'_,_ _\'_._._._\'_,_ _\'_"_\'_,_ _\'_`_`_\'_]_)_,_ _\'_p_o_s_\'_:_ _(_\'_^_\'_,_ _[_\'_W_P_\'_,_ _\'_W_D_T_\'_,_ _\'_W_R_B_\'_,_ _\'_"_\'_,_ _"_\'_\'_"_,_ _\'_`_`_\'_]_)_}_,_ _\'_?_\'_,_ _{_\'_t_e_x_t_\'_:_ _(_\'_^_\'_,_ _[_\'_;_\'_,_ _\'_._\'_,_ _\'_!_\'_,_ _\'_?_\'_,_ _\'_._._._\'_,_ _\'_"_\'_,_ _\'_`_`_\'_]_)_,_ _\'_p_o_s_\'_:_ _(_\'_^_\'_,_ _[_\'_W_P_\'_,_ _\'_W_D_T_\'_,_ _\'_W_R_B_\'_,_ _\'_"_\'_,_ _"_\'_\'_"_,_ _\'_`_`_\'_]_)_}_,_ _\'_?_\'_,_ _{_\'_t_e_x_t_\'_:_ _(_\'_^_\'_,_ _[_\'_;_\'_,_ _\'_._\'_,_ _\'_!_\'_,_ _\'_?_\'_,_ _\'_._._._\'_,_ _\'_"_\'_,_ _\'_`_`_\'_]_)_,_ _\'_p_o_s_\'_:_ _(_\'_^_\'_,_ _[_\'_W_P_\'_,_ _\'_W_D_T_\'_,_ _\'_W_R_B_\'_,_ _\'_"_\'_,_ _"_\'_\'_"_,_ _\'_`_`_\'_]_)_}_,_ _\'_?_\'_,_ _\'_(_\'_,_ _{_\'_t_e_n_s_e_\'_:_ _[_\'_P_A_S_T_\'_,_ _\'_P_R_E_S_E_N_T_\'_,_ _\'_F_U_T_U_R_E_\'_]_,_ _\'_n_o_d_e_T_y_p_e_\'_:_ _[_\'_C_h_u_n_k_\'_,_ _\'_N_o_u_n_C_h_u_n_k_\'_,_ _\'_V_e_r_b_C_h_u_n_k_\'_,_ _\'_A_d_j_e_c_t_i_v_e_T_o_k_e_n_\'_]_}_,_ _\'_|_\'_,_ _{_\'_n_o_d_e_T_y_p_e_\'_:_ _[_\'_C_h_u_n_k_\'_,_ _\'_N_o_u_n_C_h_u_n_k_\'_,_ _\'_V_e_r_b_C_h_u_n_k_\'_,_ _\'_A_d_j_e_c_t_i_v_e_T_o_k_e_n_\'_]_,_ _\'_m_o_d_a_l_i_t_y_\'_:_ _[_\'_m_a_y_\'_,_ _\'_c_a_n_\'_,_ _\'_m_u_s_t_\'_,_ _\'_m_i_g_h_t_\'_,_ _\'_c_o_u_l_d_\'_,_ _\'_s_h_o_u_l_d_\'_,_ _\'_w_o_u_l_d_\'_,_ _\'_o_u_g_h_t_\'_,_ _\'_h_a_v_e_ _t_o_\'_]_}_,_ _\'_)_\'_,_ _\'_|_\'_,_ _{_\'_t_e_x_t_\'_:_ _[_\'_i_s_\'_,_ _\'_w_a_s_\'_,_ _\'_w_e_r_e_\'_,_ _\'_a_m_\'_,_ _\'_b_e_\'_,_ _"_\'_s_"_,_ _\'_a_r_e_\'_,_ _"_\'_r_e_"_,_ _"_\'_m_"_,_ _\'_b_e_e_n_\'_,_ _\'_b_e_i_n_g_\'_]_,_ _\'_n_o_d_e_T_y_p_e_\'_:_ _\'_V_e_r_b_C_h_u_n_k_\'_}_,_ _{_\'_n_o_d_e_T_y_p_e_\'_:_ _\'_T_o_k_e_n_\'_,_ _\'_p_o_s_\'_:_ _\'_I_N_\'_}_,_ _\'_?_\'_,_ _{_\'_n_o_d_e_T_y_p_e_\'_:_ _\'_N_o_u_n_C_h_u_n_k_\'_,_ _\'_e_v_e_n_t_S_t_a_t_u_s_\'_:_ _\'_1_\'_}_,_ _\'_)_\'_]'
p16
sS'initialState'
p17
I0
sS'states'
p18
(lp19
I14
aI0
aI2
aI1
aI10
aI12
aI9
aI8
aI6
aI7
aI3
aI4
aI13
aI5
aI15
aI11
asS'_arcMetadata'
p20
(dp21
sS'_isSorted'
p22
I1
sS'transitions'
p23
(lp24
(I0
I1
S'{\'text\': (\'^\', [\';\', \'.\', \'!\', \'?\', \'...\', \'"\', \'``\']), \'pos\': (\'^\', [\'WP\', \'WDT\', \'WRB\', \'"\', "\'\'", \'``\'])}'
p25
tp26
a(I0
I2
S"{'nodeType': 'NounChunk'}"
tp27
a(I0
I2
S"{'nodeType': 'Token', 'pos': 'IN'}"
tp28
a(I0
I2
S"{'nodeType': 'Token', 'pos': ['JJ', 'JJR', 'JJS', 'DT', 'PDT', 'POS', 'CD', 'SYM']}"
tp29
a(I0
I2
S'{\'text\': [\'"\', \'``\', "\'\'"]}'
tp30
a(I0
I3
S"{'text': ('^', [','])}"
tp31
a(I0
I4
S"{'text': ','}"
tp32
a(I0
I5
S"{'text': ['that', 'if', 'whether'], 'nodeType': 'Token', 'pos': 'IN'}"
tp33
a(I1
I5
S"{'text': ['that', 'if', 'whether'], 'nodeType': 'Token', 'pos': 'IN'}"
p34
tp35
a(I1
I4
S'{\'text\': (\'^\', [\';\', \'.\', \'!\', \'?\', \'...\', \'"\', \'``\']), \'pos\': (\'^\', [\'WP\', \'WDT\', \'WRB\', \'"\', "\'\'", \'``\'])}'
tp36
a(I2
I2
S"{'nodeType': 'NounChunk'}"
tp37
a(I2
I2
S"{'nodeType': 'Token', 'pos': 'IN'}"
tp38
a(I2
I2
S"{'nodeType': 'Token', 'pos': ['JJ', 'JJR', 'JJS', 'DT', 'PDT', 'POS', 'CD', 'SYM']}"
tp39
a(I2
I2
S'{\'text\': [\'"\', \'``\', "\'\'"]}'
tp40
a(I2
I5
S"{'text': ['that', 'if', 'whether'], 'nodeType': 'Token', 'pos': 'IN'}"
tp41
a(I3
I5
g34
tp42
a(I3
I1
g25
tp43
a(I4
I5
S"{'text': ['that', 'if', 'whether'], 'nodeType': 'Token', 'pos': 'IN'}"
tp44
a(I5
I6
S"{'nodeType': ['Chunk', 'NounChunk', 'VerbChunk', 'AdjectiveToken'], 'modality': ['may', 'can', 'must', 'might', 'could', 'should', 'would', 'ought', 'have to']}"
tp45
a(I5
I6
S"{'tense': ['PAST', 'PRESENT', 'FUTURE'], 'nodeType': ['Chunk', 'NounChunk', 'VerbChunk', 'AdjectiveToken']}"
tp46
a(I5
I7
S'{\'text\': (\'^\', [\';\', \'.\', \'!\', \'?\', \'...\', \'"\', \'``\']), \'pos\': (\'^\', [\'WP\', \'WDT\', \'WRB\', \'"\', "\'\'", \'``\'])}'
tp47
a(I5
I8
S"{'nodeType': 'NounChunk'}"
tp48
a(I5
I8
S"{'nodeType': 'Token', 'pos': 'IN'}"
tp49
a(I5
I8
S"{'nodeType': 'Token', 'pos': ['JJ', 'JJR', 'JJS', 'DT', 'PDT', 'POS', 'CD', 'SYM']}"
tp50
a(I5
I9
S'{\'text\': [\'is\', \'was\', \'were\', \'am\', \'be\', "\'s", \'are\', "\'re", "\'m", \'been\', \'being\'], \'nodeType\': \'VerbChunk\'}'
p51
tp52
a(I7
I6
S"{'nodeType': ['Chunk', 'NounChunk', 'VerbChunk', 'AdjectiveToken'], 'modality': ['may', 'can', 'must', 'might', 'could', 'should', 'would', 'ought', 'have to']}"
tp53
a(I7
I6
S"{'tense': ['PAST', 'PRESENT', 'FUTURE'], 'nodeType': ['Chunk', 'NounChunk', 'VerbChunk', 'AdjectiveToken']}"
tp54
a(I7
I10
S'{\'text\': (\'^\', [\';\', \'.\', \'!\', \'?\', \'...\', \'"\', \'``\']), \'pos\': (\'^\', [\'WP\', \'WDT\', \'WRB\', \'"\', "\'\'", \'``\'])}'
tp55
a(I7
I8
S"{'nodeType': 'NounChunk'}"
tp56
a(I7
I8
S"{'nodeType': 'Token', 'pos': 'IN'}"
tp57
a(I7
I8
S"{'nodeType': 'Token', 'pos': ['JJ', 'JJR', 'JJS', 'DT', 'PDT', 'POS', 'CD', 'SYM']}"
tp58
a(I7
I9
g51
tp59
a(I8
I6
S"{'nodeType': ['Chunk', 'NounChunk', 'VerbChunk', 'AdjectiveToken'], 'modality': ['may', 'can', 'must', 'might', 'could', 'should', 'would', 'ought', 'have to']}"
tp60
a(I8
I6
S"{'tense': ['PAST', 'PRESENT', 'FUTURE'], 'nodeType': ['Chunk', 'NounChunk', 'VerbChunk', 'AdjectiveToken']}"
tp61
a(I8
I8
S"{'nodeType': 'NounChunk'}"
tp62
a(I8
I8
S"{'nodeType': 'Token', 'pos': 'IN'}"
tp63
a(I8
I8
S"{'nodeType': 'Token', 'pos': ['JJ', 'JJR', 'JJS', 'DT', 'PDT', 'POS', 'CD', 'SYM']}"
tp64
a(I9
I11
S"{'nodeType': 'Token', 'pos': 'IN'}"
tp65
a(I9
I6
S"{'nodeType': 'NounChunk', 'eventStatus': '1'}"
p66
tp67
a(I10
I6
S"{'nodeType': ['Chunk', 'NounChunk', 'VerbChunk', 'AdjectiveToken'], 'modality': ['may', 'can', 'must', 'might', 'could', 'should', 'would', 'ought', 'have to']}"
tp68
a(I10
I6
S"{'tense': ['PAST', 'PRESENT', 'FUTURE'], 'nodeType': ['Chunk', 'NounChunk', 'VerbChunk', 'AdjectiveToken']}"
tp69
a(I10
I12
S'{\'text\': (\'^\', [\';\', \'.\', \'!\', \'?\', \'...\', \'"\', \'``\']), \'pos\': (\'^\', [\'WP\', \'WDT\', \'WRB\', \'"\', "\'\'", \'``\'])}'
tp70
a(I11
I6
g66
tp71
a(I12
I6
S"{'nodeType': ['Chunk', 'NounChunk', 'VerbChunk', 'AdjectiveToken'], 'modality': ['may', 'can', 'must', 'might', 'could', 'should', 'would', 'ought', 'have to']}"
tp72
a(I12
I6
S"{'tense': ['PAST', 'PRESENT', 'FUTURE'], 'nodeType': ['Chunk', 'NounChunk', 'VerbChunk', 'AdjectiveToken']}"
tp73
a(I12
I13
S'{\'text\': (\'^\', [\';\', \'.\', \'!\', \'?\', \'...\', \'"\', \'``\']), \'pos\': (\'^\', [\'WP\', \'WDT\', \'WRB\', \'"\', "\'\'", \'``\'])}'
tp74
a(I13
I6
S"{'nodeType': ['Chunk', 'NounChunk', 'VerbChunk', 'AdjectiveToken'], 'modality': ['may', 'can', 'must', 'might', 'could', 'should', 'would', 'ought', 'have to']}"
tp75
a(I13
I6
S"{'tense': ['PAST', 'PRESENT', 'FUTURE'], 'nodeType': ['Chunk', 'NounChunk', 'VerbChunk', 'AdjectiveToken']}"
tp76
a(I13
I14
S'{\'text\': (\'^\', [\';\', \'.\', \'!\', \'?\', \'...\', \'"\', \'``\']), \'pos\': (\'^\', [\'WP\', \'WDT\', \'WRB\', \'"\', "\'\'", \'``\'])}'
tp77
a(I14
I6
S"{'nodeType': ['Chunk', 'NounChunk', 'VerbChunk', 'AdjectiveToken'], 'modality': ['may', 'can', 'must', 'might', 'could', 'should', 'would', 'ought', 'have to']}"
tp78
a(I14
I6
S"{'tense': ['PAST', 'PRESENT', 'FUTURE'], 'nodeType': ['Chunk', 'NounChunk', 'VerbChunk', 'AdjectiveToken']}"
tp79
a(I14
I15
S'{\'text\': (\'^\', [\';\', \'.\', \'!\', \'?\', \'...\', \'"\', \'``\']), \'pos\': (\'^\', [\'WP\', \'WDT\', \'WRB\', \'"\', "\'\'", \'``\'])}'
tp80
a(I15
I6
S"{'nodeType': ['Chunk', 'NounChunk', 'VerbChunk', 'AdjectiveToken'], 'modality': ['may', 'can', 'must', 'might', 'could', 'should', 'would', 'ought', 'have to']}"
tp81
a(I15
I6
S"{'tense': ['PAST', 'PRESENT', 'FUTURE'], 'nodeType': ['Chunk', 'NounChunk', 'VerbChunk', 'AdjectiveToken']}"
tp82
asS'_isDeterminized'
p83
I1
sS'_isMinimized'
p84
I1
sbaa(lp85
(iutilities.FSA
FSA
p86
(dp87
g9
S'of_NPev'
p88
sg11
(lp89
I4
asg13
I1
sg14
Nsg15
S"[_{_'_n_o_d_e_T_y_p_e_'_:_ _'_T_o_k_e_n_'_,_ _'_p_o_s_'_:_ _'_P_D_T_'_}_,_ _'_?_'_,_ _{_'_n_o_d_e_T_y_p_e_'_:_ _'_N_o_u_n_C_h_u_n_k_'_}_,_ _'_?_'_,_ _{_'_t_e_x_t_'_:_ _'_o_f_'_}_,_ _{_'_n_o_d_e_T_y_p_e_'_:_ _'_T_o_k_e_n_'_,_ _'_p_o_s_'_:_ _'_P_D_T_'_}_,_ _'_?_'_,_ _'_(_'_,_ _{_'_n_o_d_e_T_y_p_e_'_:_ _'_N_o_u_n_C_h_u_n_k_'_,_ _'_e_v_e_n_t_S_t_a_t_u_s_'_:_ _'_1_'_}_,_ _'_|_'_,_ _{_'_n_o_d_e_T_y_p_e_'_:_ _'_T_o_k_e_n_'_,_ _'_p_o_s_'_:_ _'_D_T_'_}_,_ _'_(_'_,_ _{_'_n_o_d_e_T_y_p_e_'_:_ _'_T_o_k_e_n_'_,_ _'_p_o_s_'_:_ _[_'_J_J_'_,_ _'_J_J_R_'_,_ _'_J_J_S_'_]_}_,_ _'_|_'_,_ _{_'_n_o_d_e_T_y_p_e_'_:_ _'_V_e_r_b_C_h_u_n_k_'_,_ _'_p_o_s_'_:_ _[_'_V_G_B_'_,_ _'_V_B_N_'_]_}_,_ _'_|_'_,_ _{_'_p_o_s_'_:_ _'_S_Y_M_'_}_,_ _'_)_'_,_ _'_*_'_,_ _{_'_n_o_d_e_T_y_p_e_'_:_ _'_T_o_k_e_n_'_,_ _'_p_o_s_'_:_ _'_C_D_'_}_,_ _'_*_'_,_ _{_'_n_o_d_e_T_y_p_e_'_:_ _'_N_o_u_n_C_h_u_n_k_'_}_,_ _'_)_'_]"
p90
sg17
I0
sg18
(lp91
I7
aI0
aI1
aI2
aI3
aI4
aI5
aI6
asg20
(dp92
sg22
I1
sg23
(lp93
(I0
I1
S"{'nodeType': 'NounChunk'}"
p94
tp95
a(I0
I2
S"{'nodeType': 'Token', 'pos': 'PDT'}"
tp96
a(I0
I3
S"{'text': 'of'}"
p97
tp98
a(I1
I3
g97
tp99
a(I2
I1
g94
tp100
a(I2
I3
g97
tp101
a(I3
I4
S"{'nodeType': 'NounChunk', 'eventStatus': '1'}"
p102
tp103
a(I3
I5
S"{'nodeType': 'Token', 'pos': 'PDT'}"
tp104
a(I3
I6
S"{'nodeType': 'Token', 'pos': 'DT'}"
p105
tp106
a(I5
I4
g102
tp107
a(I5
I6
g105
tp108
a(I6
I4
S"{'nodeType': 'NounChunk'}"
tp109
a(I6
I6
S"{'nodeType': 'Token', 'pos': ['JJ', 'JJR', 'JJS']}"
tp110
a(I6
I6
S"{'nodeType': 'VerbChunk', 'pos': ['VGB', 'VBN']}"
tp111
a(I6
I6
S"{'pos': 'SYM'}"
tp112
a(I6
I7
S"{'nodeType': 'Token', 'pos': 'CD'}"
tp113
a(I7
I4
S"{'nodeType': 'NounChunk'}"
tp114
a(I7
I7
S"{'nodeType': 'Token', 'pos': 'CD'}"
tp115
asg83
I1
sg84
I1
sbaa(lp116
S'FACTIVE'
p117
ag117
atp118
ssS'chances'
p119
(dp120
g4
((lp121
(lp122
g7
aa(lp123
(iutilities.FSA
FSA
p124
(dp125
g9
S'toClause1'
p126
sg11
(lp127
I1
asg13
I1
sg14
Nsg15
S"[_{_'_p_o_s_'_:_ _[_'_R_B_'_,_ _'_R_B_R_'_,_ _'_R_B_S_'_,_ _'_R_P_'_,_ _'_J_J_R_'_]_}_,_ _'_?_'_,_ _'_(_'_,_ _{_'_t_e_n_s_e_'_:_ _'_I_N_F_I_N_I_T_I_V_E_'_,_ _'_n_o_d_e_T_y_p_e_'_:_ _'_V_e_r_b_C_h_u_n_k_'_}_,_ _'_|_'_,_ _{_'_t_e_x_t_'_:_ _'_t_o_'_,_ _'_p_o_s_'_:_ _'_T_O_'_}_,_ _{_'_p_o_s_'_:_ _'_U_H_'_}_,_ _'_?_'_,_ _'_(_'_,_ _{_'_n_o_d_e_T_y_p_e_'_:_ _'_V_e_r_b_C_h_u_n_k_'_,_ _'_e_v_e_n_t_S_t_a_t_u_s_'_:_ _'_1_'_}_,_ _'_|_'_,_ _{_'_n_o_d_e_T_y_p_e_'_:_ _'_N_o_u_n_C_h_u_n_k_'_,_ _'_e_v_e_n_t_S_t_a_t_u_s_'_:_ _'_1_'_}_,_ _'_)_'_,_ _'_)_'_]"
p128
sg17
I0
sg18
(lp129
I2
aI1
aI0
aI4
aI3
asg20
(dp130
sg22
I1
sg23
(lp131
(I0
I1
S"{'tense': 'INFINITIVE', 'nodeType': 'VerbChunk'}"
p132
tp133
a(I0
I2
S"{'pos': ['RB', 'RBR', 'RBS', 'RP', 'JJR']}"
tp134
a(I0
I3
S"{'text': 'to', 'pos': 'TO'}"
p135
tp136
a(I2
I1
g132
tp137
a(I2
I3
g135
tp138
a(I3
I1
S"{'nodeType': 'NounChunk', 'eventStatus': '1'}"
tp139
a(I3
I1
S"{'nodeType': 'VerbChunk', 'eventStatus': '1'}"
tp140
a(I3
I4
S"{'pos': 'UH'}"
tp141
a(I4
I1
S"{'nodeType': 'NounChunk', 'eventStatus': '1'}"
tp142
a(I4
I1
S"{'nodeType': 'VerbChunk', 'eventStatus': '1'}"
tp143
asg83
I1
sg84
I1
sba(iutilities.FSA
FSA
p144
(dp145
g9
S'toClause3'
p146
sg11
(lp147
I5
asg13
I1
sg14
Nsg15
S"[_'_(_'_,_ _{_'_n_o_d_e_T_y_p_e_'_:_ _'_T_o_k_e_n_'_,_ _'_p_o_s_'_:_ _'_P_D_T_'_}_,_ _'_|_'_,_ _{_'_n_o_d_e_T_y_p_e_'_:_ _'_T_o_k_e_n_'_,_ _'_p_o_s_'_:_ _'_D_T_'_}_,_ _{_'_n_o_d_e_T_y_p_e_'_:_ _'_T_o_k_e_n_'_,_ _'_p_o_s_'_:_ _'_I_N_'_}_,_ _'_)_'_,_ _'_?_'_,_ _'_(_'_,_ _{_'_n_o_d_e_T_y_p_e_'_:_ _'_N_o_u_n_C_h_u_n_k_'_}_,_ _'_(_'_,_ _{_'_n_o_d_e_T_y_p_e_'_:_ _'_T_o_k_e_n_'_,_ _'_p_o_s_'_:_ _'_I_N_'_}_,_ _'_|_'_,_ _{_'_t_e_x_t_'_:_ _[_'_a_n_d_'_,_ _'_o_r_'_]_,_ _'_n_o_d_e_T_y_p_e_'_:_ _'_T_o_k_e_n_'_,_ _'_p_o_s_'_:_ _'_C_C_'_}_,_ _'_)_'_,_ _{_'_n_o_d_e_T_y_p_e_'_:_ _'_N_o_u_n_C_h_u_n_k_'_}_,_ _'_(_'_,_ _{_'_n_o_d_e_T_y_p_e_'_:_ _'_T_o_k_e_n_'_,_ _'_p_o_s_'_:_ _'_I_N_'_}_,_ _{_'_n_o_d_e_T_y_p_e_'_:_ _'_N_o_u_n_C_h_u_n_k_'_}_,_ _'_)_'_,_ _'_?_'_,_ _'_|_'_,_ _'_(_'_,_ _{_'_n_o_d_e_T_y_p_e_'_:_ _'_T_o_k_e_n_'_,_ _'_p_o_s_'_:_ _[_'_P_P_'_,_ _'_P_P_$_'_,_ _'_P_R_P_$_'_,_ _'_P_R_P_'_]_}_,_ _'_|_'_,_ _{_'_n_o_d_e_T_y_p_e_'_:_ _'_N_o_u_n_C_h_u_n_k_'_}_,_ _'_)_'_,_ _'_|_'_,_ _{_'_t_e_x_t_'_:_ _[_'_t_h_i_s_'_,_ _'_t_h_a_t_'_,_ _'_t_h_e_s_e_'_,_ _'_t_h_o_s_e_'_]_,_ _'_n_o_d_e_T_y_p_e_'_:_ _'_T_o_k_e_n_'_}_,_ _'_|_'_,_ _{_'_n_o_d_e_T_y_p_e_'_:_ _'_T_o_k_e_n_'_,_ _'_p_o_s_'_:_ _'_D_T_'_}_,_ _'_(_'_,_ _{_'_n_o_d_e_T_y_p_e_'_:_ _'_T_o_k_e_n_'_,_ _'_p_o_s_'_:_ _[_'_J_J_'_,_ _'_J_J_R_'_,_ _'_J_J_S_'_]_}_,_ _'_|_'_,_ _{_'_p_o_s_'_:_ _'_S_Y_M_'_}_,_ _'_)_'_,_ _'_*_'_,_ _{_'_n_o_d_e_T_y_p_e_'_:_ _'_T_o_k_e_n_'_,_ _'_p_o_s_'_:_ _'_C_D_'_}_,_ _'_*_'_,_ _'_(_'_,_ _{_'_n_o_d_e_T_y_p_e_'_:_ _'_N_o_u_n_C_h_u_n_k_'_}_,_ _'_|_'_,_ _{_'_n_o_d_e_T_y_p_e_'_:_ _'_N_o_u_n_C_h_u_n_k_'_}_,_ _'_(_'_,_ _{_'_n_o_d_e_T_y_p_e_'_:_ _'_T_o_k_e_n_'_,_ _'_p_o_s_'_:_ _'_I_N_'_}_,_ _'_|_'_,_ _{_'_t_e_x_t_'_:_ _[_'_a_n_d_'_,_ _'_o_r_'_]_,_ _'_n_o_d_e_T_y_p_e_'_:_ _'_T_o_k_e_n_'_,_ _'_p_o_s_'_:_ _'_C_C_'_}_,_ _'_)_'_,_ _{_'_n_o_d_e_T_y_p_e_'_:_ _'_N_o_u_n_C_h_u_n_k_'_}_,_ _'_)_'_,_ _'_)_'_,_ _'_(_'_,_ _{_'_t_e_n_s_e_'_:_ _'_I_N_F_I_N_I_T_I_V_E_'_,_ _'_n_o_d_e_T_y_p_e_'_:_ _'_V_e_r_b_C_h_u_n_k_'_}_,_ _'_|_'_,_ _{_'_t_e_x_t_'_:_ _'_t_o_'_,_ _'_p_o_s_'_:_ _'_T_O_'_}_,_ _{_'_p_o_s_'_:_ _'_U_H_'_}_,_ _'_?_'_,_ _'_(_'_,_ _{_'_n_o_d_e_T_y_p_e_'_:_ _'_V_e_r_b_C_h_u_n_k_'_,_ _'_e_v_e_n_t_S_t_a_t_u_s_'_:_ _'_1_'_}_,_ _'_|_'_,_ _{_'_n_o_d_e_T_y_p_e_'_:_ _'_N_o_u_n_C_h_u_n_k_'_,_ _'_e_v_e_n_t_S_t_a_t_u_s_'_:_ _'_1_'_}_,_ _'_)_'_,_ _'_)_'_]"
p148
sg17
I0
sg18
(lp149
I0
aI5
aI2
aI8
aI4
aI6
aI13
aI9
aI1
aI12
aI3
aI11
aI10
aI7
asg20
(dp150
sg22
I1
sg23
(lp151
(I0
I1
S"{'nodeType': 'Token', 'pos': ['PP', 'PP$', 'PRP$', 'PRP']}"
tp152
a(I0
I1
S"{'text': ['this', 'that', 'these', 'those'], 'nodeType': 'Token'}"
tp153
a(I0
I2
S"{'nodeType': 'NounChunk'}"
p154
tp155
a(I0
I3
S"{'nodeType': 'Token', 'pos': 'PDT'}"
tp156
a(I0
I4
S"{'nodeType': 'Token', 'pos': 'DT'}"
tp157
a(I1
I5
S"{'tense': 'INFINITIVE', 'nodeType': 'VerbChunk'}"
p158
tp159
a(I1
I6
S"{'text': 'to', 'pos': 'TO'}"
p160
tp161
a(I2
I7
S"{'nodeType': 'Token', 'pos': 'IN'}"
tp162
a(I2
I7
S"{'text': ['and', 'or'], 'nodeType': 'Token', 'pos': 'CC'}"
tp163
a(I2
I5
g158
tp164
a(I2
I6
g160
tp165
a(I3
I2
g154
tp166
a(I3
I1
S"{'nodeType': 'Token', 'pos': ['PP', 'PP$', 'PRP$', 'PRP']}"
tp167
a(I3
I1
S"{'text': ['this', 'that', 'these', 'those'], 'nodeType': 'Token'}"
tp168
a(I3
I8
S"{'nodeType': 'Token', 'pos': 'DT'}"
tp169
a(I4
I3
S"{'nodeType': 'Token', 'pos': 'IN'}"
tp170
a(I4
I9
S"{'nodeType': 'NounChunk'}"
p171
tp172
a(I4
I8
S"{'nodeType': 'Token', 'pos': ['JJ', 'JJR', 'JJS']}"
tp173
a(I4
I8
S"{'pos': 'SYM'}"
tp174
a(I4
I10
S"{'nodeType': 'Token', 'pos': 'CD'}"
p175
tp176
a(I6
I5
S"{'nodeType': 'NounChunk', 'eventStatus': '1'}"
tp177
a(I6
I5
S"{'nodeType': 'VerbChunk', 'eventStatus': '1'}"
tp178
a(I6
I11
S"{'pos': 'UH'}"
tp179
a(I7
I12
S"{'nodeType': 'NounChunk'}"
tp180
a(I8
I9
g171
tp181
a(I8
I8
S"{'nodeType': 'Token', 'pos': ['JJ', 'JJR', 'JJS']}"
tp182
a(I8
I8
S"{'pos': 'SYM'}"
tp183
a(I8
I10
g175
tp184
a(I9
I13
S"{'nodeType': 'Token', 'pos': 'IN'}"
tp185
a(I9
I13
S"{'text': ['and', 'or'], 'nodeType': 'Token', 'pos': 'CC'}"
tp186
a(I9
I5
g158
tp187
a(I9
I6
g160
tp188
a(I10
I9
g171
tp189
a(I10
I10
S"{'nodeType': 'Token', 'pos': 'CD'}"
tp190
a(I11
I5
S"{'nodeType': 'NounChunk', 'eventStatus': '1'}"
tp191
a(I11
I5
S"{'nodeType': 'VerbChunk', 'eventStatus': '1'}"
tp192
a(I12
I13
S"{'nodeType': 'Token', 'pos': 'IN'}"
tp193
a(I12
I5
g158
tp194
a(I12
I6
g160
tp195
a(I13
I1
S"{'nodeType': 'NounChunk'}"
tp196
asg83
I1
sg84
I1
sbaa(lp197
(iutilities.FSA
FSA
p198
(dp199
g9
S'ofING_clause'
p200
sg11
(lp201
I5
asg13
I1
sg14
Nsg15
S"[_{_'_n_o_d_e_T_y_p_e_'_:_ _'_T_o_k_e_n_'_,_ _'_p_o_s_'_:_ _'_I_N_'_}_,_ _'_?_'_,_ _{_'_n_o_d_e_T_y_p_e_'_:_ _'_T_o_k_e_n_'_,_ _'_p_o_s_'_:_ _'_P_D_T_'_}_,_ _'_?_'_,_ _{_'_n_o_d_e_T_y_p_e_'_:_ _'_N_o_u_n_C_h_u_n_k_'_}_,_ _'_?_'_,_ _{_'_t_e_x_t_'_:_ _'_o_f_'_}_,_ _{_'_n_o_d_e_T_y_p_e_'_:_ _'_V_e_r_b_C_h_u_n_k_'_,_ _'_e_v_e_n_t_S_t_a_t_u_s_'_:_ _'_1_'_}_]"
p202
sg17
I0
sg18
(lp203
I0
aI1
aI2
aI3
aI4
aI5
asg20
(dp204
sg22
I1
sg23
(lp205
(I0
I1
S"{'nodeType': 'Token', 'pos': 'IN'}"
tp206
a(I0
I2
S"{'nodeType': 'NounChunk'}"
p207
tp208
a(I0
I3
S"{'nodeType': 'Token', 'pos': 'PDT'}"
p209
tp210
a(I0
I4
S"{'text': 'of'}"
p211
tp212
a(I1
I2
g207
tp213
a(I1
I3
g209
tp214
a(I1
I4
g211
tp215
a(I2
I4
g211
tp216
a(I3
I2
g207
tp217
a(I3
I4
g211
tp218
a(I4
I5
S"{'nodeType': 'VerbChunk', 'eventStatus': '1'}"
tp219
asg83
I1
sg84
I1
sbaa(lp220
g86
aa(lp221
S'MODAL'
p222
atp223
ssS'declaration'
p224
(dp225
g4
((lp226
(lp227
g7
a(iutilities.FSA
FSA
p228
(dp229
g9
S'thatClause_that_QUOTES'
p230
sg11
(lp231
I4
asg13
I1
sg14
Nsg15
S'[_\'_(_\'_,_ _\'_(_\'_,_ _{_\'_n_o_d_e_T_y_p_e_\'_:_ _\'_N_o_u_n_C_h_u_n_k_\'_}_,_ _\'_|_\'_,_ _{_\'_n_o_d_e_T_y_p_e_\'_:_ _\'_T_o_k_e_n_\'_,_ _\'_p_o_s_\'_:_ _\'_I_N_\'_}_,_ _\'_|_\'_,_ _{_\'_n_o_d_e_T_y_p_e_\'_:_ _\'_T_o_k_e_n_\'_,_ _\'_p_o_s_\'_:_ _[_\'_J_J_\'_,_ _\'_J_J_R_\'_,_ _\'_J_J_S_\'_,_ _\'_D_T_\'_,_ _\'_P_D_T_\'_,_ _\'_P_O_S_\'_,_ _\'_C_D_\'_,_ _\'_S_Y_M_\'_]_}_,_ _\'_|_\'_,_ _{_\'_t_e_x_t_\'_:_ _[_\'_"_\'_,_ _\'_`_`_\'_,_ _"_\'_\'_"_]_}_,_ _\'_)_\'_,_ _\'_?_\'_,_ _\'_|_\'_,_ _{_\'_t_e_x_t_\'_:_ _\'_,_\'_}_,_ _\'_|_\'_,_ _{_\'_t_e_x_t_\'_:_ _\'_:_\'_}_,_ _\'_)_\'_,_ _\'_?_\'_,_ _{_\'_t_e_x_t_\'_:_ _[_\'_t_h_a_t_\'_,_ _\'_i_f_\'_,_ _\'_w_h_e_t_h_e_r_\'_]_,_ _\'_n_o_d_e_T_y_p_e_\'_:_ _\'_T_o_k_e_n_\'_,_ _\'_p_o_s_\'_:_ _\'_I_N_\'_}_,_ _{_\'_t_e_x_t_\'_:_ _[_\'_"_\'_,_ _\'_`_`_\'_,_ _"_\'_\'_"_]_}_,_ _{_\'_t_e_x_t_\'_:_ _(_\'_^_\'_,_ _[_\'_;_\'_,_ _\'_._\'_,_ _\'_!_\'_,_ _\'_?_\'_,_ _\'_._._._\'_,_ _\'_"_\'_,_ _\'_`_`_\'_]_)_,_ _\'_p_o_s_\'_:_ _(_\'_^_\'_,_ _[_\'_W_P_\'_,_ _\'_W_D_T_\'_,_ _\'_W_R_B_\'_,_ _\'_"_\'_,_ _"_\'_\'_"_,_ _\'_`_`_\'_]_)_}_,_ _\'_?_\'_,_ _\'_(_\'_,_ _\'_(_\'_,_ _{_\'_n_o_d_e_T_y_p_e_\'_:_ _\'_N_o_u_n_C_h_u_n_k_\'_}_,_ _\'_|_\'_,_ _{_\'_n_o_d_e_T_y_p_e_\'_:_ _\'_T_o_k_e_n_\'_,_ _\'_p_o_s_\'_:_ _\'_I_N_\'_}_,_ _\'_|_\'_,_ _{_\'_n_o_d_e_T_y_p_e_\'_:_ _\'_T_o_k_e_n_\'_,_ _\'_p_o_s_\'_:_ _[_\'_J_J_\'_,_ _\'_J_J_R_\'_,_ _\'_J_J_S_\'_,_ _\'_D_T_\'_,_ _\'_P_D_T_\'_,_ _\'_P_O_S_\'_,_ _\'_C_D_\'_,_ _\'_S_Y_M_\'_]_}_,_ _\'_)_\'_,_ _\'_+_\'_,_ _\'_(_\'_,_ _{_\'_t_e_n_s_e_\'_:_ _[_\'_P_A_S_T_\'_,_ _\'_P_R_E_S_E_N_T_\'_,_ _\'_F_U_T_U_R_E_\'_]_,_ _\'_n_o_d_e_T_y_p_e_\'_:_ _[_\'_C_h_u_n_k_\'_,_ _\'_N_o_u_n_C_h_u_n_k_\'_,_ _\'_V_e_r_b_C_h_u_n_k_\'_,_ _\'_A_d_j_e_c_t_i_v_e_T_o_k_e_n_\'_]_}_,_ _\'_|_\'_,_ _{_\'_n_o_d_e_T_y_p_e_\'_:_ _[_\'_C_h_u_n_k_\'_,_ _\'_N_o_u_n_C_h_u_n_k_\'_,_ _\'_V_e_r_b_C_h_u_n_k_\'_,_ _\'_A_d_j_e_c_t_i_v_e_T_o_k_e_n_\'_]_,_ _\'_m_o_d_a_l_i_t_y_\'_:_ _[_\'_m_a_y_\'_,_ _\'_c_a_n_\'_,_ _\'_m_u_s_t_\'_,_ _\'_m_i_g_h_t_\'_,_ _\'_c_o_u_l_d_\'_,_ _\'_s_h_o_u_l_d_\'_,_ _\'_w_o_u_l_d_\'_,_ _\'_o_u_g_h_t_\'_,_ _\'_h_a_v_e_ _t_o_\'_]_}_,_ _\'_)_\'_,_ _\'_|_\'_,_ _{_\'_t_e_x_t_\'_:_ _(_\'_^_\'_,_ _[_\'_;_\'_,_ _\'_._\'_,_ _\'_!_\'_,_ _\'_?_\'_,_ _\'_._._._\'_,_ _\'_"_\'_,_ _\'_`_`_\'_]_)_,_ _\'_p_o_s_\'_:_ _(_\'_^_\'_,_ _[_\'_W_P_\'_,_ _\'_W_D_T_\'_,_ _\'_W_R_B_\'_,_ _\'_"_\'_,_ _"_\'_\'_"_,_ _\'_`_`_\'_]_)_}_,_ _\'_?_\'_,_ _{_\'_t_e_x_t_\'_:_ _(_\'_^_\'_,_ _[_\'_;_\'_,_ _\'_._\'_,_ _\'_!_\'_,_ _\'_?_\'_,_ _\'_._._._\'_,_ _\'_"_\'_,_ _\'_`_`_\'_]_)_,_ _\'_p_o_s_\'_:_ _(_\'_^_\'_,_ _[_\'_W_P_\'_,_ _\'_W_D_T_\'_,_ _\'_W_R_B_\'_,_ _\'_"_\'_,_ _"_\'_\'_"_,_ _\'_`_`_\'_]_)_}_,_ _\'_?_\'_,_ _{_\'_t_e_x_t_\'_:_ _(_\'_^_\'_,_ _[_\'_;_\'_,_ _\'_._\'_,_ _\'_!_\'_,_ _\'_?_\'_,_ _\'_._._._\'_,_ _\'_"_\'_,_ _\'_`_`_\'_]_)_,_ _\'_p_o_s_\'_:_ _(_\'_^_\'_,_ _[_\'_W_P_\'_,_ _\'_W_D_T_\'_,_ _\'_W_R_B_\'_,_ _\'_"_\'_,_ _"_\'_\'_"_,_ _\'_`_`_\'_]_)_}_,_ _\'_?_\'_,_ _{_\'_t_e_x_t_\'_:_ _(_\'_^_\'_,_ _[_\'_;_\'_,_ _\'_._\'_,_ _\'_!_\'_,_ _\'_?_\'_,_ _\'_._._._\'_,_ _\'_"_\'_,_ _\'_`_`_\'_]_)_,_ _\'_p_o_s_\'_:_ _(_\'_^_\'_,_ _[_\'_W_P_\'_,_ _\'_W_D_T_\'_,_ _\'_W_R_B_\'_,_ _\'_"_\'_,_ _"_\'_\'_"_,_ _\'_`_`_\'_]_)_}_,_ _\'_?_\'_,_ _{_\'_t_e_x_t_\'_:_ _(_\'_^_\'_,_ _[_\'_;_\'_,_ _\'_._\'_,_ _\'_!_\'_,_ _\'_?_\'_,_ _\'_._._._\'_,_ _\'_"_\'_,_ _\'_`_`_\'_]_)_,_ _\'_p_o_s_\'_:_ _(_\'_^_\'_,_ _[_\'_W_P_\'_,_ _\'_W_D_T_\'_,_ _\'_W_R_B_\'_,_ _\'_"_\'_,_ _"_\'_\'_"_,_ _\'_`_`_\'_]_)_}_,_ _\'_?_\'_,_ _\'_(_\'_,_ _{_\'_t_e_n_s_e_\'_:_ _[_\'_P_A_S_T_\'_,_ _\'_P_R_E_S_E_N_T_\'_,_ _\'_F_U_T_U_R_E_\'_]_,_ _\'_n_o_d_e_T_y_p_e_\'_:_ _[_\'_C_h_u_n_k_\'_,_ _\'_N_o_u_n_C_h_u_n_k_\'_,_ _\'_V_e_r_b_C_h_u_n_k_\'_,_ _\'_A_d_j_e_c_t_i_v_e_T_o_k_e_n_\'_]_}_,_ _\'_|_\'_,_ _{_\'_n_o_d_e_T_y_p_e_\'_:_ _[_\'_C_h_u_n_k_\'_,_ _\'_N_o_u_n_C_h_u_n_k_\'_,_ _\'_V_e_r_b_C_h_u_n_k_\'_,_ _\'_A_d_j_e_c_t_i_v_e_T_o_k_e_n_\'_]_,_ _\'_m_o_d_a_l_i_t_y_\'_:_ _[_\'_m_a_y_\'_,_ _\'_c_a_n_\'_,_ _\'_m_u_s_t_\'_,_ _\'_m_i_g_h_t_\'_,_ _\'_c_o_u_l_d_\'_,_ _\'_s_h_o_u_l_d_\'_,_ _\'_w_o_u_l_d_\'_,_ _\'_o_u_g_h_t_\'_,_ _\'_h_a_v_e_ _t_o_\'_]_}_,_ _\'_)_\'_,_ _\'_|_\'_,_ _{_\'_t_e_x_t_\'_:_ _[_\'_i_s_\'_,_ _\'_w_a_s_\'_,_ _\'_w_e_r_e_\'_,_ _\'_a_m_\'_,_ _\'_b_e_\'_,_ _"_\'_s_"_,_ _\'_a_r_e_\'_,_ _"_\'_r_e_"_,_ _"_\'_m_"_,_ _\'_b_e_e_n_\'_,_ _\'_b_e_i_n_g_\'_]_,_ _\'_n_o_d_e_T_y_p_e_\'_:_ _\'_V_e_r_b_C_h_u_n_k_\'_}_,_ _{_\'_n_o_d_e_T_y_p_e_\'_:_ _\'_T_o_k_e_n_\'_,_ _\'_p_o_s_\'_:_ _\'_I_N_\'_}_,_ _\'_?_\'_,_ _{_\'_n_o_d_e_T_y_p_e_\'_:_ _\'_N_o_u_n_C_h_u_n_k_\'_,_ _\'_e_v_e_n_t_S_t_a_t_u_s_\'_:_ _\'_1_\'_}_,_ _\'_)_\'_]'
p232
sg17
I0
sg18
(lp233
I6
aI0
aI8
aI3
aI10
aI5
aI4
aI7
aI2
aI11
aI12
aI9
aI1
aI13
asg20
(dp234
sg22
I1
sg23
(lp235
(I0
I1
S"{'nodeType': 'NounChunk'}"
tp236
a(I0
I1
S"{'nodeType': 'Token', 'pos': 'IN'}"
tp237
a(I0
I1
S"{'nodeType': 'Token', 'pos': ['JJ', 'JJR', 'JJS', 'DT', 'PDT', 'POS', 'CD', 'SYM']}"
tp238
a(I0
I1
S"{'text': ','}"
tp239
a(I0
I1
S"{'text': ':'}"
tp240
a(I0
I1
S'{\'text\': [\'"\', \'``\', "\'\'"]}'
tp241
a(I0
I2
S"{'text': ['that', 'if', 'whether'], 'nodeType': 'Token', 'pos': 'IN'}"
p242
tp243
a(I1
I2
g242
tp244
a(I2
I3
S'{\'text\': [\'"\', \'``\', "\'\'"]}'
tp245
a(I3
I4
S"{'nodeType': ['Chunk', 'NounChunk', 'VerbChunk', 'AdjectiveToken'], 'modality': ['may', 'can', 'must', 'might', 'could', 'should', 'would', 'ought', 'have to']}"
tp246
a(I3
I4
S"{'tense': ['PAST', 'PRESENT', 'FUTURE'], 'nodeType': ['Chunk', 'NounChunk', 'VerbChunk', 'AdjectiveToken']}"
tp247
a(I3
I5
S'{\'text\': (\'^\', [\';\', \'.\', \'!\', \'?\', \'...\', \'"\', \'``\']), \'pos\': (\'^\', [\'WP\', \'WDT\', \'WRB\', \'"\', "\'\'", \'``\'])}'
tp248
a(I3
I6
S"{'nodeType': 'NounChunk'}"
tp249
a(I3
I6
S"{'nodeType': 'Token', 'pos': 'IN'}"
tp250
a(I3
I6
S"{'nodeType': 'Token', 'pos': ['JJ', 'JJR', 'JJS', 'DT', 'PDT', 'POS', 'CD', 'SYM']}"
tp251
a(I3
I7
S'{\'text\': [\'is\', \'was\', \'were\', \'am\', \'be\', "\'s", \'are\', "\'re", "\'m", \'been\', \'being\'], \'nodeType\': \'VerbChunk\'}'
p252
tp253
a(I5
I4
S"{'nodeType': ['Chunk', 'NounChunk', 'VerbChunk', 'AdjectiveToken'], 'modality': ['may', 'can', 'must', 'might', 'could', 'should', 'would', 'ought', 'have to']}"
tp254
a(I5
I4
S"{'tense': ['PAST', 'PRESENT', 'FUTURE'], 'nodeType': ['Chunk', 'NounChunk', 'VerbChunk', 'AdjectiveToken']}"
tp255
a(I5
I8
S'{\'text\': (\'^\', [\';\', \'.\', \'!\', \'?\', \'...\', \'"\', \'``\']), \'pos\': (\'^\', [\'WP\', \'WDT\', \'WRB\', \'"\', "\'\'", \'``\'])}'
tp256
a(I5
I6
S"{'nodeType': 'NounChunk'}"
tp257
a(I5
I6
S"{'nodeType': 'Token', 'pos': 'IN'}"
tp258
a(I5
I6
S"{'nodeType': 'Token', 'pos': ['JJ', 'JJR', 'JJS', 'DT', 'PDT', 'POS', 'CD', 'SYM']}"
tp259
a(I5
I7
g252
tp260
a(I6
I4
S"{'nodeType': ['Chunk', 'NounChunk', 'VerbChunk', 'AdjectiveToken'], 'modality': ['may', 'can', 'must', 'might', 'could', 'should', 'would', 'ought', 'have to']}"
tp261
a(I6
I4
S"{'tense': ['PAST', 'PRESENT', 'FUTURE'], 'nodeType': ['Chunk', 'NounChunk', 'VerbChunk', 'AdjectiveToken']}"
tp262
a(I6
I6
S"{'nodeType': 'NounChunk'}"
tp263
a(I6
I6
S"{'nodeType': 'Token', 'pos': 'IN'}"
tp264
a(I6
I6
S"{'nodeType': 'Token', 'pos': ['JJ', 'JJR', 'JJS', 'DT', 'PDT', 'POS', 'CD', 'SYM']}"
tp265
a(I7
I9
S"{'nodeType': 'Token', 'pos': 'IN'}"
tp266
a(I7
I4
S"{'nodeType': 'NounChunk', 'eventStatus': '1'}"
p267
tp268
a(I8
I4
S"{'nodeType': ['Chunk', 'NounChunk', 'VerbChunk', 'AdjectiveToken'], 'modality': ['may', 'can', 'must', 'might', 'could', 'should', 'would', 'ought', 'have to']}"
tp269
a(I8
I4
S"{'tense': ['PAST', 'PRESENT', 'FUTURE'], 'nodeType': ['Chunk', 'NounChunk', 'VerbChunk', 'AdjectiveToken']}"
tp270
a(I8
I10
S'{\'text\': (\'^\', [\';\', \'.\', \'!\', \'?\', \'...\', \'"\', \'``\']), \'pos\': (\'^\', [\'WP\', \'WDT\', \'WRB\', \'"\', "\'\'", \'``\'])}'
tp271
a(I9
I4
g267
tp272
a(I10
I4
S"{'nodeType': ['Chunk', 'NounChunk', 'VerbChunk', 'AdjectiveToken'], 'modality': ['may', 'can', 'must', 'might', 'could', 'should', 'would', 'ought', 'have to']}"
tp273
a(I10
I4
S"{'tense': ['PAST', 'PRESENT', 'FUTURE'], 'nodeType': ['Chunk', 'NounChunk', 'VerbChunk', 'AdjectiveToken']}"
tp274
a(I10
I11
S'{\'text\': (\'^\', [\';\', \'.\', \'!\', \'?\', \'...\', \'"\', \'``\']), \'pos\': (\'^\', [\'WP\', \'WDT\', \'WRB\', \'"\', "\'\'", \'``\'])}'
tp275
a(I11
I4
S"{'nodeType': ['Chunk', 'NounChunk', 'VerbChunk', 'AdjectiveToken'], 'modality': ['may', 'can', 'must', 'might', 'could', 'should', 'would', 'ought', 'have to']}"
tp276
a(I11
I4
S"{'tense': ['PAST', 'PRESENT', 'FUTURE'], 'nodeType': ['Chunk', 'NounChunk', 'VerbChunk', 'AdjectiveToken']}"
tp277
a(I11
I12
S'{\'text\': (\'^\', [\';\', \'.\', \'!\', \'?\', \'...\', \'"\', \'``\']), \'pos\': (\'^\', [\'WP\', \'WDT\', \'WRB\', \'"\', "\'\'", \'``\'])}'
tp278
a(I12
I4
S"{'nodeType': ['Chunk', 'NounChunk', 'VerbChunk', 'AdjectiveToken'], 'modality': ['may', 'can', 'must', 'might', 'could', 'should', 'would', 'ought', 'have to']}"
tp279
a(I12
I4
S"{'tense': ['PAST', 'PRESENT', 'FUTURE'], 'nodeType': ['Chunk', 'NounChunk', 'VerbChunk', 'AdjectiveToken']}"
tp280
a(I12
I13
S'{\'text\': (\'^\', [\';\', \'.\', \'!\', \'?\', \'...\', \'"\', \'``\']), \'pos\': (\'^\', [\'WP\', \'WDT\', \'WRB\', \'"\', "\'\'", \'``\'])}'
tp281
a(I13
I4
S"{'nodeType': ['Chunk', 'NounChunk', 'VerbChunk', 'AdjectiveToken'], 'modality': ['may', 'can', 'must', 'might', 'could', 'should', 'would', 'ought', 'have to']}"
tp282
a(I13
I4
S"{'tense': ['PAST', 'PRESENT', 'FUTURE'], 'nodeType': ['Chunk', 'NounChunk', 'VerbChunk', 'AdjectiveToken']}"
tp283
asg83
I1
sg84
I1
sba(iutilities.FSA
FSA
p284
(dp285
g9
S'thatClause_NOT_that'
p286
sg11
(lp287
I2
asg13
I1
sg14
Nsg15
S'[_{_\'_t_e_x_t_\'_:_ _(_\'_^_\'_,_ _[_\'_,_\'_]_)_}_,_ _{_\'_t_e_x_t_\'_:_ _(_\'_^_\'_,_ _[_\'_;_\'_,_ _\'_._\'_,_ _\'_!_\'_,_ _\'_?_\'_,_ _\'_._._._\'_,_ _\'_"_\'_]_)_,_ _\'_p_o_s_\'_:_ _(_\'_^_\'_,_ _[_\'_W_P_\'_,_ _\'_W_D_T_\'_,_ _\'_W_R_B_\'_,_ _\'_"_\'_,_ _"_\'_\'_"_]_)_}_,_ _\'_?_\'_,_ _\'_(_\'_,_ _{_\'_t_e_x_t_\'_:_ _(_\'_^_\'_,_ _[_\'_;_\'_,_ _\'_._\'_,_ _\'_!_\'_,_ _\'_?_\'_,_ _\'_._._._\'_,_ _\'_"_\'_,_ _\'_`_`_\'_]_)_,_ _\'_p_o_s_\'_:_ _(_\'_^_\'_,_ _[_\'_W_P_\'_,_ _\'_W_D_T_\'_,_ _\'_W_R_B_\'_,_ _\'_"_\'_,_ _"_\'_\'_"_,_ _\'_`_`_\'_]_)_}_,_ _\'_?_\'_,_ _{_\'_t_e_x_t_\'_:_ _(_\'_^_\'_,_ _[_\'_;_\'_,_ _\'_._\'_,_ _\'_!_\'_,_ _\'_?_\'_,_ _\'_._._._\'_,_ _\'_"_\'_,_ _\'_`_`_\'_]_)_,_ _\'_p_o_s_\'_:_ _(_\'_^_\'_,_ _[_\'_W_P_\'_,_ _\'_W_D_T_\'_,_ _\'_W_R_B_\'_,_ _\'_"_\'_,_ _"_\'_\'_"_,_ _\'_`_`_\'_]_)_}_,_ _\'_?_\'_,_ _{_\'_t_e_x_t_\'_:_ _(_\'_^_\'_,_ _[_\'_;_\'_,_ _\'_._\'_,_ _\'_!_\'_,_ _\'_?_\'_,_ _\'_._._._\'_,_ _\'_"_\'_,_ _\'_`_`_\'_]_)_,_ _\'_p_o_s_\'_:_ _(_\'_^_\'_,_ _[_\'_W_P_\'_,_ _\'_W_D_T_\'_,_ _\'_W_R_B_\'_,_ _\'_"_\'_,_ _"_\'_\'_"_,_ _\'_`_`_\'_]_)_}_,_ _\'_?_\'_,_ _{_\'_t_e_x_t_\'_:_ _(_\'_^_\'_,_ _[_\'_;_\'_,_ _\'_._\'_,_ _\'_!_\'_,_ _\'_?_\'_,_ _\'_._._._\'_,_ _\'_"_\'_,_ _\'_`_`_\'_]_)_,_ _\'_p_o_s_\'_:_ _(_\'_^_\'_,_ _[_\'_W_P_\'_,_ _\'_W_D_T_\'_,_ _\'_W_R_B_\'_,_ _\'_"_\'_,_ _"_\'_\'_"_,_ _\'_`_`_\'_]_)_}_,_ _\'_?_\'_,_ _{_\'_t_e_x_t_\'_:_ _(_\'_^_\'_,_ _[_\'_;_\'_,_ _\'_._\'_,_ _\'_!_\'_,_ _\'_?_\'_,_ _\'_._._._\'_,_ _\'_"_\'_,_ _\'_`_`_\'_]_)_,_ _\'_p_o_s_\'_:_ _(_\'_^_\'_,_ _[_\'_W_P_\'_,_ _\'_W_D_T_\'_,_ _\'_W_R_B_\'_,_ _\'_"_\'_,_ _"_\'_\'_"_,_ _\'_`_`_\'_]_)_}_,_ _\'_?_\'_,_ _\'_(_\'_,_ _{_\'_t_e_n_s_e_\'_:_ _[_\'_P_A_S_T_\'_,_ _\'_P_R_E_S_E_N_T_\'_,_ _\'_F_U_T_U_R_E_\'_]_,_ _\'_n_o_d_e_T_y_p_e_\'_:_ _[_\'_C_h_u_n_k_\'_,_ _\'_N_o_u_n_C_h_u_n_k_\'_,_ _\'_V_e_r_b_C_h_u_n_k_\'_,_ _\'_A_d_j_e_c_t_i_v_e_T_o_k_e_n_\'_]_}_,_ _\'_|_\'_,_ _{_\'_n_o_d_e_T_y_p_e_\'_:_ _[_\'_C_h_u_n_k_\'_,_ _\'_N_o_u_n_C_h_u_n_k_\'_,_ _\'_V_e_r_b_C_h_u_n_k_\'_,_ _\'_A_d_j_e_c_t_i_v_e_T_o_k_e_n_\'_]_,_ _\'_m_o_d_a_l_i_t_y_\'_:_ _[_\'_m_a_y_\'_,_ _\'_c_a_n_\'_,_ _\'_m_u_s_t_\'_,_ _\'_m_i_g_h_t_\'_,_ _\'_c_o_u_l_d_\'_,_ _\'_s_h_o_u_l_d_\'_,_ _\'_w_o_u_l_d_\'_,_ _\'_o_u_g_h_t_\'_,_ _\'_h_a_v_e_ _t_o_\'_]_}_,_ _\'_)_\'_,_ _\'_|_\'_,_ _{_\'_t_e_x_t_\'_:_ _[_\'_i_s_\'_,_ _\'_w_a_s_\'_,_ _\'_w_e_r_e_\'_,_ _\'_a_m_\'_,_ _\'_b_e_\'_,_ _"_\'_s_"_,_ _\'_a_r_e_\'_,_ _"_\'_r_e_"_,_ _"_\'_m_"_,_ _\'_b_e_e_n_\'_,_ _\'_b_e_i_n_g_\'_]_,_ _\'_n_o_d_e_T_y_p_e_\'_:_ _\'_V_e_r_b_C_h_u_n_k_\'_}_,_ _{_\'_n_o_d_e_T_y_p_e_\'_:_ _\'_T_o_k_e_n_\'_,_ _\'_p_o_s_\'_:_ _\'_I_N_\'_}_,_ _\'_?_\'_,_ _{_\'_n_o_d_e_T_y_p_e_\'_:_ _\'_N_o_u_n_C_h_u_n_k_\'_,_ _\'_e_v_e_n_t_S_t_a_t_u_s_\'_:_ _\'_1_\'_}_,_ _\'_)_\'_]'
p288
sg17
I0
sg18
(lp289
I0
aI1
aI7
aI3
aI2
aI4
aI10
aI8
aI6
aI5
aI9
asg20
(dp290
sg22
I1
sg23
(lp291
(I0
I1
S"{'text': ('^', [','])}"
tp292
a(I1
I2
S"{'nodeType': ['Chunk', 'NounChunk', 'VerbChunk', 'AdjectiveToken'], 'modality': ['may', 'can', 'must', 'might', 'could', 'should', 'would', 'ought', 'have to']}"
tp293
a(I1
I2
S"{'tense': ['PAST', 'PRESENT', 'FUTURE'], 'nodeType': ['Chunk', 'NounChunk', 'VerbChunk', 'AdjectiveToken']}"
tp294
a(I1
I3
S'{\'text\': [\'is\', \'was\', \'were\', \'am\', \'be\', "\'s", \'are\', "\'re", "\'m", \'been\', \'being\'], \'nodeType\': \'VerbChunk\'}'
p295
tp296
a(I1
I4
S'{\'text\': (\'^\', [\';\', \'.\', \'!\', \'?\', \'...\', \'"\']), \'pos\': (\'^\', [\'WP\', \'WDT\', \'WRB\', \'"\', "\'\'"])}'
tp297
a(I1
I5
S'{\'text\': (\'^\', [\';\', \'.\', \'!\', \'?\', \'...\', \'"\', \'``\']), \'pos\': (\'^\', [\'WP\', \'WDT\', \'WRB\', \'"\', "\'\'", \'``\'])}'
tp298
a(I3
I6
S"{'nodeType': 'Token', 'pos': 'IN'}"
tp299
a(I3
I2
S"{'nodeType': 'NounChunk', 'eventStatus': '1'}"
p300
tp301
a(I4
I2
S"{'nodeType': ['Chunk', 'NounChunk', 'VerbChunk', 'AdjectiveToken'], 'modality': ['may', 'can', 'must', 'might', 'could', 'should', 'would', 'ought', 'have to']}"
tp302
a(I4
I2
S"{'tense': ['PAST', 'PRESENT', 'FUTURE'], 'nodeType': ['Chunk', 'NounChunk', 'VerbChunk', 'AdjectiveToken']}"
tp303
a(I4
I3
g295
tp304
a(I4
I5
S'{\'text\': (\'^\', [\';\', \'.\', \'!\', \'?\', \'...\', \'"\', \'``\']), \'pos\': (\'^\', [\'WP\', \'WDT\', \'WRB\', \'"\', "\'\'", \'``\'])}'
tp305
a(I5
I2
S"{'nodeType': ['Chunk', 'NounChunk', 'VerbChunk', 'AdjectiveToken'], 'modality': ['may', 'can', 'must', 'might', 'could', 'should', 'would', 'ought', 'have to']}"
tp306
a(I5
I2
S"{'tense': ['PAST', 'PRESENT', 'FUTURE'], 'nodeType': ['Chunk', 'NounChunk', 'VerbChunk', 'AdjectiveToken']}"
tp307
a(I5
I7
S'{\'text\': (\'^\', [\';\', \'.\', \'!\', \'?\', \'...\', \'"\', \'``\']), \'pos\': (\'^\', [\'WP\', \'WDT\', \'WRB\', \'"\', "\'\'", \'``\'])}'
tp308
a(I6
I2
g300
tp309
a(I7
I2
S"{'nodeType': ['Chunk', 'NounChunk', 'VerbChunk', 'AdjectiveToken'], 'modality': ['may', 'can', 'must', 'might', 'could', 'should', 'would', 'ought', 'have to']}"
tp310
a(I7
I2
S"{'tense': ['PAST', 'PRESENT', 'FUTURE'], 'nodeType': ['Chunk', 'NounChunk', 'VerbChunk', 'AdjectiveToken']}"
tp311
a(I7
I8
S'{\'text\': (\'^\', [\';\', \'.\', \'!\', \'?\', \'...\', \'"\', \'``\']), \'pos\': (\'^\', [\'WP\', \'WDT\', \'WRB\', \'"\', "\'\'", \'``\'])}'
tp312
a(I8
I2
S"{'nodeType': ['Chunk', 'NounChunk', 'VerbChunk', 'AdjectiveToken'], 'modality': ['may', 'can', 'must', 'might', 'could', 'should', 'would', 'ought', 'have to']}"
tp313
a(I8
I2
S"{'tense': ['PAST', 'PRESENT', 'FUTURE'], 'nodeType': ['Chunk', 'NounChunk', 'VerbChunk', 'AdjectiveToken']}"
tp314
a(I8
I9
S'{\'text\': (\'^\', [\';\', \'.\', \'!\', \'?\', \'...\', \'"\', \'``\']), \'pos\': (\'^\', [\'WP\', \'WDT\', \'WRB\', \'"\', "\'\'", \'``\'])}'
tp315
a(I9
I2
S"{'nodeType': ['Chunk', 'NounChunk', 'VerbChunk', 'AdjectiveToken'], 'modality': ['may', 'can', 'must', 'might', 'could', 'should', 'would', 'ought', 'have to']}"
tp316
a(I9
I2
S"{'tense': ['PAST', 'PRESENT', 'FUTURE'], 'nodeType': ['Chunk', 'NounChunk', 'VerbChunk', 'AdjectiveToken']}"
tp317
a(I9
I10
S'{\'text\': (\'^\', [\';\', \'.\', \'!\', \'?\', \'...\', \'"\', \'``\']), \'pos\': (\'^\', [\'WP\', \'WDT\', \'WRB\', \'"\', "\'\'", \'``\'])}'
tp318
a(I10
I2
S"{'nodeType': ['Chunk', 'NounChunk', 'VerbChunk', 'AdjectiveToken'], 'modality': ['may', 'can', 'must', 'might', 'could', 'should', 'would', 'ought', 'have to']}"
tp319
a(I10
I2
S"{'tense': ['PAST', 'PRESENT', 'FUTURE'], 'nodeType': ['Chunk', 'NounChunk', 'VerbChunk', 'AdjectiveToken']}"
tp320
asg83
I1
sg84
I1
sba(iutilities.FSA
FSA
p321
(dp322
g9
S'thatClause_NOT_that_QUOTES'
p323
sg11
(lp324
I3
asg13
I1
sg14
Nsg15
S'[_\'_(_\'_,_ _{_\'_t_e_x_t_\'_:_ _\'_,_\'_}_,_ _\'_|_\'_,_ _{_\'_t_e_x_t_\'_:_ _\'_:_\'_}_,_ _\'_)_\'_,_ _\'_?_\'_,_ _{_\'_t_e_x_t_\'_:_ _[_\'_"_\'_,_ _\'_`_`_\'_,_ _"_\'_\'_"_]_}_,_ _{_\'_t_e_x_t_\'_:_ _(_\'_^_\'_,_ _[_\'_;_\'_,_ _\'_._\'_,_ _\'_!_\'_,_ _\'_?_\'_,_ _\'_._._._\'_,_ _\'_"_\'_,_ _\'_`_`_\'_]_)_,_ _\'_p_o_s_\'_:_ _(_\'_^_\'_,_ _[_\'_W_P_\'_,_ _\'_W_D_T_\'_,_ _\'_W_R_B_\'_,_ _\'_"_\'_,_ _"_\'_\'_"_,_ _\'_`_`_\'_]_)_}_,_ _\'_?_\'_,_ _{_\'_t_e_x_t_\'_:_ _(_\'_^_\'_,_ _[_\'_;_\'_,_ _\'_._\'_,_ _\'_!_\'_,_ _\'_?_\'_,_ _\'_._._._\'_,_ _\'_"_\'_,_ _\'_`_`_\'_]_)_,_ _\'_p_o_s_\'_:_ _(_\'_^_\'_,_ _[_\'_W_P_\'_,_ _\'_W_D_T_\'_,_ _\'_W_R_B_\'_,_ _\'_"_\'_,_ _"_\'_\'_"_,_ _\'_`_`_\'_]_)_}_,_ _\'_?_\'_,_ _{_\'_t_e_x_t_\'_:_ _(_\'_^_\'_,_ _[_\'_;_\'_,_ _\'_._\'_,_ _\'_!_\'_,_ _\'_?_\'_,_ _\'_._._._\'_,_ _\'_"_\'_,_ _\'_`_`_\'_]_)_,_ _\'_p_o_s_\'_:_ _(_\'_^_\'_,_ _[_\'_W_P_\'_,_ _\'_W_D_T_\'_,_ _\'_W_R_B_\'_,_ _\'_"_\'_,_ _"_\'_\'_"_,_ _\'_`_`_\'_]_)_}_,_ _\'_?_\'_,_ _{_\'_t_e_x_t_\'_:_ _(_\'_^_\'_,_ _[_\'_;_\'_,_ _\'_._\'_,_ _\'_!_\'_,_ _\'_?_\'_,_ _\'_._._._\'_,_ _\'_"_\'_,_ _\'_`_`_\'_]_)_,_ _\'_p_o_s_\'_:_ _(_\'_^_\'_,_ _[_\'_W_P_\'_,_ _\'_W_D_T_\'_,_ _\'_W_R_B_\'_,_ _\'_"_\'_,_ _"_\'_\'_"_,_ _\'_`_`_\'_]_)_}_,_ _\'_?_\'_,_ _{_\'_t_e_x_t_\'_:_ _(_\'_^_\'_,_ _[_\'_;_\'_,_ _\'_._\'_,_ _\'_!_\'_,_ _\'_?_\'_,_ _\'_._._._\'_,_ _\'_"_\'_,_ _\'_`_`_\'_]_)_,_ _\'_p_o_s_\'_:_ _(_\'_^_\'_,_ _[_\'_W_P_\'_,_ _\'_W_D_T_\'_,_ _\'_W_R_B_\'_,_ _\'_"_\'_,_ _"_\'_\'_"_,_ _\'_`_`_\'_]_)_}_,_ _\'_?_\'_,_ _{_\'_t_e_x_t_\'_:_ _(_\'_^_\'_,_ _[_\'_;_\'_,_ _\'_._\'_,_ _\'_!_\'_,_ _\'_?_\'_,_ _\'_._._._\'_,_ _\'_"_\'_,_ _\'_`_`_\'_]_)_,_ _\'_p_o_s_\'_:_ _(_\'_^_\'_,_ _[_\'_W_P_\'_,_ _\'_W_D_T_\'_,_ _\'_W_R_B_\'_,_ _\'_"_\'_,_ _"_\'_\'_"_,_ _\'_`_`_\'_]_)_}_,_ _\'_?_\'_,_ _\'_(_\'_,_ _{_\'_t_e_n_s_e_\'_:_ _[_\'_P_A_S_T_\'_,_ _\'_P_R_E_S_E_N_T_\'_,_ _\'_F_U_T_U_R_E_\'_]_,_ _\'_n_o_d_e_T_y_p_e_\'_:_ _[_\'_C_h_u_n_k_\'_,_ _\'_N_o_u_n_C_h_u_n_k_\'_,_ _\'_V_e_r_b_C_h_u_n_k_\'_,_ _\'_A_d_j_e_c_t_i_v_e_T_o_k_e_n_\'_]_}_,_ _\'_|_\'_,_ _{_\'_n_o_d_e_T_y_p_e_\'_:_ _[_\'_C_h_u_n_k_\'_,_ _\'_N_o_u_n_C_h_u_n_k_\'_,_ _\'_V_e_r_b_C_h_u_n_k_\'_,_ _\'_A_d_j_e_c_t_i_v_e_T_o_k_e_n_\'_]_,_ _\'_m_o_d_a_l_i_t_y_\'_:_ _[_\'_m_a_y_\'_,_ _\'_c_a_n_\'_,_ _\'_m_u_s_t_\'_,_ _\'_m_i_g_h_t_\'_,_ _\'_c_o_u_l_d_\'_,_ _\'_s_h_o_u_l_d_\'_,_ _\'_w_o_u_l_d_\'_,_ _\'_o_u_g_h_t_\'_,_ _\'_h_a_v_e_ _t_o_\'_]_}_,_ _\'_)_\'_]'
p325
sg17
I0
sg18
(lp326
I3
aI0
aI1
aI5
aI6
aI2
aI4
aI8
aI7
aI9
asg20
(dp327
sg22
I1
sg23
(lp328
(I0
I1
S'{\'text\': [\'"\', \'``\', "\'\'"]}'
p329
tp330
a(I0
I2
S"{'text': ','}"
tp331
a(I0
I2
S"{'text': ':'}"
tp332
a(I1
I3
S"{'nodeType': ['Chunk', 'NounChunk', 'VerbChunk', 'AdjectiveToken'], 'modality': ['may', 'can', 'must', 'might', 'could', 'should', 'would', 'ought', 'have to']}"
tp333
a(I1
I3
S"{'tense': ['PAST', 'PRESENT', 'FUTURE'], 'nodeType': ['Chunk', 'NounChunk', 'VerbChunk', 'AdjectiveToken']}"
tp334
a(I1
I4
S'{\'text\': (\'^\', [\';\', \'.\', \'!\', \'?\', \'...\', \'"\', \'``\']), \'pos\': (\'^\', [\'WP\', \'WDT\', \'WRB\', \'"\', "\'\'", \'``\'])}'
tp335
a(I2
I1
g329
tp336
a(I4
I3
S"{'nodeType': ['Chunk', 'NounChunk', 'VerbChunk', 'AdjectiveToken'], 'modality': ['may', 'can', 'must', 'might', 'could', 'should', 'would', 'ought', 'have to']}"
tp337
a(I4
I3
S"{'tense': ['PAST', 'PRESENT', 'FUTURE'], 'nodeType': ['Chunk', 'NounChunk', 'VerbChunk', 'AdjectiveToken']}"
tp338
a(I4
I5
S'{\'text\': (\'^\', [\';\', \'.\', \'!\', \'?\', \'...\', \'"\', \'``\']), \'pos\': (\'^\', [\'WP\', \'WDT\', \'WRB\', \'"\', "\'\'", \'``\'])}'
tp339
a(I5
I3
S"{'nodeType': ['Chunk', 'NounChunk', 'VerbChunk', 'AdjectiveToken'], 'modality': ['may', 'can', 'must', 'might', 'could', 'should', 'would', 'ought', 'have to']}"
tp340
a(I5
I3
S"{'tense': ['PAST', 'PRESENT', 'FUTURE'], 'nodeType': ['Chunk', 'NounChunk', 'VerbChunk', 'AdjectiveToken']}"
tp341
a(I5
I6
S'{\'text\': (\'^\', [\';\', \'.\', \'!\', \'?\', \'...\', \'"\', \'``\']), \'pos\': (\'^\', [\'WP\', \'WDT\', \'WRB\', \'"\', "\'\'", \'``\'])}'
tp342
a(I6
I3
S"{'nodeType': ['Chunk', 'NounChunk', 'VerbChunk', 'AdjectiveToken'], 'modality': ['may', 'can', 'must', 'might', 'could', 'should', 'would', 'ought', 'have to']}"
tp343
a(I6
I3
S"{'tense': ['PAST', 'PRESENT', 'FUTURE'], 'nodeType': ['Chunk', 'NounChunk', 'VerbChunk', 'AdjectiveToken']}"
tp344
a(I6
I7
S'{\'text\': (\'^\', [\';\', \'.\', \'!\', \'?\', \'...\', \'"\', \'``\']), \'pos\': (\'^\', [\'WP\', \'WDT\', \'WRB\', \'"\', "\'\'", \'``\'])}'
tp345
a(I7
I3
S"{'nodeType': ['Chunk', 'NounChunk', 'VerbChunk', 'AdjectiveToken'], 'modality': ['may', 'can', 'must', 'might', 'could', 'should', 'would', 'ought', 'have to']}"
tp346
a(I7
I3
S"{'tense': ['PAST', 'PRESENT', 'FUTURE'], 'nodeType': ['Chunk', 'NounChunk', 'VerbChunk', 'AdjectiveToken']}"
tp347
a(I7
I8
S'{\'text\': (\'^\', [\';\', \'.\', \'!\', \'?\', \'...\', \'"\', \'``\']), \'pos\': (\'^\', [\'WP\', \'WDT\', \'WRB\', \'"\', "\'\'", \'``\'])}'
tp348
a(I8
I3
S"{'nodeType': ['Chunk', 'NounChunk', 'VerbChunk', 'AdjectiveToken'], 'modality': ['may', 'can', 'must', 'might', 'could', 'should', 'would', 'ought', 'have to']}"
tp349
a(I8
I3
S"{'tense': ['PAST', 'PRESENT', 'FUTURE'], 'nodeType': ['Chunk', 'NounChunk', 'VerbChunk', 'AdjectiveToken']}"
tp350
a(I8
I9
S'{\'text\': (\'^\', [\';\', \'.\', \'!\', \'?\', \'...\', \'"\', \'``\']), \'pos\': (\'^\', [\'WP\', \'WDT\', \'WRB\', \'"\', "\'\'", \'``\'])}'
tp351
a(I9
I3
S"{'nodeType': ['Chunk', 'NounChunk', 'VerbChunk', 'AdjectiveToken'], 'modality': ['may', 'can', 'must', 'might', 'could', 'should', 'would', 'ought', 'have to']}"
tp352
a(I9
I3
S"{'tense': ['PAST', 'PRESENT', 'FUTURE'], 'nodeType': ['Chunk', 'NounChunk', 'VerbChunk', 'AdjectiveToken']}"
tp353
asg83
I1
sg84
I1
sbaa(lp354
(iutilities.FSA
FSA
p355
(dp356
g9
S'about_NPev'
p357
sg11
(lp358
I4
asg13
I1
sg14
Nsg15
S"[_{_'_n_o_d_e_T_y_p_e_'_:_ _'_T_o_k_e_n_'_,_ _'_p_o_s_'_:_ _'_P_D_T_'_}_,_ _'_?_'_,_ _{_'_n_o_d_e_T_y_p_e_'_:_ _'_N_o_u_n_C_h_u_n_k_'_}_,_ _'_?_'_,_ _{_'_t_e_x_t_'_:_ _'_a_b_o_u_t_'_,_ _'_n_o_d_e_T_y_p_e_'_:_ _'_T_o_k_e_n_'_}_,_ _{_'_n_o_d_e_T_y_p_e_'_:_ _'_T_o_k_e_n_'_,_ _'_p_o_s_'_:_ _'_P_D_T_'_}_,_ _'_?_'_,_ _'_(_'_,_ _{_'_n_o_d_e_T_y_p_e_'_:_ _'_N_o_u_n_C_h_u_n_k_'_,_ _'_e_v_e_n_t_S_t_a_t_u_s_'_:_ _'_1_'_}_,_ _'_|_'_,_ _{_'_n_o_d_e_T_y_p_e_'_:_ _'_T_o_k_e_n_'_,_ _'_p_o_s_'_:_ _'_D_T_'_}_,_ _'_(_'_,_ _{_'_n_o_d_e_T_y_p_e_'_:_ _'_T_o_k_e_n_'_,_ _'_p_o_s_'_:_ _[_'_J_J_'_,_ _'_J_J_R_'_,_ _'_J_J_S_'_]_}_,_ _'_|_'_,_ _{_'_n_o_d_e_T_y_p_e_'_:_ _'_V_e_r_b_C_h_u_n_k_'_,_ _'_p_o_s_'_:_ _[_'_V_G_B_'_,_ _'_V_B_N_'_]_}_,_ _'_|_'_,_ _'_|_'_,_ _{_'_p_o_s_'_:_ _'_S_Y_M_'_}_,_ _'_)_'_,_ _'_*_'_,_ _{_'_n_o_d_e_T_y_p_e_'_:_ _'_T_o_k_e_n_'_,_ _'_p_o_s_'_:_ _'_C_D_'_}_,_ _'_*_'_,_ _{_'_n_o_d_e_T_y_p_e_'_:_ _'_N_o_u_n_C_h_u_n_k_'_}_,_ _'_)_'_]"
p359
sg17
I0
sg18
(lp360
I7
aI0
aI1
aI2
aI3
aI4
aI5
aI6
asg20
(dp361
sg22
I1
sg23
(lp362
(I0
I1
S"{'nodeType': 'NounChunk'}"
p363
tp364
a(I0
I2
S"{'text': 'about', 'nodeType': 'Token'}"
p365
tp366
a(I0
I3
S"{'nodeType': 'Token', 'pos': 'PDT'}"
tp367
a(I1
I2
g365
tp368
a(I2
I4
S"{'nodeType': 'NounChunk', 'eventStatus': '1'}"
p369
tp370
a(I2
I5
S"{'nodeType': 'Token', 'pos': 'PDT'}"
tp371
a(I2
I6
S"{'nodeType': 'Token', 'pos': 'DT'}"
p372
tp373
a(I3
I1
g363
tp374
a(I3
I2
g365
tp375
a(I5
I4
g369
tp376
a(I5
I6
g372
tp377
a(I6
I4
S"{'nodeType': 'NounChunk'}"
tp378
a(I6
I6
S"{'nodeType': 'Token', 'pos': ['JJ', 'JJR', 'JJS']}"
tp379
a(I6
I6
S"{'nodeType': 'VerbChunk', 'pos': ['VGB', 'VBN']}"
tp380
a(I6
I6
S"{'pos': 'SYM'}"
tp381
a(I6
I7
S"{'nodeType': 'Token', 'pos': 'CD'}"
tp382
a(I7
I4
S"{'nodeType': 'NounChunk'}"
tp383
a(I7
I7
S"{'nodeType': 'Token', 'pos': 'CD'}"
tp384
asg83
I1
sg84
I1
sba(iutilities.FSA
FSA
p385
(dp386
g9
S'aboutING_clause'
p387
sg11
(lp388
I5
asg13
I1
sg14
Nsg15
S"[_{_'_n_o_d_e_T_y_p_e_'_:_ _'_T_o_k_e_n_'_,_ _'_p_o_s_'_:_ _'_I_N_'_}_,_ _'_?_'_,_ _{_'_n_o_d_e_T_y_p_e_'_:_ _'_T_o_k_e_n_'_,_ _'_p_o_s_'_:_ _'_P_D_T_'_}_,_ _'_?_'_,_ _{_'_n_o_d_e_T_y_p_e_'_:_ _'_N_o_u_n_C_h_u_n_k_'_}_,_ _'_?_'_,_ _{_'_t_e_x_t_'_:_ _'_a_b_o_u_t_'_,_ _'_n_o_d_e_T_y_p_e_'_:_ _'_T_o_k_e_n_'_}_,_ _{_'_n_o_d_e_T_y_p_e_'_:_ _'_V_e_r_b_C_h_u_n_k_'_,_ _'_e_v_e_n_t_S_t_a_t_u_s_'_:_ _'_1_'_}_]"
p389
sg17
I0
sg18
(lp390
I0
aI1
aI2
aI3
aI4
aI5
asg20
(dp391
sg22
I1
sg23
(lp392
(I0
I1
S"{'nodeType': 'Token', 'pos': 'IN'}"
tp393
a(I0
I2
S"{'nodeType': 'NounChunk'}"
p394
tp395
a(I0
I3
S"{'nodeType': 'Token', 'pos': 'PDT'}"
p396
tp397
a(I0
I4
S"{'text': 'about', 'nodeType': 'Token'}"
p398
tp399
a(I1
I2
g394
tp400
a(I1
I4
g398
tp401
a(I1
I3
g396
tp402
a(I2
I4
g398
tp403
a(I3
I2
g394
tp404
a(I3
I4
g398
tp405
a(I4
I5
S"{'nodeType': 'VerbChunk', 'eventStatus': '1'}"
tp406
asg83
I1
sg84
I1
sbaa(lp407
S'EVIDENTIAL'
p408
ag117
atp409
ssS'talks'
p410
(dp411
g4
((lp412
(lp413
g355
aa(lp414
g222
atp415
ssS'fear'
p416
(dp417
g4
((lp418
(lp419
g7
ag284
aa(lp420
g124
ag144
aa(lp421
g86
ag198
aa(lp422
g222
ag222
ag117
atp423
ssS'decisions'
p424
(dp425
g4
((lp426
(lp427
g124
ag144
a(iutilities.FSA
FSA
p428
(dp429
g9
S'toClause5'
p430
sg11
(lp431
I4
asg13
I1
sg14
Nsg15
S"[_{_'_n_o_d_e_T_y_p_e_'_:_ _'_T_o_k_e_n_'_,_ _'_p_o_s_'_:_ _'_I_N_'_}_,_ _{_'_n_o_d_e_T_y_p_e_'_:_ _'_T_o_k_e_n_'_,_ _'_p_o_s_'_:_ _'_P_D_T_'_}_,_ _'_?_'_,_ _{_'_n_o_d_e_T_y_p_e_'_:_ _'_N_o_u_n_C_h_u_n_k_'_}_,_ _{_'_n_o_d_e_T_y_p_e_'_:_ _'_T_o_k_e_n_'_,_ _'_p_o_s_'_:_ _'_I_N_'_}_,_ _'_?_'_,_ _{_'_n_o_d_e_T_y_p_e_'_:_ _'_T_o_k_e_n_'_,_ _'_p_o_s_'_:_ _'_P_D_T_'_}_,_ _'_?_'_,_ _{_'_n_o_d_e_T_y_p_e_'_:_ _'_N_o_u_n_C_h_u_n_k_'_}_,_ _'_?_'_,_ _'_(_'_,_ _{_'_t_e_n_s_e_'_:_ _'_I_N_F_I_N_I_T_I_V_E_'_,_ _'_n_o_d_e_T_y_p_e_'_:_ _'_V_e_r_b_C_h_u_n_k_'_}_,_ _'_|_'_,_ _{_'_t_e_x_t_'_:_ _'_t_o_'_,_ _'_p_o_s_'_:_ _'_T_O_'_}_,_ _{_'_p_o_s_'_:_ _'_U_H_'_}_,_ _'_?_'_,_ _'_(_'_,_ _{_'_n_o_d_e_T_y_p_e_'_:_ _'_V_e_r_b_C_h_u_n_k_'_,_ _'_e_v_e_n_t_S_t_a_t_u_s_'_:_ _'_1_'_}_,_ _'_|_'_,_ _{_'_n_o_d_e_T_y_p_e_'_:_ _'_N_o_u_n_C_h_u_n_k_'_,_ _'_e_v_e_n_t_S_t_a_t_u_s_'_:_ _'_1_'_}_,_ _'_)_'_,_ _'_)_'_]"
p432
sg17
I0
sg18
(lp433
I4
aI0
aI1
aI2
aI3
aI8
aI9
aI5
aI6
aI7
asg20
(dp434
sg22
I1
sg23
(lp435
(I0
I1
S"{'nodeType': 'Token', 'pos': 'IN'}"
tp436
a(I1
I2
S"{'nodeType': 'NounChunk'}"
p437
tp438
a(I1
I3
S"{'nodeType': 'Token', 'pos': 'PDT'}"
tp439
a(I2
I4
S"{'tense': 'INFINITIVE', 'nodeType': 'VerbChunk'}"
p440
tp441
a(I2
I5
S"{'nodeType': 'Token', 'pos': 'IN'}"
tp442
a(I2
I6
S"{'nodeType': 'Token', 'pos': 'PDT'}"
p443
tp444
a(I2
I7
S"{'nodeType': 'NounChunk'}"
p445
tp446
a(I2
I8
S"{'text': 'to', 'pos': 'TO'}"
p447
tp448
a(I3
I2
g437
tp449
a(I5
I7
g445
tp450
a(I5
I4
g440
tp451
a(I5
I6
g443
tp452
a(I5
I8
g447
tp453
a(I6
I7
g445
tp454
a(I6
I4
g440
tp455
a(I6
I8
g447
tp456
a(I7
I4
g440
tp457
a(I7
I8
g447
tp458
a(I8
I4
S"{'nodeType': 'NounChunk', 'eventStatus': '1'}"
tp459
a(I8
I4
S"{'nodeType': 'VerbChunk', 'eventStatus': '1'}"
tp460
a(I8
I9
S"{'pos': 'UH'}"
tp461
a(I9
I4
S"{'nodeType': 'NounChunk', 'eventStatus': '1'}"
tp462
a(I9
I4
S"{'nodeType': 'VerbChunk', 'eventStatus': '1'}"
tp463
asg83
I1
sg84
I1
sbaa(lp464
g7
ag284
aa(lp465
(iutilities.FSA
FSA
p466
(dp467
g9
S'againstING_clause'
p468
sg11
(lp469
I5
asg13
I1
sg14
Nsg15
S"[_{_'_n_o_d_e_T_y_p_e_'_:_ _'_T_o_k_e_n_'_,_ _'_p_o_s_'_:_ _'_I_N_'_}_,_ _'_?_'_,_ _{_'_n_o_d_e_T_y_p_e_'_:_ _'_T_o_k_e_n_'_,_ _'_p_o_s_'_:_ _'_P_D_T_'_}_,_ _'_?_'_,_ _{_'_n_o_d_e_T_y_p_e_'_:_ _'_N_o_u_n_C_h_u_n_k_'_}_,_ _'_?_'_,_ _{_'_t_e_x_t_'_:_ _'_a_g_a_i_n_s_t_'_}_,_ _{_'_n_o_d_e_T_y_p_e_'_:_ _'_V_e_r_b_C_h_u_n_k_'_,_ _'_e_v_e_n_t_S_t_a_t_u_s_'_:_ _'_1_'_}_]"
p470
sg17
I0
sg18
(lp471
I0
aI1
aI2
aI3
aI4
aI5
asg20
(dp472
sg22
I1
sg23
(lp473
(I0
I1
S"{'nodeType': 'Token', 'pos': 'IN'}"
tp474
a(I0
I2
S"{'nodeType': 'NounChunk'}"
p475
tp476
a(I0
I3
S"{'nodeType': 'Token', 'pos': 'PDT'}"
p477
tp478
a(I0
I4
S"{'text': 'against'}"
p479
tp480
a(I1
I2
g475
tp481
a(I1
I3
g477
tp482
a(I1
I4
g479
tp483
a(I2
I4
g479
tp484
a(I3
I2
g475
tp485
a(I3
I4
g479
tp486
a(I4
I5
S"{'nodeType': 'VerbChunk', 'eventStatus': '1'}"
tp487
asg83
I1
sg84
I1
sbaa(lp488
g222
ag222
ag222
atp489
ssS'renunciations'
p490
(dp491
g4
((lp492
(lp493
g86
aa(lp494
S'COUNTER_FACTIVE'
p495
atp496
ssS'delays'
p497
(dp498
g4
((lp499
(lp500
g86
ag198
aa(lp501
g222
atp502
ssS'assertion'
p503
(dp504
g4
((lp505
(lp506
g7
ag228
aa(lp507
g408
atp508
ssS'charge'
p509
(dp510
g4
((lp511
(lp512
(iutilities.FSA
FSA
p513
(dp514
g9
S'forING_clause'
p515
sg11
(lp516
I5
asg13
I1
sg14
Nsg15
S"[_{_'_n_o_d_e_T_y_p_e_'_:_ _'_T_o_k_e_n_'_,_ _'_p_o_s_'_:_ _'_I_N_'_}_,_ _'_?_'_,_ _{_'_n_o_d_e_T_y_p_e_'_:_ _'_T_o_k_e_n_'_,_ _'_p_o_s_'_:_ _'_P_D_T_'_}_,_ _'_?_'_,_ _{_'_n_o_d_e_T_y_p_e_'_:_ _'_N_o_u_n_C_h_u_n_k_'_}_,_ _'_?_'_,_ _{_'_t_e_x_t_'_:_ _'_f_o_r_'_}_,_ _{_'_n_o_d_e_T_y_p_e_'_:_ _'_V_e_r_b_C_h_u_n_k_'_,_ _'_e_v_e_n_t_S_t_a_t_u_s_'_:_ _'_1_'_}_]"
p517
sg17
I0
sg18
(lp518
I0
aI1
aI2
aI3
aI4
aI5
asg20
(dp519
sg22
I1
sg23
(lp520
(I0
I1
S"{'nodeType': 'Token', 'pos': 'IN'}"
tp521
a(I0
I2
S"{'nodeType': 'NounChunk'}"
p522
tp523
a(I0
I3
S"{'nodeType': 'Token', 'pos': 'PDT'}"
p524
tp525
a(I0
I4
S"{'text': 'for'}"
p526
tp527
a(I1
I2
g522
tp528
a(I1
I3
g524
tp529
a(I1
I4
g526
tp530
a(I2
I4
g526
tp531
a(I3
I2
g522
tp532
a(I3
I4
g526
tp533
a(I4
I5
S"{'nodeType': 'VerbChunk', 'eventStatus': '1'}"
tp534
asg83
I1
sg84
I1
sbaa(lp535
g198
ag86
aa(lp536
g7
ag284
aa(lp537
g117
ag222
ag222
atp538
ssS'avowal'
p539
(dp540
g4
((lp541
(lp542
g86
aa(lp543
g124
ag144
aa(lp544
g117
ag222
atp545
ssS'regrets'
p546
(dp547
g4
((lp548
(lp549
(iutilities.FSA
FSA
p550
(dp551
g9
S'at_NPev'
p552
sg11
(lp553
I4
asg13
I1
sg14
Nsg15
S"[_{_'_n_o_d_e_T_y_p_e_'_:_ _'_T_o_k_e_n_'_,_ _'_p_o_s_'_:_ _'_P_D_T_'_}_,_ _'_?_'_,_ _{_'_n_o_d_e_T_y_p_e_'_:_ _'_N_o_u_n_C_h_u_n_k_'_}_,_ _'_?_'_,_ _{_'_t_e_x_t_'_:_ _'_a_t_'_,_ _'_n_o_d_e_T_y_p_e_'_:_ _'_T_o_k_e_n_'_}_,_ _{_'_n_o_d_e_T_y_p_e_'_:_ _'_T_o_k_e_n_'_,_ _'_p_o_s_'_:_ _'_P_D_T_'_}_,_ _'_?_'_,_ _'_(_'_,_ _{_'_n_o_d_e_T_y_p_e_'_:_ _'_N_o_u_n_C_h_u_n_k_'_,_ _'_e_v_e_n_t_S_t_a_t_u_s_'_:_ _'_1_'_}_,_ _'_|_'_,_ _{_'_n_o_d_e_T_y_p_e_'_:_ _'_T_o_k_e_n_'_,_ _'_p_o_s_'_:_ _'_D_T_'_}_,_ _'_(_'_,_ _{_'_n_o_d_e_T_y_p_e_'_:_ _'_T_o_k_e_n_'_,_ _'_p_o_s_'_:_ _[_'_J_J_'_,_ _'_J_J_R_'_,_ _'_J_J_S_'_]_}_,_ _'_|_'_,_ _{_'_n_o_d_e_T_y_p_e_'_:_ _'_V_e_r_b_C_h_u_n_k_'_,_ _'_p_o_s_'_:_ _[_'_V_G_B_'_,_ _'_V_B_N_'_]_}_,_ _'_|_'_,_ _'_|_'_,_ _{_'_p_o_s_'_:_ _'_S_Y_M_'_}_,_ _'_)_'_,_ _'_*_'_,_ _{_'_n_o_d_e_T_y_p_e_'_:_ _'_T_o_k_e_n_'_,_ _'_p_o_s_'_:_ _'_C_D_'_}_,_ _'_*_'_,_ _{_'_n_o_d_e_T_y_p_e_'_:_ _'_N_o_u_n_C_h_u_n_k_'_}_,_ _'_)_'_]"
p554
sg17
I0
sg18
(lp555
I7
aI0
aI1
aI2
aI3
aI4
aI5
aI6
asg20
(dp556
sg22
I1
sg23
(lp557
(I0
I1
S"{'nodeType': 'NounChunk'}"
p558
tp559
a(I0
I2
S"{'nodeType': 'Token', 'pos': 'PDT'}"
tp560
a(I0
I3
S"{'text': 'at', 'nodeType': 'Token'}"
p561
tp562
a(I1
I3
g561
tp563
a(I2
I1
g558
tp564
a(I2
I3
g561
tp565
a(I3
I4
S"{'nodeType': 'NounChunk', 'eventStatus': '1'}"
p566
tp567
a(I3
I5
S"{'nodeType': 'Token', 'pos': 'PDT'}"
tp568
a(I3
I6
S"{'nodeType': 'Token', 'pos': 'DT'}"
p569
tp570
a(I5
I4
g566
tp571
a(I5
I6
g569
tp572
a(I6
I4
S"{'nodeType': 'NounChunk'}"
tp573
a(I6
I6
S"{'nodeType': 'Token', 'pos': ['JJ', 'JJR', 'JJS']}"
tp574
a(I6
I6
S"{'nodeType': 'VerbChunk', 'pos': ['VGB', 'VBN']}"
tp575
a(I6
I6
S"{'pos': 'SYM'}"
tp576
a(I6
I7
S"{'nodeType': 'Token', 'pos': 'CD'}"
tp577
a(I7
I4
S"{'nodeType': 'NounChunk'}"
tp578
a(I7
I7
S"{'nodeType': 'Token', 'pos': 'CD'}"
tp579
asg83
I1
sg84
I1
sba(iutilities.FSA
FSA
p580
(dp581
g9
S'for_NPev'
p582
sg11
(lp583
I4
asg13
I1
sg14
Nsg15
S"[_{_'_n_o_d_e_T_y_p_e_'_:_ _'_T_o_k_e_n_'_,_ _'_p_o_s_'_:_ _'_P_D_T_'_}_,_ _'_?_'_,_ _{_'_n_o_d_e_T_y_p_e_'_:_ _'_N_o_u_n_C_h_u_n_k_'_}_,_ _'_?_'_,_ _{_'_t_e_x_t_'_:_ _'_f_o_r_'_}_,_ _{_'_n_o_d_e_T_y_p_e_'_:_ _'_T_o_k_e_n_'_,_ _'_p_o_s_'_:_ _'_P_D_T_'_}_,_ _'_?_'_,_ _'_(_'_,_ _{_'_n_o_d_e_T_y_p_e_'_:_ _'_N_o_u_n_C_h_u_n_k_'_,_ _'_e_v_e_n_t_S_t_a_t_u_s_'_:_ _'_1_'_}_,_ _'_|_'_,_ _{_'_n_o_d_e_T_y_p_e_'_:_ _'_T_o_k_e_n_'_,_ _'_p_o_s_'_:_ _'_D_T_'_}_,_ _'_(_'_,_ _{_'_n_o_d_e_T_y_p_e_'_:_ _'_T_o_k_e_n_'_,_ _'_p_o_s_'_:_ _[_'_J_J_'_,_ _'_J_J_R_'_,_ _'_J_J_S_'_]_}_,_ _'_|_'_,_ _{_'_n_o_d_e_T_y_p_e_'_:_ _'_V_e_r_b_C_h_u_n_k_'_,_ _'_p_o_s_'_:_ _[_'_V_G_B_'_,_ _'_V_B_N_'_]_}_,_ _'_|_'_,_ _'_|_'_,_ _{_'_p_o_s_'_:_ _'_S_Y_M_'_}_,_ _'_)_'_,_ _'_*_'_,_ _{_'_n_o_d_e_T_y_p_e_'_:_ _'_T_o_k_e_n_'_,_ _'_p_o_s_'_:_ _'_C_D_'_}_,_ _'_*_'_,_ _{_'_n_o_d_e_T_y_p_e_'_:_ _'_N_o_u_n_C_h_u_n_k_'_}_,_ _'_)_'_]"
p584
sg17
I0
sg18
(lp585
I7
aI0
aI1
aI2
aI3
aI4
aI5
aI6
asg20
(dp586
sg22
I1
sg23
(lp587
(I0
I1
S"{'nodeType': 'NounChunk'}"
p588
tp589
a(I0
I2
S"{'nodeType': 'Token', 'pos': 'PDT'}"
tp590
a(I0
I3
S"{'text': 'for'}"
p591
tp592
a(I1
I3
g591
tp593
a(I2
I1
g588
tp594
a(I2
I3
g591
tp595
a(I3
I4
S"{'nodeType': 'NounChunk', 'eventStatus': '1'}"
p596
tp597
a(I3
I5
S"{'nodeType': 'Token', 'pos': 'PDT'}"
tp598
a(I3
I6
S"{'nodeType': 'Token', 'pos': 'DT'}"
p599
tp600
a(I5
I4
g596
tp601
a(I5
I6
g599
tp602
a(I6
I4
S"{'nodeType': 'NounChunk'}"
tp603
a(I6
I6
S"{'nodeType': 'Token', 'pos': ['JJ', 'JJR', 'JJS']}"
tp604
a(I6
I6
S"{'nodeType': 'VerbChunk', 'pos': ['VGB', 'VBN']}"
tp605
a(I6
I6
S"{'pos': 'SYM'}"
tp606
a(I6
I7
S"{'nodeType': 'Token', 'pos': 'CD'}"
tp607
a(I7
I4
S"{'nodeType': 'NounChunk'}"
tp608
a(I7
I7
S"{'nodeType': 'Token', 'pos': 'CD'}"
tp609
asg83
I1
sg84
I1
sbaa(lp610
g117
atp611
ssS'hope'
p612
(dp613
g4
((lp614
(lp615
g124
ag144
ag428
aa(lp616
g7
ag284
aa(lp617
g222
ag222
atp618
ssS'conjecture'
p619
(dp620
g4
((lp621
(lp622
g355
aa(lp623
g7
a(iutilities.FSA
FSA
p624
(dp625
g9
S'thatClause_SIMPLE'
p626
sg11
(lp627
I1
asg13
I1
sg14
Nsg15
S"[_'_(_'_,_ _{_'_t_e_n_s_e_'_:_ _[_'_P_A_S_T_'_,_ _'_P_R_E_S_E_N_T_'_,_ _'_F_U_T_U_R_E_'_]_,_ _'_n_o_d_e_T_y_p_e_'_:_ _[_'_C_h_u_n_k_'_,_ _'_N_o_u_n_C_h_u_n_k_'_,_ _'_V_e_r_b_C_h_u_n_k_'_,_ _'_A_d_j_e_c_t_i_v_e_T_o_k_e_n_'_]_}_,_ _'_|_'_,_ _{_'_n_o_d_e_T_y_p_e_'_:_ _[_'_C_h_u_n_k_'_,_ _'_N_o_u_n_C_h_u_n_k_'_,_ _'_V_e_r_b_C_h_u_n_k_'_,_ _'_A_d_j_e_c_t_i_v_e_T_o_k_e_n_'_]_,_ _'_m_o_d_a_l_i_t_y_'_:_ _[_'_m_a_y_'_,_ _'_c_a_n_'_,_ _'_m_u_s_t_'_,_ _'_m_i_g_h_t_'_,_ _'_c_o_u_l_d_'_,_ _'_s_h_o_u_l_d_'_,_ _'_w_o_u_l_d_'_,_ _'_o_u_g_h_t_'_,_ _'_h_a_v_e_ _t_o_'_]_}_,_ _'_)_'_]"
p628
sg17
I0
sg18
(lp629
I0
aI1
asg20
(dp630
sg22
I1
sg23
(lp631
(I0
I1
S"{'nodeType': ['Chunk', 'NounChunk', 'VerbChunk', 'AdjectiveToken'], 'modality': ['may', 'can', 'must', 'might', 'could', 'should', 'would', 'ought', 'have to']}"
tp632
a(I0
I1
S"{'tense': ['PAST', 'PRESENT', 'FUTURE'], 'nodeType': ['Chunk', 'NounChunk', 'VerbChunk', 'AdjectiveToken']}"
tp633
asg83
I1
sg84
I1
sbag228
ag284
ag321
aa(lp634
g117
ag222
atp635
ssS'confirmation'
p636
(dp637
g4
((lp638
(lp639
g7
a(iutilities.FSA
FSA
p640
(dp641
g9
S'thatClause_if'
p642
sg11
(lp643
I4
asg13
I1
sg14
Nsg15
S'[_{_\'_t_e_x_t_\'_:_ _(_\'_^_\'_,_ _[_\'_,_\'_]_)_}_,_ _{_\'_t_e_x_t_\'_:_ _(_\'_^_\'_,_ _[_\'_;_\'_,_ _\'_._\'_,_ _\'_!_\'_,_ _\'_?_\'_,_ _\'_._._._\'_,_ _\'_"_\'_,_ _\'_`_`_\'_]_)_,_ _\'_p_o_s_\'_:_ _(_\'_^_\'_,_ _[_\'_W_P_\'_,_ _\'_W_D_T_\'_,_ _\'_W_R_B_\'_,_ _\'_"_\'_,_ _"_\'_\'_"_,_ _\'_`_`_\'_]_)_}_,_ _\'_?_\'_,_ _{_\'_t_e_x_t_\'_:_ _(_\'_^_\'_,_ _[_\'_;_\'_,_ _\'_._\'_,_ _\'_!_\'_,_ _\'_?_\'_,_ _\'_._._._\'_,_ _\'_"_\'_,_ _\'_`_`_\'_]_)_,_ _\'_p_o_s_\'_:_ _(_\'_^_\'_,_ _[_\'_W_P_\'_,_ _\'_W_D_T_\'_,_ _\'_W_R_B_\'_,_ _\'_"_\'_,_ _"_\'_\'_"_,_ _\'_`_`_\'_]_)_}_,_ _\'_?_\'_,_ _{_\'_t_e_x_t_\'_:_ _[_\'_i_f_\'_,_ _\'_w_h_e_t_h_e_r_\'_]_,_ _\'_n_o_d_e_T_y_p_e_\'_:_ _\'_T_o_k_e_n_\'_}_,_ _{_\'_t_e_x_t_\'_:_ _(_\'_^_\'_,_ _[_\'_;_\'_,_ _\'_._\'_,_ _\'_!_\'_,_ _\'_?_\'_,_ _\'_._._._\'_,_ _\'_"_\'_,_ _\'_`_`_\'_]_)_,_ _\'_p_o_s_\'_:_ _(_\'_^_\'_,_ _[_\'_W_P_\'_,_ _\'_W_D_T_\'_,_ _\'_W_R_B_\'_,_ _\'_"_\'_,_ _"_\'_\'_"_,_ _\'_`_`_\'_]_)_}_,_ _\'_?_\'_,_ _{_\'_t_e_x_t_\'_:_ _(_\'_^_\'_,_ _[_\'_;_\'_,_ _\'_._\'_,_ _\'_!_\'_,_ _\'_?_\'_,_ _\'_._._._\'_,_ _\'_"_\'_,_ _\'_`_`_\'_]_)_,_ _\'_p_o_s_\'_:_ _(_\'_^_\'_,_ _[_\'_W_P_\'_,_ _\'_W_D_T_\'_,_ _\'_W_R_B_\'_,_ _\'_"_\'_,_ _"_\'_\'_"_,_ _\'_`_`_\'_]_)_}_,_ _\'_?_\'_,_ _{_\'_t_e_x_t_\'_:_ _(_\'_^_\'_,_ _[_\'_;_\'_,_ _\'_._\'_,_ _\'_!_\'_,_ _\'_?_\'_,_ _\'_._._._\'_,_ _\'_"_\'_,_ _\'_`_`_\'_]_)_,_ _\'_p_o_s_\'_:_ _(_\'_^_\'_,_ _[_\'_W_P_\'_,_ _\'_W_D_T_\'_,_ _\'_W_R_B_\'_,_ _\'_"_\'_,_ _"_\'_\'_"_,_ _\'_`_`_\'_]_)_}_,_ _\'_?_\'_,_ _{_\'_t_e_x_t_\'_:_ _(_\'_^_\'_,_ _[_\'_;_\'_,_ _\'_._\'_,_ _\'_!_\'_,_ _\'_?_\'_,_ _\'_._._._\'_,_ _\'_"_\'_,_ _\'_`_`_\'_]_)_,_ _\'_p_o_s_\'_:_ _(_\'_^_\'_,_ _[_\'_W_P_\'_,_ _\'_W_D_T_\'_,_ _\'_W_R_B_\'_,_ _\'_"_\'_,_ _"_\'_\'_"_,_ _\'_`_`_\'_]_)_}_,_ _\'_?_\'_,_ _{_\'_t_e_x_t_\'_:_ _(_\'_^_\'_,_ _[_\'_;_\'_,_ _\'_._\'_,_ _\'_!_\'_,_ _\'_?_\'_,_ _\'_._._._\'_,_ _\'_"_\'_,_ _\'_`_`_\'_]_)_,_ _\'_p_o_s_\'_:_ _(_\'_^_\'_,_ _[_\'_W_P_\'_,_ _\'_W_D_T_\'_,_ _\'_W_R_B_\'_,_ _\'_"_\'_,_ _"_\'_\'_"_,_ _\'_`_`_\'_]_)_}_,_ _\'_?_\'_,_ _{_\'_t_e_x_t_\'_:_ _(_\'_^_\'_,_ _[_\'_;_\'_,_ _\'_._\'_,_ _\'_!_\'_,_ _\'_?_\'_,_ _\'_._._._\'_,_ _\'_"_\'_,_ _\'_`_`_\'_]_)_,_ _\'_p_o_s_\'_:_ _(_\'_^_\'_,_ _[_\'_W_P_\'_,_ _\'_W_D_T_\'_,_ _\'_W_R_B_\'_,_ _\'_"_\'_,_ _"_\'_\'_"_,_ _\'_`_`_\'_]_)_}_,_ _\'_?_\'_,_ _\'_(_\'_,_ _{_\'_t_e_n_s_e_\'_:_ _[_\'_P_A_S_T_\'_,_ _\'_P_R_E_S_E_N_T_\'_,_ _\'_F_U_T_U_R_E_\'_]_,_ _\'_n_o_d_e_T_y_p_e_\'_:_ _[_\'_C_h_u_n_k_\'_,_ _\'_N_o_u_n_C_h_u_n_k_\'_,_ _\'_V_e_r_b_C_h_u_n_k_\'_,_ _\'_A_d_j_e_c_t_i_v_e_T_o_k_e_n_\'_]_}_,_ _\'_|_\'_,_ _{_\'_n_o_d_e_T_y_p_e_\'_:_ _[_\'_C_h_u_n_k_\'_,_ _\'_N_o_u_n_C_h_u_n_k_\'_,_ _\'_V_e_r_b_C_h_u_n_k_\'_,_ _\'_A_d_j_e_c_t_i_v_e_T_o_k_e_n_\'_]_,_ _\'_m_o_d_a_l_i_t_y_\'_:_ _[_\'_m_a_y_\'_,_ _\'_c_a_n_\'_,_ _\'_m_u_s_t_\'_,_ _\'_m_i_g_h_t_\'_,_ _\'_c_o_u_l_d_\'_,_ _\'_s_h_o_u_l_d_\'_,_ _\'_w_o_u_l_d_\'_,_ _\'_o_u_g_h_t_\'_,_ _\'_h_a_v_e_ _t_o_\'_]_}_,_ _\'_)_\'_]'
p644
sg17
I0
sg18
(lp645
I0
aI1
aI2
aI3
aI4
aI7
aI8
aI5
aI9
aI6
aI10
aI11
asg20
(dp646
sg22
I1
sg23
(lp647
(I0
I1
S"{'text': ('^', [','])}"
tp648
a(I1
I2
S"{'text': ['if', 'whether'], 'nodeType': 'Token'}"
p649
tp650
a(I1
I3
S'{\'text\': (\'^\', [\';\', \'.\', \'!\', \'?\', \'...\', \'"\', \'``\']), \'pos\': (\'^\', [\'WP\', \'WDT\', \'WRB\', \'"\', "\'\'", \'``\'])}'
tp651
a(I2
I4
S"{'nodeType': ['Chunk', 'NounChunk', 'VerbChunk', 'AdjectiveToken'], 'modality': ['may', 'can', 'must', 'might', 'could', 'should', 'would', 'ought', 'have to']}"
tp652
a(I2
I4
S"{'tense': ['PAST', 'PRESENT', 'FUTURE'], 'nodeType': ['Chunk', 'NounChunk', 'VerbChunk', 'AdjectiveToken']}"
tp653
a(I2
I5
S'{\'text\': (\'^\', [\';\', \'.\', \'!\', \'?\', \'...\', \'"\', \'``\']), \'pos\': (\'^\', [\'WP\', \'WDT\', \'WRB\', \'"\', "\'\'", \'``\'])}'
tp654
a(I3
I2
g649
tp655
a(I3
I6
S'{\'text\': (\'^\', [\';\', \'.\', \'!\', \'?\', \'...\', \'"\', \'``\']), \'pos\': (\'^\', [\'WP\', \'WDT\', \'WRB\', \'"\', "\'\'", \'``\'])}'
tp656
a(I5
I4
S"{'nodeType': ['Chunk', 'NounChunk', 'VerbChunk', 'AdjectiveToken'], 'modality': ['may', 'can', 'must', 'might', 'could', 'should', 'would', 'ought', 'have to']}"
tp657
a(I5
I4
S"{'tense': ['PAST', 'PRESENT', 'FUTURE'], 'nodeType': ['Chunk', 'NounChunk', 'VerbChunk', 'AdjectiveToken']}"
tp658
a(I5
I7
S'{\'text\': (\'^\', [\';\', \'.\', \'!\', \'?\', \'...\', \'"\', \'``\']), \'pos\': (\'^\', [\'WP\', \'WDT\', \'WRB\', \'"\', "\'\'", \'``\'])}'
tp659
a(I6
I2
g649
tp660
a(I7
I4
S"{'nodeType': ['Chunk', 'NounChunk', 'VerbChunk', 'AdjectiveToken'], 'modality': ['may', 'can', 'must', 'might', 'could', 'should', 'would', 'ought', 'have to']}"
tp661
a(I7
I4
S"{'tense': ['PAST', 'PRESENT', 'FUTURE'], 'nodeType': ['Chunk', 'NounChunk', 'VerbChunk', 'AdjectiveToken']}"
tp662
a(I7
I8
S'{\'text\': (\'^\', [\';\', \'.\', \'!\', \'?\', \'...\', \'"\', \'``\']), \'pos\': (\'^\', [\'WP\', \'WDT\', \'WRB\', \'"\', "\'\'", \'``\'])}'
tp663
a(I8
I4
S"{'nodeType': ['Chunk', 'NounChunk', 'VerbChunk', 'AdjectiveToken'], 'modality': ['may', 'can', 'must', 'might', 'could', 'should', 'would', 'ought', 'have to']}"
tp664
a(I8
I4
S"{'tense': ['PAST', 'PRESENT', 'FUTURE'], 'nodeType': ['Chunk', 'NounChunk', 'VerbChunk', 'AdjectiveToken']}"
tp665
a(I8
I9
S'{\'text\': (\'^\', [\';\', \'.\', \'!\', \'?\', \'...\', \'"\', \'``\']), \'pos\': (\'^\', [\'WP\', \'WDT\', \'WRB\', \'"\', "\'\'", \'``\'])}'
tp666
a(I9
I4
S"{'nodeType': ['Chunk', 'NounChunk', 'VerbChunk', 'AdjectiveToken'], 'modality': ['may', 'can', 'must', 'might', 'could', 'should', 'would', 'ought', 'have to']}"
tp667
a(I9
I4
S"{'tense': ['PAST', 'PRESENT', 'FUTURE'], 'nodeType': ['Chunk', 'NounChunk', 'VerbChunk', 'AdjectiveToken']}"
tp668
a(I9
I10
S'{\'text\': (\'^\', [\';\', \'.\', \'!\', \'?\', \'...\', \'"\', \'``\']), \'pos\': (\'^\', [\'WP\', \'WDT\', \'WRB\', \'"\', "\'\'", \'``\'])}'
tp669
a(I10
I4
S"{'nodeType': ['Chunk', 'NounChunk', 'VerbChunk', 'AdjectiveToken'], 'modality': ['may', 'can', 'must', 'might', 'could', 'should', 'would', 'ought', 'have to']}"
tp670
a(I10
I4
S"{'tense': ['PAST', 'PRESENT', 'FUTURE'], 'nodeType': ['Chunk', 'NounChunk', 'VerbChunk', 'AdjectiveToken']}"
tp671
a(I10
I11
S'{\'text\': (\'^\', [\';\', \'.\', \'!\', \'?\', \'...\', \'"\', \'``\']), \'pos\': (\'^\', [\'WP\', \'WDT\', \'WRB\', \'"\', "\'\'", \'``\'])}'
tp672
a(I11
I4
S"{'nodeType': ['Chunk', 'NounChunk', 'VerbChunk', 'AdjectiveToken'], 'modality': ['may', 'can', 'must', 'might', 'could', 'should', 'would', 'ought', 'have to']}"
tp673
a(I11
I4
S"{'tense': ['PAST', 'PRESENT', 'FUTURE'], 'nodeType': ['Chunk', 'NounChunk', 'VerbChunk', 'AdjectiveToken']}"
tp674
asg83
I1
sg84
I1
sba(iutilities.FSA
FSA
p675
(dp676
g9
S'indirectInterrog'
p677
sg11
(lp678
I2
asg13
I1
sg14
Nsg15
S'[_{_\'_t_e_x_t_\'_:_ _[_\'_w_h_o_\'_,_ _\'_w_h_a_t_\'_,_ _\'_w_h_e_n_\'_,_ _\'_w_h_i_c_h_\'_,_ _\'_h_o_w_\'_,_ _\'_w_h_e_r_e_\'_,_ _\'_w_h_y_\'_]_,_ _\'_n_o_d_e_T_y_p_e_\'_:_ _\'_T_o_k_e_n_\'_}_,_ _{_\'_t_e_x_t_\'_:_ _(_\'_^_\'_,_ _[_\'_;_\'_,_ _\'_._\'_,_ _\'_!_\'_,_ _\'_?_\'_,_ _\'_._._._\'_,_ _\'_"_\'_,_ _\'_`_`_\'_]_)_,_ _\'_p_o_s_\'_:_ _(_\'_^_\'_,_ _[_\'_W_P_\'_,_ _\'_W_D_T_\'_,_ _\'_W_R_B_\'_,_ _\'_"_\'_,_ _"_\'_\'_"_,_ _\'_`_`_\'_]_)_}_,_ _\'_?_\'_,_ _{_\'_t_e_x_t_\'_:_ _(_\'_^_\'_,_ _[_\'_;_\'_,_ _\'_._\'_,_ _\'_!_\'_,_ _\'_?_\'_,_ _\'_._._._\'_,_ _\'_"_\'_,_ _\'_`_`_\'_]_)_,_ _\'_p_o_s_\'_:_ _(_\'_^_\'_,_ _[_\'_W_P_\'_,_ _\'_W_D_T_\'_,_ _\'_W_R_B_\'_,_ _\'_"_\'_,_ _"_\'_\'_"_,_ _\'_`_`_\'_]_)_}_,_ _\'_?_\'_,_ _{_\'_t_e_x_t_\'_:_ _(_\'_^_\'_,_ _[_\'_;_\'_,_ _\'_._\'_,_ _\'_!_\'_,_ _\'_?_\'_,_ _\'_._._._\'_,_ _\'_"_\'_,_ _\'_`_`_\'_]_)_,_ _\'_p_o_s_\'_:_ _(_\'_^_\'_,_ _[_\'_W_P_\'_,_ _\'_W_D_T_\'_,_ _\'_W_R_B_\'_,_ _\'_"_\'_,_ _"_\'_\'_"_,_ _\'_`_`_\'_]_)_}_,_ _\'_?_\'_,_ _{_\'_t_e_x_t_\'_:_ _(_\'_^_\'_,_ _[_\'_;_\'_,_ _\'_._\'_,_ _\'_!_\'_,_ _\'_?_\'_,_ _\'_._._._\'_,_ _\'_"_\'_,_ _\'_`_`_\'_]_)_,_ _\'_p_o_s_\'_:_ _(_\'_^_\'_,_ _[_\'_W_P_\'_,_ _\'_W_D_T_\'_,_ _\'_W_R_B_\'_,_ _\'_"_\'_,_ _"_\'_\'_"_,_ _\'_`_`_\'_]_)_}_,_ _\'_?_\'_,_ _{_\'_t_e_x_t_\'_:_ _(_\'_^_\'_,_ _[_\'_;_\'_,_ _\'_._\'_,_ _\'_!_\'_,_ _\'_?_\'_,_ _\'_._._._\'_,_ _\'_"_\'_,_ _\'_`_`_\'_]_)_,_ _\'_p_o_s_\'_:_ _(_\'_^_\'_,_ _[_\'_W_P_\'_,_ _\'_W_D_T_\'_,_ _\'_W_R_B_\'_,_ _\'_"_\'_,_ _"_\'_\'_"_,_ _\'_`_`_\'_]_)_}_,_ _\'_?_\'_,_ _{_\'_t_e_x_t_\'_:_ _(_\'_^_\'_,_ _[_\'_;_\'_,_ _\'_._\'_,_ _\'_!_\'_,_ _\'_?_\'_,_ _\'_._._._\'_,_ _\'_"_\'_,_ _\'_`_`_\'_]_)_,_ _\'_p_o_s_\'_:_ _(_\'_^_\'_,_ _[_\'_W_P_\'_,_ _\'_W_D_T_\'_,_ _\'_W_R_B_\'_,_ _\'_"_\'_,_ _"_\'_\'_"_,_ _\'_`_`_\'_]_)_}_,_ _\'_?_\'_,_ _\'_(_\'_,_ _{_\'_t_e_n_s_e_\'_:_ _[_\'_P_A_S_T_\'_,_ _\'_P_R_E_S_E_N_T_\'_,_ _\'_F_U_T_U_R_E_\'_]_,_ _\'_n_o_d_e_T_y_p_e_\'_:_ _[_\'_C_h_u_n_k_\'_,_ _\'_N_o_u_n_C_h_u_n_k_\'_,_ _\'_V_e_r_b_C_h_u_n_k_\'_,_ _\'_A_d_j_e_c_t_i_v_e_T_o_k_e_n_\'_]_}_,_ _\'_|_\'_,_ _{_\'_n_o_d_e_T_y_p_e_\'_:_ _[_\'_C_h_u_n_k_\'_,_ _\'_N_o_u_n_C_h_u_n_k_\'_,_ _\'_V_e_r_b_C_h_u_n_k_\'_,_ _\'_A_d_j_e_c_t_i_v_e_T_o_k_e_n_\'_]_,_ _\'_m_o_d_a_l_i_t_y_\'_:_ _[_\'_m_a_y_\'_,_ _\'_c_a_n_\'_,_ _\'_m_u_s_t_\'_,_ _\'_m_i_g_h_t_\'_,_ _\'_c_o_u_l_d_\'_,_ _\'_s_h_o_u_l_d_\'_,_ _\'_w_o_u_l_d_\'_,_ _\'_o_u_g_h_t_\'_,_ _\'_h_a_v_e_ _t_o_\'_]_}_,_ _\'_)_\'_]'
p679
sg17
I0
sg18
(lp680
I0
aI1
aI5
aI6
aI3
aI7
aI8
aI4
aI2
asg20
(dp681
sg22
I1
sg23
(lp682
(I0
I1
S"{'text': ['who', 'what', 'when', 'which', 'how', 'where', 'why'], 'nodeType': 'Token'}"
tp683
a(I1
I2
S"{'nodeType': ['Chunk', 'NounChunk', 'VerbChunk', 'AdjectiveToken'], 'modality': ['may', 'can', 'must', 'might', 'could', 'should', 'would', 'ought', 'have to']}"
tp684
a(I1
I2
S"{'tense': ['PAST', 'PRESENT', 'FUTURE'], 'nodeType': ['Chunk', 'NounChunk', 'VerbChunk', 'AdjectiveToken']}"
tp685
a(I1
I3
S'{\'text\': (\'^\', [\';\', \'.\', \'!\', \'?\', \'...\', \'"\', \'``\']), \'pos\': (\'^\', [\'WP\', \'WDT\', \'WRB\', \'"\', "\'\'", \'``\'])}'
tp686
a(I3
I2
S"{'nodeType': ['Chunk', 'NounChunk', 'VerbChunk', 'AdjectiveToken'], 'modality': ['may', 'can', 'must', 'might', 'could', 'should', 'would', 'ought', 'have to']}"
tp687
a(I3
I2
S"{'tense': ['PAST', 'PRESENT', 'FUTURE'], 'nodeType': ['Chunk', 'NounChunk', 'VerbChunk', 'AdjectiveToken']}"
tp688
a(I3
I4
S'{\'text\': (\'^\', [\';\', \'.\', \'!\', \'?\', \'...\', \'"\', \'``\']), \'pos\': (\'^\', [\'WP\', \'WDT\', \'WRB\', \'"\', "\'\'", \'``\'])}'
tp689
a(I4
I2
S"{'nodeType': ['Chunk', 'NounChunk', 'VerbChunk', 'AdjectiveToken'], 'modality': ['may', 'can', 'must', 'might', 'could', 'should', 'would', 'ought', 'have to']}"
tp690
a(I4
I2
S"{'tense': ['PAST', 'PRESENT', 'FUTURE'], 'nodeType': ['Chunk', 'NounChunk', 'VerbChunk', 'AdjectiveToken']}"
tp691
a(I4
I5
S'{\'text\': (\'^\', [\';\', \'.\', \'!\', \'?\', \'...\', \'"\', \'``\']), \'pos\': (\'^\', [\'WP\', \'WDT\', \'WRB\', \'"\', "\'\'", \'``\'])}'
tp692
a(I5
I2
S"{'nodeType': ['Chunk', 'NounChunk', 'VerbChunk', 'AdjectiveToken'], 'modality': ['may', 'can', 'must', 'might', 'could', 'should', 'would', 'ought', 'have to']}"
tp693
a(I5
I2
S"{'tense': ['PAST', 'PRESENT', 'FUTURE'], 'nodeType': ['Chunk', 'NounChunk', 'VerbChunk', 'AdjectiveToken']}"
tp694
a(I5
I6
S'{\'text\': (\'^\', [\';\', \'.\', \'!\', \'?\', \'...\', \'"\', \'``\']), \'pos\': (\'^\', [\'WP\', \'WDT\', \'WRB\', \'"\', "\'\'", \'``\'])}'
tp695
a(I6
I2
S"{'nodeType': ['Chunk', 'NounChunk', 'VerbChunk', 'AdjectiveToken'], 'modality': ['may', 'can', 'must', 'might', 'could', 'should', 'would', 'ought', 'have to']}"
tp696
a(I6
I2
S"{'tense': ['PAST', 'PRESENT', 'FUTURE'], 'nodeType': ['Chunk', 'NounChunk', 'VerbChunk', 'AdjectiveToken']}"
tp697
a(I6
I7
S'{\'text\': (\'^\', [\';\', \'.\', \'!\', \'?\', \'...\', \'"\', \'``\']), \'pos\': (\'^\', [\'WP\', \'WDT\', \'WRB\', \'"\', "\'\'", \'``\'])}'
tp698
a(I7
I2
S"{'nodeType': ['Chunk', 'NounChunk', 'VerbChunk', 'AdjectiveToken'], 'modality': ['may', 'can', 'must', 'might', 'could', 'should', 'would', 'ought', 'have to']}"
tp699
a(I7
I2
S"{'tense': ['PAST', 'PRESENT', 'FUTURE'], 'nodeType': ['Chunk', 'NounChunk', 'VerbChunk', 'AdjectiveToken']}"
tp700
a(I7
I8
S'{\'text\': (\'^\', [\';\', \'.\', \'!\', \'?\', \'...\', \'"\', \'``\']), \'pos\': (\'^\', [\'WP\', \'WDT\', \'WRB\', \'"\', "\'\'", \'``\'])}'
tp701
a(I8
I2
S"{'nodeType': ['Chunk', 'NounChunk', 'VerbChunk', 'AdjectiveToken'], 'modality': ['may', 'can', 'must', 'might', 'could', 'should', 'would', 'ought', 'have to']}"
tp702
a(I8
I2
S"{'tense': ['PAST', 'PRESENT', 'FUTURE'], 'nodeType': ['Chunk', 'NounChunk', 'VerbChunk', 'AdjectiveToken']}"
tp703
asg83
I1
sg84
I1
sbag228
ag284
ag321
aa(lp704
g86
aa(lp705
g408
ag408
atp706
ssS'appointment'
p707
(dp708
g4
((lp709
(lp710
g124
ag144
ag428
aa(lp711
g222
atp712
ssS'expectation'
p713
(dp714
g4
((lp715
(lp716
g124
ag144
aa(lp717
g7
ag284
aa(lp718
g355
ag385
ag86
ag198
aa(lp719
g222
ag222
ag222
atp720
ssS'prohibition'
p721
(dp722
g4
((lp723
(lp724
(iutilities.FSA
FSA
p725
(dp726
g9
S'fromING_clause'
p727
sg11
(lp728
I5
asg13
I1
sg14
Nsg15
S"[_{_'_n_o_d_e_T_y_p_e_'_:_ _'_T_o_k_e_n_'_,_ _'_p_o_s_'_:_ _'_I_N_'_}_,_ _'_?_'_,_ _{_'_n_o_d_e_T_y_p_e_'_:_ _'_T_o_k_e_n_'_,_ _'_p_o_s_'_:_ _'_P_D_T_'_}_,_ _'_?_'_,_ _{_'_n_o_d_e_T_y_p_e_'_:_ _'_N_o_u_n_C_h_u_n_k_'_}_,_ _'_?_'_,_ _{_'_t_e_x_t_'_:_ _'_f_r_o_m_'_}_,_ _{_'_n_o_d_e_T_y_p_e_'_:_ _'_V_e_r_b_C_h_u_n_k_'_,_ _'_e_v_e_n_t_S_t_a_t_u_s_'_:_ _'_1_'_}_]"
p729
sg17
I0
sg18
(lp730
I0
aI1
aI2
aI3
aI4
aI5
asg20
(dp731
sg22
I1
sg23
(lp732
(I0
I1
S"{'nodeType': 'Token', 'pos': 'IN'}"
tp733
a(I0
I2
S"{'nodeType': 'NounChunk'}"
p734
tp735
a(I0
I3
S"{'nodeType': 'Token', 'pos': 'PDT'}"
p736
tp737
a(I0
I4
S"{'text': 'from'}"
p738
tp739
a(I1
I2
g734
tp740
a(I1
I3
g736
tp741
a(I1
I4
g738
tp742
a(I2
I4
g738
tp743
a(I3
I2
g734
tp744
a(I3
I4
g738
tp745
a(I4
I5
S"{'nodeType': 'VerbChunk', 'eventStatus': '1'}"
tp746
asg83
I1
sg84
I1
sba(iutilities.FSA
FSA
p747
(dp748
g9
S'onING_clause'
p749
sg11
(lp750
I5
asg13
I1
sg14
Nsg15
S"[_{_'_n_o_d_e_T_y_p_e_'_:_ _'_T_o_k_e_n_'_,_ _'_p_o_s_'_:_ _'_I_N_'_}_,_ _'_?_'_,_ _{_'_n_o_d_e_T_y_p_e_'_:_ _'_T_o_k_e_n_'_,_ _'_p_o_s_'_:_ _'_P_D_T_'_}_,_ _'_?_'_,_ _{_'_n_o_d_e_T_y_p_e_'_:_ _'_N_o_u_n_C_h_u_n_k_'_}_,_ _'_?_'_,_ _{_'_t_e_x_t_'_:_ _'_o_n_'_}_,_ _{_'_n_o_d_e_T_y_p_e_'_:_ _'_V_e_r_b_C_h_u_n_k_'_,_ _'_e_v_e_n_t_S_t_a_t_u_s_'_:_ _'_1_'_}_]"
p751
sg17
I0
sg18
(lp752
I0
aI1
aI2
aI3
aI4
aI5
asg20
(dp753
sg22
I1
sg23
(lp754
(I0
I1
S"{'nodeType': 'Token', 'pos': 'IN'}"
tp755
a(I0
I2
S"{'nodeType': 'NounChunk'}"
p756
tp757
a(I0
I3
S"{'nodeType': 'Token', 'pos': 'PDT'}"
p758
tp759
a(I0
I4
S"{'text': 'on'}"
p760
tp761
a(I1
I2
g756
tp762
a(I1
I3
g758
tp763
a(I1
I4
g760
tp764
a(I2
I4
g760
tp765
a(I3
I2
g756
tp766
a(I3
I4
g760
tp767
a(I4
I5
S"{'nodeType': 'VerbChunk', 'eventStatus': '1'}"
tp768
asg83
I1
sg84
I1
sbag466
aa(lp769
g222
atp770
ssS'wishes'
p771
(dp772
g4
((lp773
(lp774
g7
ag284
aa(lp775
g124
ag144
aa(lp776
g580
aa(lp777
(iutilities.FSA
FSA
p778
(dp779
g9
S'thatClausePAST_that'
p780
sg11
(lp781
I7
asg13
I1
sg14
Nsg15
S'[_\'_(_\'_,_ _{_\'_t_e_x_t_\'_:_ _(_\'_^_\'_,_ _[_\'_,_\'_]_)_}_,_ _\'_?_\'_,_ _{_\'_t_e_x_t_\'_:_ _(_\'_^_\'_,_ _[_\'_;_\'_,_ _\'_._\'_,_ _\'_!_\'_,_ _\'_?_\'_,_ _\'_._._._\'_,_ _\'_"_\'_,_ _\'_`_`_\'_]_)_,_ _\'_p_o_s_\'_:_ _(_\'_^_\'_,_ _[_\'_W_P_\'_,_ _\'_W_D_T_\'_,_ _\'_W_R_B_\'_,_ _\'_"_\'_,_ _"_\'_\'_"_,_ _\'_`_`_\'_]_)_}_,_ _\'_?_\'_,_ _{_\'_t_e_x_t_\'_:_ _(_\'_^_\'_,_ _[_\'_;_\'_,_ _\'_._\'_,_ _\'_!_\'_,_ _\'_?_\'_,_ _\'_._._._\'_,_ _\'_"_\'_,_ _\'_`_`_\'_]_)_,_ _\'_p_o_s_\'_:_ _(_\'_^_\'_,_ _[_\'_W_P_\'_,_ _\'_W_D_T_\'_,_ _\'_W_R_B_\'_,_ _\'_"_\'_,_ _"_\'_\'_"_,_ _\'_`_`_\'_]_)_}_,_ _\'_?_\'_,_ _\'_|_\'_,_ _{_\'_t_e_x_t_\'_:_ _\'_,_\'_}_,_ _\'_)_\'_,_ _{_\'_t_e_x_t_\'_:_ _[_\'_t_h_a_t_\'_,_ _\'_i_f_\'_,_ _\'_w_h_e_t_h_e_r_\'_]_,_ _\'_n_o_d_e_T_y_p_e_\'_:_ _\'_T_o_k_e_n_\'_,_ _\'_p_o_s_\'_:_ _\'_I_N_\'_}_,_ _{_\'_t_e_x_t_\'_:_ _(_\'_^_\'_,_ _[_\'_;_\'_,_ _\'_._\'_,_ _\'_!_\'_,_ _\'_?_\'_,_ _\'_._._._\'_,_ _\'_"_\'_,_ _\'_`_`_\'_]_)_,_ _\'_p_o_s_\'_:_ _(_\'_^_\'_,_ _[_\'_W_P_\'_,_ _\'_W_D_T_\'_,_ _\'_W_R_B_\'_,_ _\'_"_\'_,_ _"_\'_\'_"_,_ _\'_`_`_\'_]_)_}_,_ _\'_?_\'_,_ _\'_(_\'_,_ _\'_(_\'_,_ _{_\'_n_o_d_e_T_y_p_e_\'_:_ _\'_N_o_u_n_C_h_u_n_k_\'_}_,_ _\'_|_\'_,_ _{_\'_n_o_d_e_T_y_p_e_\'_:_ _\'_T_o_k_e_n_\'_,_ _\'_p_o_s_\'_:_ _\'_I_N_\'_}_,_ _\'_|_\'_,_ _{_\'_n_o_d_e_T_y_p_e_\'_:_ _\'_T_o_k_e_n_\'_,_ _\'_p_o_s_\'_:_ _[_\'_J_J_\'_,_ _\'_J_J_R_\'_,_ _\'_J_J_S_\'_,_ _\'_D_T_\'_,_ _\'_P_D_T_\'_,_ _\'_P_O_S_\'_,_ _\'_C_D_\'_,_ _\'_S_Y_M_\'_]_}_,_ _\'_)_\'_,_ _\'_+_\'_,_ _{_\'_t_e_n_s_e_\'_:_ _\'_P_A_S_T_\'_,_ _\'_e_v_e_n_t_S_t_a_t_u_s_\'_:_ _\'_1_\'_}_,_ _\'_|_\'_,_ _{_\'_t_e_x_t_\'_:_ _(_\'_^_\'_,_ _[_\'_;_\'_,_ _\'_._\'_,_ _\'_!_\'_,_ _\'_?_\'_,_ _\'_._._._\'_,_ _\'_"_\'_,_ _\'_`_`_\'_]_)_,_ _\'_p_o_s_\'_:_ _(_\'_^_\'_,_ _[_\'_W_P_\'_,_ _\'_W_D_T_\'_,_ _\'_W_R_B_\'_,_ _\'_"_\'_,_ _"_\'_\'_"_,_ _\'_`_`_\'_]_)_}_,_ _\'_?_\'_,_ _{_\'_t_e_x_t_\'_:_ _(_\'_^_\'_,_ _[_\'_;_\'_,_ _\'_._\'_,_ _\'_!_\'_,_ _\'_?_\'_,_ _\'_._._._\'_,_ _\'_"_\'_,_ _\'_`_`_\'_]_)_,_ _\'_p_o_s_\'_:_ _(_\'_^_\'_,_ _[_\'_W_P_\'_,_ _\'_W_D_T_\'_,_ _\'_W_R_B_\'_,_ _\'_"_\'_,_ _"_\'_\'_"_,_ _\'_`_`_\'_]_)_}_,_ _\'_?_\'_,_ _{_\'_t_e_x_t_\'_:_ _(_\'_^_\'_,_ _[_\'_;_\'_,_ _\'_._\'_,_ _\'_!_\'_,_ _\'_?_\'_,_ _\'_._._._\'_,_ _\'_"_\'_,_ _\'_`_`_\'_]_)_,_ _\'_p_o_s_\'_:_ _(_\'_^_\'_,_ _[_\'_W_P_\'_,_ _\'_W_D_T_\'_,_ _\'_W_R_B_\'_,_ _\'_"_\'_,_ _"_\'_\'_"_,_ _\'_`_`_\'_]_)_}_,_ _\'_?_\'_,_ _{_\'_t_e_x_t_\'_:_ _(_\'_^_\'_,_ _[_\'_;_\'_,_ _\'_._\'_,_ _\'_!_\'_,_ _\'_?_\'_,_ _\'_._._._\'_,_ _\'_"_\'_,_ _\'_`_`_\'_]_)_,_ _\'_p_o_s_\'_:_ _(_\'_^_\'_,_ _[_\'_W_P_\'_,_ _\'_W_D_T_\'_,_ _\'_W_R_B_\'_,_ _\'_"_\'_,_ _"_\'_\'_"_,_ _\'_`_`_\'_]_)_}_,_ _\'_?_\'_,_ _{_\'_t_e_x_t_\'_:_ _(_\'_^_\'_,_ _[_\'_;_\'_,_ _\'_._\'_,_ _\'_!_\'_,_ _\'_?_\'_,_ _\'_._._._\'_,_ _\'_"_\'_,_ _\'_`_`_\'_]_)_,_ _\'_p_o_s_\'_:_ _(_\'_^_\'_,_ _[_\'_W_P_\'_,_ _\'_W_D_T_\'_,_ _\'_W_R_B_\'_,_ _\'_"_\'_,_ _"_\'_\'_"_,_ _\'_`_`_\'_]_)_}_,_ _\'_?_\'_,_ _{_\'_t_e_n_s_e_\'_:_ _\'_P_A_S_T_\'_,_ _\'_e_v_e_n_t_S_t_a_t_u_s_\'_:_ _\'_1_\'_}_,_ _\'_)_\'_]'
p782
sg17
I0
sg18
(lp783
I9
aI0
aI1
aI7
aI2
aI3
aI6
aI10
aI4
aI11
aI12
aI8
aI5
asg20
(dp784
sg22
I1
sg23
(lp785
(I0
I1
S"{'text': ('^', [','])}"
tp786
a(I0
I2
S"{'text': ['that', 'if', 'whether'], 'nodeType': 'Token', 'pos': 'IN'}"
p787
tp788
a(I0
I3
S"{'text': ','}"
tp789
a(I0
I4
S'{\'text\': (\'^\', [\';\', \'.\', \'!\', \'?\', \'...\', \'"\', \'``\']), \'pos\': (\'^\', [\'WP\', \'WDT\', \'WRB\', \'"\', "\'\'", \'``\'])}'
p790
tp791
a(I1
I2
g787
tp792
a(I1
I4
g790
tp793
a(I2
I5
S"{'nodeType': 'NounChunk'}"
tp794
a(I2
I5
S"{'nodeType': 'Token', 'pos': 'IN'}"
tp795
a(I2
I5
S"{'nodeType': 'Token', 'pos': ['JJ', 'JJR', 'JJS', 'DT', 'PDT', 'POS', 'CD', 'SYM']}"
tp796
a(I2
I6
S'{\'text\': (\'^\', [\';\', \'.\', \'!\', \'?\', \'...\', \'"\', \'``\']), \'pos\': (\'^\', [\'WP\', \'WDT\', \'WRB\', \'"\', "\'\'", \'``\'])}'
tp797
a(I2
I7
S"{'tense': 'PAST', 'eventStatus': '1'}"
p798
tp799
a(I3
I2
g787
tp800
a(I4
I2
g787
tp801
a(I4
I3
S'{\'text\': (\'^\', [\';\', \'.\', \'!\', \'?\', \'...\', \'"\', \'``\']), \'pos\': (\'^\', [\'WP\', \'WDT\', \'WRB\', \'"\', "\'\'", \'``\'])}'
tp802
a(I5
I5
S"{'nodeType': 'NounChunk'}"
tp803
a(I5
I5
S"{'nodeType': 'Token', 'pos': 'IN'}"
tp804
a(I5
I5
S"{'nodeType': 'Token', 'pos': ['JJ', 'JJR', 'JJS', 'DT', 'PDT', 'POS', 'CD', 'SYM']}"
tp805
a(I5
I7
S"{'tense': 'PAST', 'eventStatus': '1'}"
tp806
a(I6
I5
S"{'nodeType': 'NounChunk'}"
tp807
a(I6
I5
S"{'nodeType': 'Token', 'pos': 'IN'}"
tp808
a(I6
I5
S"{'nodeType': 'Token', 'pos': ['JJ', 'JJR', 'JJS', 'DT', 'PDT', 'POS', 'CD', 'SYM']}"
tp809
a(I6
I8
S'{\'text\': (\'^\', [\';\', \'.\', \'!\', \'?\', \'...\', \'"\', \'``\']), \'pos\': (\'^\', [\'WP\', \'WDT\', \'WRB\', \'"\', "\'\'", \'``\'])}'
tp810
a(I6
I7
g798
tp811
a(I8
I9
S'{\'text\': (\'^\', [\';\', \'.\', \'!\', \'?\', \'...\', \'"\', \'``\']), \'pos\': (\'^\', [\'WP\', \'WDT\', \'WRB\', \'"\', "\'\'", \'``\'])}'
tp812
a(I8
I7
g798
tp813
a(I9
I10
S'{\'text\': (\'^\', [\';\', \'.\', \'!\', \'?\', \'...\', \'"\', \'``\']), \'pos\': (\'^\', [\'WP\', \'WDT\', \'WRB\', \'"\', "\'\'", \'``\'])}'
tp814
a(I9
I7
g798
tp815
a(I10
I11
S'{\'text\': (\'^\', [\';\', \'.\', \'!\', \'?\', \'...\', \'"\', \'``\']), \'pos\': (\'^\', [\'WP\', \'WDT\', \'WRB\', \'"\', "\'\'", \'``\'])}'
tp816
a(I10
I7
g798
tp817
a(I11
I7
g798
tp818
a(I11
I12
S'{\'text\': (\'^\', [\';\', \'.\', \'!\', \'?\', \'...\', \'"\', \'``\']), \'pos\': (\'^\', [\'WP\', \'WDT\', \'WRB\', \'"\', "\'\'", \'``\'])}'
tp819
a(I12
I7
g798
tp820
asg83
I1
sg84
I1
sba(iutilities.FSA
FSA
p821
(dp822
g9
S'thatClausePAST_NOT_that'
p823
sg11
(lp824
I3
asg13
I1
sg14
Nsg15
S'[_{_\'_t_e_x_t_\'_:_ _(_\'_^_\'_,_ _[_\'_,_\'_]_)_}_,_ _{_\'_t_e_x_t_\'_:_ _(_\'_^_\'_,_ _[_\'_;_\'_,_ _\'_._\'_,_ _\'_!_\'_,_ _\'_?_\'_,_ _\'_._._._\'_,_ _\'_"_\'_,_ _\'_`_`_\'_]_)_,_ _\'_p_o_s_\'_:_ _(_\'_^_\'_,_ _[_\'_W_P_\'_,_ _\'_W_D_T_\'_,_ _\'_W_R_B_\'_,_ _\'_"_\'_,_ _"_\'_\'_"_,_ _\'_`_`_\'_]_)_}_,_ _\'_?_\'_,_ _{_\'_t_e_x_t_\'_:_ _(_\'_^_\'_,_ _[_\'_;_\'_,_ _\'_._\'_,_ _\'_!_\'_,_ _\'_?_\'_,_ _\'_._._._\'_,_ _\'_"_\'_,_ _\'_`_`_\'_]_)_,_ _\'_p_o_s_\'_:_ _(_\'_^_\'_,_ _[_\'_W_P_\'_,_ _\'_W_D_T_\'_,_ _\'_W_R_B_\'_,_ _\'_"_\'_,_ _"_\'_\'_"_,_ _\'_`_`_\'_]_)_}_,_ _\'_?_\'_,_ _{_\'_t_e_x_t_\'_:_ _(_\'_^_\'_,_ _[_\'_;_\'_,_ _\'_._\'_,_ _\'_!_\'_,_ _\'_?_\'_,_ _\'_._._._\'_,_ _\'_"_\'_,_ _\'_`_`_\'_]_)_,_ _\'_p_o_s_\'_:_ _(_\'_^_\'_,_ _[_\'_W_P_\'_,_ _\'_W_D_T_\'_,_ _\'_W_R_B_\'_,_ _\'_"_\'_,_ _"_\'_\'_"_,_ _\'_`_`_\'_]_)_}_,_ _\'_?_\'_,_ _{_\'_t_e_x_t_\'_:_ _(_\'_^_\'_,_ _[_\'_;_\'_,_ _\'_._\'_,_ _\'_!_\'_,_ _\'_?_\'_,_ _\'_._._._\'_,_ _\'_"_\'_,_ _\'_`_`_\'_]_)_,_ _\'_p_o_s_\'_:_ _(_\'_^_\'_,_ _[_\'_W_P_\'_,_ _\'_W_D_T_\'_,_ _\'_W_R_B_\'_,_ _\'_"_\'_,_ _"_\'_\'_"_,_ _\'_`_`_\'_]_)_}_,_ _\'_?_\'_,_ _{_\'_t_e_x_t_\'_:_ _(_\'_^_\'_,_ _[_\'_;_\'_,_ _\'_._\'_,_ _\'_!_\'_,_ _\'_?_\'_,_ _\'_._._._\'_,_ _\'_"_\'_,_ _\'_`_`_\'_]_)_,_ _\'_p_o_s_\'_:_ _(_\'_^_\'_,_ _[_\'_W_P_\'_,_ _\'_W_D_T_\'_,_ _\'_W_R_B_\'_,_ _\'_"_\'_,_ _"_\'_\'_"_,_ _\'_`_`_\'_]_)_}_,_ _\'_?_\'_,_ _{_\'_t_e_x_t_\'_:_ _(_\'_^_\'_,_ _[_\'_;_\'_,_ _\'_._\'_,_ _\'_!_\'_,_ _\'_?_\'_,_ _\'_._._._\'_,_ _\'_"_\'_,_ _\'_`_`_\'_]_)_,_ _\'_p_o_s_\'_:_ _(_\'_^_\'_,_ _[_\'_W_P_\'_,_ _\'_W_D_T_\'_,_ _\'_W_R_B_\'_,_ _\'_"_\'_,_ _"_\'_\'_"_,_ _\'_`_`_\'_]_)_}_,_ _\'_?_\'_,_ _{_\'_t_e_n_s_e_\'_:_ _\'_P_A_S_T_\'_,_ _\'_e_v_e_n_t_S_t_a_t_u_s_\'_:_ _\'_1_\'_}_]'
p825
sg17
I0
sg18
(lp826
I0
aI1
aI2
aI8
aI3
aI4
aI5
aI6
aI7
asg20
(dp827
sg22
I1
sg23
(lp828
(I0
I1
S"{'text': ('^', [','])}"
tp829
a(I1
I2
S'{\'text\': (\'^\', [\';\', \'.\', \'!\', \'?\', \'...\', \'"\', \'``\']), \'pos\': (\'^\', [\'WP\', \'WDT\', \'WRB\', \'"\', "\'\'", \'``\'])}'
tp830
a(I1
I3
S"{'tense': 'PAST', 'eventStatus': '1'}"
p831
tp832
a(I2
I4
S'{\'text\': (\'^\', [\';\', \'.\', \'!\', \'?\', \'...\', \'"\', \'``\']), \'pos\': (\'^\', [\'WP\', \'WDT\', \'WRB\', \'"\', "\'\'", \'``\'])}'
tp833
a(I2
I3
g831
tp834
a(I4
I5
S'{\'text\': (\'^\', [\';\', \'.\', \'!\', \'?\', \'...\', \'"\', \'``\']), \'pos\': (\'^\', [\'WP\', \'WDT\', \'WRB\', \'"\', "\'\'", \'``\'])}'
tp835
a(I4
I3
g831
tp836
a(I5
I6
S'{\'text\': (\'^\', [\';\', \'.\', \'!\', \'?\', \'...\', \'"\', \'``\']), \'pos\': (\'^\', [\'WP\', \'WDT\', \'WRB\', \'"\', "\'\'", \'``\'])}'
tp837
a(I5
I3
g831
tp838
a(I6
I7
S'{\'text\': (\'^\', [\';\', \'.\', \'!\', \'?\', \'...\', \'"\', \'``\']), \'pos\': (\'^\', [\'WP\', \'WDT\', \'WRB\', \'"\', "\'\'", \'``\'])}'
tp839
a(I6
I3
g831
tp840
a(I7
I8
S'{\'text\': (\'^\', [\';\', \'.\', \'!\', \'?\', \'...\', \'"\', \'``\']), \'pos\': (\'^\', [\'WP\', \'WDT\', \'WRB\', \'"\', "\'\'", \'``\'])}'
tp841
a(I7
I3
g831
tp842
a(I8
I3
g831
tp843
asg83
I1
sg84
I1
sbaa(lp844
(iutilities.FSA
FSA
p845
(dp846
g9
S'thatClausePERFECTIVE_NEG_that'
p847
sg11
(lp848
I6
asg13
I1
sg14
Nsg15
S'[_\'_(_\'_,_ _{_\'_t_e_x_t_\'_:_ _(_\'_^_\'_,_ _[_\'_,_\'_]_)_}_,_ _\'_?_\'_,_ _{_\'_t_e_x_t_\'_:_ _(_\'_^_\'_,_ _[_\'_;_\'_,_ _\'_._\'_,_ _\'_!_\'_,_ _\'_?_\'_,_ _\'_._._._\'_,_ _\'_"_\'_,_ _\'_`_`_\'_]_)_,_ _\'_p_o_s_\'_:_ _(_\'_^_\'_,_ _[_\'_W_P_\'_,_ _\'_W_D_T_\'_,_ _\'_W_R_B_\'_,_ _\'_"_\'_,_ _"_\'_\'_"_,_ _\'_`_`_\'_]_)_}_,_ _\'_?_\'_,_ _{_\'_t_e_x_t_\'_:_ _(_\'_^_\'_,_ _[_\'_;_\'_,_ _\'_._\'_,_ _\'_!_\'_,_ _\'_?_\'_,_ _\'_._._._\'_,_ _\'_"_\'_,_ _\'_`_`_\'_]_)_,_ _\'_p_o_s_\'_:_ _(_\'_^_\'_,_ _[_\'_W_P_\'_,_ _\'_W_D_T_\'_,_ _\'_W_R_B_\'_,_ _\'_"_\'_,_ _"_\'_\'_"_,_ _\'_`_`_\'_]_)_}_,_ _\'_?_\'_,_ _\'_|_\'_,_ _{_\'_t_e_x_t_\'_:_ _\'_,_\'_}_,_ _\'_)_\'_,_ _{_\'_t_e_x_t_\'_:_ _[_\'_t_h_a_t_\'_,_ _\'_i_f_\'_,_ _\'_w_h_e_t_h_e_r_\'_]_,_ _\'_n_o_d_e_T_y_p_e_\'_:_ _\'_T_o_k_e_n_\'_,_ _\'_p_o_s_\'_:_ _\'_I_N_\'_}_,_ _{_\'_t_e_x_t_\'_:_ _(_\'_^_\'_,_ _[_\'_;_\'_,_ _\'_._\'_,_ _\'_!_\'_,_ _\'_?_\'_,_ _\'_._._._\'_,_ _\'_"_\'_,_ _\'_`_`_\'_]_)_,_ _\'_p_o_s_\'_:_ _(_\'_^_\'_,_ _[_\'_W_P_\'_,_ _\'_W_D_T_\'_,_ _\'_W_R_B_\'_,_ _\'_"_\'_,_ _"_\'_\'_"_,_ _\'_`_`_\'_]_)_}_,_ _\'_?_\'_,_ _\'_(_\'_,_ _\'_(_\'_,_ _{_\'_n_o_d_e_T_y_p_e_\'_:_ _\'_N_o_u_n_C_h_u_n_k_\'_}_,_ _\'_|_\'_,_ _{_\'_n_o_d_e_T_y_p_e_\'_:_ _\'_T_o_k_e_n_\'_,_ _\'_p_o_s_\'_:_ _\'_I_N_\'_}_,_ _\'_|_\'_,_ _{_\'_n_o_d_e_T_y_p_e_\'_:_ _\'_T_o_k_e_n_\'_,_ _\'_p_o_s_\'_:_ _[_\'_J_J_\'_,_ _\'_J_J_R_\'_,_ _\'_J_J_S_\'_,_ _\'_D_T_\'_,_ _\'_P_D_T_\'_,_ _\'_P_O_S_\'_,_ _\'_C_D_\'_,_ _\'_S_Y_M_\'_]_}_,_ _\'_)_\'_,_ _\'_+_\'_,_ _{_\'_p_o_l_a_r_i_t_y_\'_:_ _\'_N_E_G_\'_,_ _\'_e_v_e_n_t_S_t_a_t_u_s_\'_:_ _\'_1_\'_,_ _\'_a_s_p_e_c_t_\'_:_ _\'_P_E_R_F_E_C_T_I_V_E_\'_}_,_ _\'_|_\'_,_ _{_\'_t_e_x_t_\'_:_ _(_\'_^_\'_,_ _[_\'_;_\'_,_ _\'_._\'_,_ _\'_!_\'_,_ _\'_?_\'_,_ _\'_._._._\'_,_ _\'_"_\'_,_ _\'_`_`_\'_]_)_,_ _\'_p_o_s_\'_:_ _(_\'_^_\'_,_ _[_\'_W_P_\'_,_ _\'_W_D_T_\'_,_ _\'_W_R_B_\'_,_ _\'_"_\'_,_ _"_\'_\'_"_,_ _\'_`_`_\'_]_)_}_,_ _\'_?_\'_,_ _{_\'_t_e_x_t_\'_:_ _(_\'_^_\'_,_ _[_\'_;_\'_,_ _\'_._\'_,_ _\'_!_\'_,_ _\'_?_\'_,_ _\'_._._._\'_,_ _\'_"_\'_,_ _\'_`_`_\'_]_)_,_ _\'_p_o_s_\'_:_ _(_\'_^_\'_,_ _[_\'_W_P_\'_,_ _\'_W_D_T_\'_,_ _\'_W_R_B_\'_,_ _\'_"_\'_,_ _"_\'_\'_"_,_ _\'_`_`_\'_]_)_}_,_ _\'_?_\'_,_ _{_\'_t_e_x_t_\'_:_ _(_\'_^_\'_,_ _[_\'_;_\'_,_ _\'_._\'_,_ _\'_!_\'_,_ _\'_?_\'_,_ _\'_._._._\'_,_ _\'_"_\'_,_ _\'_`_`_\'_]_)_,_ _\'_p_o_s_\'_:_ _(_\'_^_\'_,_ _[_\'_W_P_\'_,_ _\'_W_D_T_\'_,_ _\'_W_R_B_\'_,_ _\'_"_\'_,_ _"_\'_\'_"_,_ _\'_`_`_\'_]_)_}_,_ _\'_?_\'_,_ _{_\'_t_e_x_t_\'_:_ _(_\'_^_\'_,_ _[_\'_;_\'_,_ _\'_._\'_,_ _\'_!_\'_,_ _\'_?_\'_,_ _\'_._._._\'_,_ _\'_"_\'_,_ _\'_`_`_\'_]_)_,_ _\'_p_o_s_\'_:_ _(_\'_^_\'_,_ _[_\'_W_P_\'_,_ _\'_W_D_T_\'_,_ _\'_W_R_B_\'_,_ _\'_"_\'_,_ _"_\'_\'_"_,_ _\'_`_`_\'_]_)_}_,_ _\'_?_\'_,_ _{_\'_t_e_x_t_\'_:_ _(_\'_^_\'_,_ _[_\'_;_\'_,_ _\'_._\'_,_ _\'_!_\'_,_ _\'_?_\'_,_ _\'_._._._\'_,_ _\'_"_\'_,_ _\'_`_`_\'_]_)_,_ _\'_p_o_s_\'_:_ _(_\'_^_\'_,_ _[_\'_W_P_\'_,_ _\'_W_D_T_\'_,_ _\'_W_R_B_\'_,_ _\'_"_\'_,_ _"_\'_\'_"_,_ _\'_`_`_\'_]_)_}_,_ _\'_?_\'_,_ _{_\'_p_o_l_a_r_i_t_y_\'_:_ _\'_N_E_G_\'_,_ _\'_e_v_e_n_t_S_t_a_t_u_s_\'_:_ _\'_1_\'_,_ _\'_a_s_p_e_c_t_\'_:_ _\'_P_E_R_F_E_C_T_I_V_E_\'_}_,_ _\'_)_\'_]'
p849
sg17
I0
sg18
(lp850
I9
aI12
aI0
aI1
aI2
aI3
aI10
aI7
aI4
aI11
aI6
aI8
aI5
asg20
(dp851
sg22
I1
sg23
(lp852
(I0
I1
S"{'text': ('^', [','])}"
tp853
a(I0
I2
S"{'text': ['that', 'if', 'whether'], 'nodeType': 'Token', 'pos': 'IN'}"
p854
tp855
a(I0
I3
S"{'text': ','}"
tp856
a(I0
I4
S'{\'text\': (\'^\', [\';\', \'.\', \'!\', \'?\', \'...\', \'"\', \'``\']), \'pos\': (\'^\', [\'WP\', \'WDT\', \'WRB\', \'"\', "\'\'", \'``\'])}'
p857
tp858
a(I1
I2
g854
tp859
a(I1
I4
g857
tp860
a(I2
I5
S"{'nodeType': 'NounChunk'}"
tp861
a(I2
I5
S"{'nodeType': 'Token', 'pos': 'IN'}"
tp862
a(I2
I5
S"{'nodeType': 'Token', 'pos': ['JJ', 'JJR', 'JJS', 'DT', 'PDT', 'POS', 'CD', 'SYM']}"
tp863
a(I2
I6
S"{'polarity': 'NEG', 'eventStatus': '1', 'aspect': 'PERFECTIVE'}"
p864
tp865
a(I2
I7
S'{\'text\': (\'^\', [\';\', \'.\', \'!\', \'?\', \'...\', \'"\', \'``\']), \'pos\': (\'^\', [\'WP\', \'WDT\', \'WRB\', \'"\', "\'\'", \'``\'])}'
tp866
a(I3
I2
g854
tp867
a(I4
I2
g854
tp868
a(I4
I3
S'{\'text\': (\'^\', [\';\', \'.\', \'!\', \'?\', \'...\', \'"\', \'``\']), \'pos\': (\'^\', [\'WP\', \'WDT\', \'WRB\', \'"\', "\'\'", \'``\'])}'
tp869
a(I5
I5
S"{'nodeType': 'NounChunk'}"
tp870
a(I5
I5
S"{'nodeType': 'Token', 'pos': 'IN'}"
tp871
a(I5
I5
S"{'nodeType': 'Token', 'pos': ['JJ', 'JJR', 'JJS', 'DT', 'PDT', 'POS', 'CD', 'SYM']}"
tp872
a(I5
I6
S"{'polarity': 'NEG', 'eventStatus': '1', 'aspect': 'PERFECTIVE'}"
tp873
a(I7
I5
S"{'nodeType': 'NounChunk'}"
tp874
a(I7
I5
S"{'nodeType': 'Token', 'pos': 'IN'}"
tp875
a(I7
I5
S"{'nodeType': 'Token', 'pos': ['JJ', 'JJR', 'JJS', 'DT', 'PDT', 'POS', 'CD', 'SYM']}"
tp876
a(I7
I6
g864
tp877
a(I7
I8
S'{\'text\': (\'^\', [\';\', \'.\', \'!\', \'?\', \'...\', \'"\', \'``\']), \'pos\': (\'^\', [\'WP\', \'WDT\', \'WRB\', \'"\', "\'\'", \'``\'])}'
tp878
a(I8
I6
g864
tp879
a(I8
I9
S'{\'text\': (\'^\', [\';\', \'.\', \'!\', \'?\', \'...\', \'"\', \'``\']), \'pos\': (\'^\', [\'WP\', \'WDT\', \'WRB\', \'"\', "\'\'", \'``\'])}'
tp880
a(I9
I6
g864
tp881
a(I9
I10
S'{\'text\': (\'^\', [\';\', \'.\', \'!\', \'?\', \'...\', \'"\', \'``\']), \'pos\': (\'^\', [\'WP\', \'WDT\', \'WRB\', \'"\', "\'\'", \'``\'])}'
tp882
a(I10
I6
g864
tp883
a(I10
I11
S'{\'text\': (\'^\', [\';\', \'.\', \'!\', \'?\', \'...\', \'"\', \'``\']), \'pos\': (\'^\', [\'WP\', \'WDT\', \'WRB\', \'"\', "\'\'", \'``\'])}'
tp884
a(I11
I6
g864
tp885
a(I11
I12
S'{\'text\': (\'^\', [\';\', \'.\', \'!\', \'?\', \'...\', \'"\', \'``\']), \'pos\': (\'^\', [\'WP\', \'WDT\', \'WRB\', \'"\', "\'\'", \'``\'])}'
tp886
a(I12
I6
g864
tp887
asg83
I1
sg84
I1
sba(iutilities.FSA
FSA
p888
(dp889
g9
S'thatClausePERFECTIVE_NEG_NOT_that'
p890
sg11
(lp891
I2
asg13
I1
sg14
Nsg15
S'[_{_\'_t_e_x_t_\'_:_ _(_\'_^_\'_,_ _[_\'_,_\'_]_)_}_,_ _{_\'_t_e_x_t_\'_:_ _(_\'_^_\'_,_ _[_\'_;_\'_,_ _\'_._\'_,_ _\'_!_\'_,_ _\'_?_\'_,_ _\'_._._._\'_,_ _\'_"_\'_,_ _\'_`_`_\'_]_)_,_ _\'_p_o_s_\'_:_ _(_\'_^_\'_,_ _[_\'_W_P_\'_,_ _\'_W_D_T_\'_,_ _\'_W_R_B_\'_,_ _\'_"_\'_,_ _"_\'_\'_"_,_ _\'_`_`_\'_]_)_}_,_ _\'_?_\'_,_ _{_\'_t_e_x_t_\'_:_ _(_\'_^_\'_,_ _[_\'_;_\'_,_ _\'_._\'_,_ _\'_!_\'_,_ _\'_?_\'_,_ _\'_._._._\'_,_ _\'_"_\'_,_ _\'_`_`_\'_]_)_,_ _\'_p_o_s_\'_:_ _(_\'_^_\'_,_ _[_\'_W_P_\'_,_ _\'_W_D_T_\'_,_ _\'_W_R_B_\'_,_ _\'_"_\'_,_ _"_\'_\'_"_,_ _\'_`_`_\'_]_)_}_,_ _\'_?_\'_,_ _{_\'_t_e_x_t_\'_:_ _(_\'_^_\'_,_ _[_\'_;_\'_,_ _\'_._\'_,_ _\'_!_\'_,_ _\'_?_\'_,_ _\'_._._._\'_,_ _\'_"_\'_,_ _\'_`_`_\'_]_)_,_ _\'_p_o_s_\'_:_ _(_\'_^_\'_,_ _[_\'_W_P_\'_,_ _\'_W_D_T_\'_,_ _\'_W_R_B_\'_,_ _\'_"_\'_,_ _"_\'_\'_"_,_ _\'_`_`_\'_]_)_}_,_ _\'_?_\'_,_ _{_\'_t_e_x_t_\'_:_ _(_\'_^_\'_,_ _[_\'_;_\'_,_ _\'_._\'_,_ _\'_!_\'_,_ _\'_?_\'_,_ _\'_._._._\'_,_ _\'_"_\'_,_ _\'_`_`_\'_]_)_,_ _\'_p_o_s_\'_:_ _(_\'_^_\'_,_ _[_\'_W_P_\'_,_ _\'_W_D_T_\'_,_ _\'_W_R_B_\'_,_ _\'_"_\'_,_ _"_\'_\'_"_,_ _\'_`_`_\'_]_)_}_,_ _\'_?_\'_,_ _{_\'_t_e_x_t_\'_:_ _(_\'_^_\'_,_ _[_\'_;_\'_,_ _\'_._\'_,_ _\'_!_\'_,_ _\'_?_\'_,_ _\'_._._._\'_,_ _\'_"_\'_,_ _\'_`_`_\'_]_)_,_ _\'_p_o_s_\'_:_ _(_\'_^_\'_,_ _[_\'_W_P_\'_,_ _\'_W_D_T_\'_,_ _\'_W_R_B_\'_,_ _\'_"_\'_,_ _"_\'_\'_"_,_ _\'_`_`_\'_]_)_}_,_ _\'_?_\'_,_ _{_\'_t_e_x_t_\'_:_ _(_\'_^_\'_,_ _[_\'_;_\'_,_ _\'_._\'_,_ _\'_!_\'_,_ _\'_?_\'_,_ _\'_._._._\'_,_ _\'_"_\'_,_ _\'_`_`_\'_]_)_,_ _\'_p_o_s_\'_:_ _(_\'_^_\'_,_ _[_\'_W_P_\'_,_ _\'_W_D_T_\'_,_ _\'_W_R_B_\'_,_ _\'_"_\'_,_ _"_\'_\'_"_,_ _\'_`_`_\'_]_)_}_,_ _\'_?_\'_,_ _{_\'_p_o_l_a_r_i_t_y_\'_:_ _\'_N_E_G_\'_,_ _\'_e_v_e_n_t_S_t_a_t_u_s_\'_:_ _\'_1_\'_,_ _\'_a_s_p_e_c_t_\'_:_ _\'_P_E_R_F_E_C_T_I_V_E_\'_}_]'
p892
sg17
I0
sg18
(lp893
I0
aI1
aI2
aI8
aI3
aI4
aI5
aI6
aI7
asg20
(dp894
sg22
I1
sg23
(lp895
(I0
I1
S"{'text': ('^', [','])}"
tp896
a(I1
I2
S"{'polarity': 'NEG', 'eventStatus': '1', 'aspect': 'PERFECTIVE'}"
p897
tp898
a(I1
I3
S'{\'text\': (\'^\', [\';\', \'.\', \'!\', \'?\', \'...\', \'"\', \'``\']), \'pos\': (\'^\', [\'WP\', \'WDT\', \'WRB\', \'"\', "\'\'", \'``\'])}'
tp899
a(I3
I2
g897
tp900
a(I3
I4
S'{\'text\': (\'^\', [\';\', \'.\', \'!\', \'?\', \'...\', \'"\', \'``\']), \'pos\': (\'^\', [\'WP\', \'WDT\', \'WRB\', \'"\', "\'\'", \'``\'])}'
tp901
a(I4
I2
g897
tp902
a(I4
I5
S'{\'text\': (\'^\', [\';\', \'.\', \'!\', \'?\', \'...\', \'"\', \'``\']), \'pos\': (\'^\', [\'WP\', \'WDT\', \'WRB\', \'"\', "\'\'", \'``\'])}'
tp903
a(I5
I2
g897
tp904
a(I5
I6
S'{\'text\': (\'^\', [\';\', \'.\', \'!\', \'?\', \'...\', \'"\', \'``\']), \'pos\': (\'^\', [\'WP\', \'WDT\', \'WRB\', \'"\', "\'\'", \'``\'])}'
tp905
a(I6
I2
g897
tp906
a(I6
I7
S'{\'text\': (\'^\', [\';\', \'.\', \'!\', \'?\', \'...\', \'"\', \'``\']), \'pos\': (\'^\', [\'WP\', \'WDT\', \'WRB\', \'"\', "\'\'", \'``\'])}'
tp907
a(I7
I2
g897
tp908
a(I7
I8
S'{\'text\': (\'^\', [\';\', \'.\', \'!\', \'?\', \'...\', \'"\', \'``\']), \'pos\': (\'^\', [\'WP\', \'WDT\', \'WRB\', \'"\', "\'\'", \'``\'])}'
tp909
a(I8
I2
g897
tp910
asg83
I1
sg84
I1
sbaa(lp911
g222
ag222
ag222
ag495
ag117
atp912
ssS'doubts'
p913
(dp914
g4
((lp915
(lp916
g7
ag640
aa(lp917
g355
aa(lp918
g222
ag222
atp919
ssS'approach'
p920
(dp921
g4
((lp922
(lp923
(iutilities.FSA
FSA
p924
(dp925
g9
S'to_NPev'
p926
sg11
(lp927
I4
asg13
I1
sg14
Nsg15
S"[_{_'_n_o_d_e_T_y_p_e_'_:_ _'_T_o_k_e_n_'_,_ _'_p_o_s_'_:_ _'_P_D_T_'_}_,_ _'_?_'_,_ _{_'_n_o_d_e_T_y_p_e_'_:_ _'_N_o_u_n_C_h_u_n_k_'_}_,_ _'_?_'_,_ _{_'_t_e_x_t_'_:_ _'_t_o_'_,_ _'_p_o_s_'_:_ _'_T_O_'_}_,_ _{_'_n_o_d_e_T_y_p_e_'_:_ _'_T_o_k_e_n_'_,_ _'_p_o_s_'_:_ _'_P_D_T_'_}_,_ _'_?_'_,_ _'_(_'_,_ _{_'_n_o_d_e_T_y_p_e_'_:_ _'_N_o_u_n_C_h_u_n_k_'_,_ _'_e_v_e_n_t_S_t_a_t_u_s_'_:_ _'_1_'_}_,_ _'_|_'_,_ _{_'_n_o_d_e_T_y_p_e_'_:_ _'_T_o_k_e_n_'_,_ _'_p_o_s_'_:_ _'_D_T_'_}_,_ _'_(_'_,_ _{_'_n_o_d_e_T_y_p_e_'_:_ _'_T_o_k_e_n_'_,_ _'_p_o_s_'_:_ _[_'_J_J_'_,_ _'_J_J_R_'_,_ _'_J_J_S_'_]_}_,_ _'_|_'_,_ _{_'_n_o_d_e_T_y_p_e_'_:_ _'_V_e_r_b_C_h_u_n_k_'_,_ _'_p_o_s_'_:_ _[_'_V_G_B_'_,_ _'_V_B_N_'_]_}_,_ _'_|_'_,_ _{_'_p_o_s_'_:_ _'_S_Y_M_'_}_,_ _'_)_'_,_ _'_*_'_,_ _{_'_n_o_d_e_T_y_p_e_'_:_ _'_T_o_k_e_n_'_,_ _'_p_o_s_'_:_ _'_C_D_'_}_,_ _'_*_'_,_ _{_'_n_o_d_e_T_y_p_e_'_:_ _'_N_o_u_n_C_h_u_n_k_'_}_,_ _'_)_'_]"
p928
sg17
I0
sg18
(lp929
I7
aI0
aI1
aI2
aI3
aI4
aI5
aI6
asg20
(dp930
sg22
I1
sg23
(lp931
(I0
I1
S"{'nodeType': 'NounChunk'}"
p932
tp933
a(I0
I2
S"{'text': 'to', 'pos': 'TO'}"
p934
tp935
a(I0
I3
S"{'nodeType': 'Token', 'pos': 'PDT'}"
tp936
a(I1
I2
g934
tp937
a(I2
I4
S"{'nodeType': 'NounChunk', 'eventStatus': '1'}"
p938
tp939
a(I2
I5
S"{'nodeType': 'Token', 'pos': 'PDT'}"
tp940
a(I2
I6
S"{'nodeType': 'Token', 'pos': 'DT'}"
p941
tp942
a(I3
I1
g932
tp943
a(I3
I2
g934
tp944
a(I5
I4
g938
tp945
a(I5
I6
g941
tp946
a(I6
I4
S"{'nodeType': 'NounChunk'}"
tp947
a(I6
I6
S"{'nodeType': 'Token', 'pos': ['JJ', 'JJR', 'JJS']}"
tp948
a(I6
I6
S"{'nodeType': 'VerbChunk', 'pos': ['VGB', 'VBN']}"
tp949
a(I6
I6
S"{'pos': 'SYM'}"
tp950
a(I6
I7
S"{'nodeType': 'Token', 'pos': 'CD'}"
tp951
a(I7
I4
S"{'nodeType': 'NounChunk'}"
tp952
a(I7
I7
S"{'nodeType': 'Token', 'pos': 'CD'}"
tp953
asg83
I1
sg84
I1
sbaa(lp954
g117
atp955
ssS'expansions'
p956
(dp957
g4
((lp958
(lp959
g86
ag198
aa(lp960
g117
atp961
ssS'prohibitions'
p962
(dp963
g4
((lp964
(lp965
g725
ag747
ag466
aa(lp966
g222
atp967
ssS'implication'
p968
(dp969
g4
((lp970
(lp971
g7
ag228
ag284
ag321
aa(lp972
g222
atp973
ssS'achievements'
p974
(dp975
g4
((lp976
(lp977
g86
ag198
aa(lp978
g117
atp979
ssS'regret'
p980
(dp981
g4
((lp982
(lp983
g550
ag580
aa(lp984
g117
atp985
ssS'reference'
p986
(dp987
g4
((lp988
(lp989
g924
aa(lp990
g117
atp991
ssS'prediction'
p992
(dp993
g4
((lp994
(lp995
g86
ag198
aa(lp996
g7
ag284
aa(lp997
g222
ag222
atp998
ssS'demonstrations'
p999
(dp1000
g4
((lp1001
(lp1002
g86
aa(lp1003
(iutilities.FSA
FSA
p1004
(dp1005
g9
S'of_indirectInterrog'
p1006
sg11
(lp1007
I3
asg13
I1
sg14
Nsg15
S'[_{_\'_t_e_x_t_\'_:_ _\'_o_f_\'_}_,_ _{_\'_t_e_x_t_\'_:_ _[_\'_w_h_o_\'_,_ _\'_w_h_a_t_\'_,_ _\'_w_h_e_n_\'_,_ _\'_w_h_i_c_h_\'_,_ _\'_h_o_w_\'_,_ _\'_w_h_e_r_e_\'_,_ _\'_w_h_y_\'_]_,_ _\'_n_o_d_e_T_y_p_e_\'_:_ _\'_T_o_k_e_n_\'_}_,_ _{_\'_t_e_x_t_\'_:_ _(_\'_^_\'_,_ _[_\'_;_\'_,_ _\'_._\'_,_ _\'_!_\'_,_ _\'_?_\'_,_ _\'_._._._\'_,_ _\'_"_\'_,_ _\'_`_`_\'_]_)_,_ _\'_p_o_s_\'_:_ _(_\'_^_\'_,_ _[_\'_W_P_\'_,_ _\'_W_D_T_\'_,_ _\'_W_R_B_\'_,_ _\'_"_\'_,_ _"_\'_\'_"_,_ _\'_`_`_\'_]_)_}_,_ _\'_?_\'_,_ _{_\'_t_e_x_t_\'_:_ _(_\'_^_\'_,_ _[_\'_;_\'_,_ _\'_._\'_,_ _\'_!_\'_,_ _\'_?_\'_,_ _\'_._._._\'_,_ _\'_"_\'_,_ _\'_`_`_\'_]_)_,_ _\'_p_o_s_\'_:_ _(_\'_^_\'_,_ _[_\'_W_P_\'_,_ _\'_W_D_T_\'_,_ _\'_W_R_B_\'_,_ _\'_"_\'_,_ _"_\'_\'_"_,_ _\'_`_`_\'_]_)_}_,_ _\'_?_\'_,_ _{_\'_t_e_x_t_\'_:_ _(_\'_^_\'_,_ _[_\'_;_\'_,_ _\'_._\'_,_ _\'_!_\'_,_ _\'_?_\'_,_ _\'_._._._\'_,_ _\'_"_\'_,_ _\'_`_`_\'_]_)_,_ _\'_p_o_s_\'_:_ _(_\'_^_\'_,_ _[_\'_W_P_\'_,_ _\'_W_D_T_\'_,_ _\'_W_R_B_\'_,_ _\'_"_\'_,_ _"_\'_\'_"_,_ _\'_`_`_\'_]_)_}_,_ _\'_?_\'_,_ _{_\'_t_e_x_t_\'_:_ _(_\'_^_\'_,_ _[_\'_;_\'_,_ _\'_._\'_,_ _\'_!_\'_,_ _\'_?_\'_,_ _\'_._._._\'_,_ _\'_"_\'_,_ _\'_`_`_\'_]_)_,_ _\'_p_o_s_\'_:_ _(_\'_^_\'_,_ _[_\'_W_P_\'_,_ _\'_W_D_T_\'_,_ _\'_W_R_B_\'_,_ _\'_"_\'_,_ _"_\'_\'_"_,_ _\'_`_`_\'_]_)_}_,_ _\'_?_\'_,_ _{_\'_t_e_x_t_\'_:_ _(_\'_^_\'_,_ _[_\'_;_\'_,_ _\'_._\'_,_ _\'_!_\'_,_ _\'_?_\'_,_ _\'_._._._\'_,_ _\'_"_\'_,_ _\'_`_`_\'_]_)_,_ _\'_p_o_s_\'_:_ _(_\'_^_\'_,_ _[_\'_W_P_\'_,_ _\'_W_D_T_\'_,_ _\'_W_R_B_\'_,_ _\'_"_\'_,_ _"_\'_\'_"_,_ _\'_`_`_\'_]_)_}_,_ _\'_?_\'_,_ _{_\'_t_e_x_t_\'_:_ _(_\'_^_\'_,_ _[_\'_;_\'_,_ _\'_._\'_,_ _\'_!_\'_,_ _\'_?_\'_,_ _\'_._._._\'_,_ _\'_"_\'_,_ _\'_`_`_\'_]_)_,_ _\'_p_o_s_\'_:_ _(_\'_^_\'_,_ _[_\'_W_P_\'_,_ _\'_W_D_T_\'_,_ _\'_W_R_B_\'_,_ _\'_"_\'_,_ _"_\'_\'_"_,_ _\'_`_`_\'_]_)_}_,_ _\'_?_\'_,_ _\'_(_\'_,_ _{_\'_t_e_n_s_e_\'_:_ _[_\'_P_A_S_T_\'_,_ _\'_P_R_E_S_E_N_T_\'_,_ _\'_F_U_T_U_R_E_\'_]_,_ _\'_n_o_d_e_T_y_p_e_\'_:_ _[_\'_C_h_u_n_k_\'_,_ _\'_N_o_u_n_C_h_u_n_k_\'_,_ _\'_V_e_r_b_C_h_u_n_k_\'_,_ _\'_A_d_j_e_c_t_i_v_e_T_o_k_e_n_\'_]_}_,_ _\'_|_\'_,_ _{_\'_n_o_d_e_T_y_p_e_\'_:_ _[_\'_C_h_u_n_k_\'_,_ _\'_N_o_u_n_C_h_u_n_k_\'_,_ _\'_V_e_r_b_C_h_u_n_k_\'_,_ _\'_A_d_j_e_c_t_i_v_e_T_o_k_e_n_\'_]_,_ _\'_m_o_d_a_l_i_t_y_\'_:_ _[_\'_m_a_y_\'_,_ _\'_c_a_n_\'_,_ _\'_m_u_s_t_\'_,_ _\'_m_i_g_h_t_\'_,_ _\'_c_o_u_l_d_\'_,_ _\'_s_h_o_u_l_d_\'_,_ _\'_w_o_u_l_d_\'_,_ _\'_o_u_g_h_t_\'_,_ _\'_h_a_v_e_ _t_o_\'_]_}_,_ _\'_)_\'_]'
p1008
sg17
I0
sg18
(lp1009
I0
aI1
aI2
aI5
aI6
aI7
aI4
aI8
aI9
aI3
asg20
(dp1010
sg22
I1
sg23
(lp1011
(I0
I1
S"{'text': 'of'}"
tp1012
a(I1
I2
S"{'text': ['who', 'what', 'when', 'which', 'how', 'where', 'why'], 'nodeType': 'Token'}"
tp1013
a(I2
I3
S"{'nodeType': ['Chunk', 'NounChunk', 'VerbChunk', 'AdjectiveToken'], 'modality': ['may', 'can', 'must', 'might', 'could', 'should', 'would', 'ought', 'have to']}"
tp1014
a(I2
I3
S"{'tense': ['PAST', 'PRESENT', 'FUTURE'], 'nodeType': ['Chunk', 'NounChunk', 'VerbChunk', 'AdjectiveToken']}"
tp1015
a(I2
I4
S'{\'text\': (\'^\', [\';\', \'.\', \'!\', \'?\', \'...\', \'"\', \'``\']), \'pos\': (\'^\', [\'WP\', \'WDT\', \'WRB\', \'"\', "\'\'", \'``\'])}'
tp1016
a(I4
I3
S"{'nodeType': ['Chunk', 'NounChunk', 'VerbChunk', 'AdjectiveToken'], 'modality': ['may', 'can', 'must', 'might', 'could', 'should', 'would', 'ought', 'have to']}"
tp1017
a(I4
I3
S"{'tense': ['PAST', 'PRESENT', 'FUTURE'], 'nodeType': ['Chunk', 'NounChunk', 'VerbChunk', 'AdjectiveToken']}"
tp1018
a(I4
I5
S'{\'text\': (\'^\', [\';\', \'.\', \'!\', \'?\', \'...\', \'"\', \'``\']), \'pos\': (\'^\', [\'WP\', \'WDT\', \'WRB\', \'"\', "\'\'", \'``\'])}'
tp1019
a(I5
I3
S"{'nodeType': ['Chunk', 'NounChunk', 'VerbChunk', 'AdjectiveToken'], 'modality': ['may', 'can', 'must', 'might', 'could', 'should', 'would', 'ought', 'have to']}"
tp1020
a(I5
I3
S"{'tense': ['PAST', 'PRESENT', 'FUTURE'], 'nodeType': ['Chunk', 'NounChunk', 'VerbChunk', 'AdjectiveToken']}"
tp1021
a(I5
I6
S'{\'text\': (\'^\', [\';\', \'.\', \'!\', \'?\', \'...\', \'"\', \'``\']), \'pos\': (\'^\', [\'WP\', \'WDT\', \'WRB\', \'"\', "\'\'", \'``\'])}'
tp1022
a(I6
I3
S"{'nodeType': ['Chunk', 'NounChunk', 'VerbChunk', 'AdjectiveToken'], 'modality': ['may', 'can', 'must', 'might', 'could', 'should', 'would', 'ought', 'have to']}"
tp1023
a(I6
I3
S"{'tense': ['PAST', 'PRESENT', 'FUTURE'], 'nodeType': ['Chunk', 'NounChunk', 'VerbChunk', 'AdjectiveToken']}"
tp1024
a(I6
I7
S'{\'text\': (\'^\', [\';\', \'.\', \'!\', \'?\', \'...\', \'"\', \'``\']), \'pos\': (\'^\', [\'WP\', \'WDT\', \'WRB\', \'"\', "\'\'", \'``\'])}'
tp1025
a(I7
I3
S"{'nodeType': ['Chunk', 'NounChunk', 'VerbChunk', 'AdjectiveToken'], 'modality': ['may', 'can', 'must', 'might', 'could', 'should', 'would', 'ought', 'have to']}"
tp1026
a(I7
I3
S"{'tense': ['PAST', 'PRESENT', 'FUTURE'], 'nodeType': ['Chunk', 'NounChunk', 'VerbChunk', 'AdjectiveToken']}"
tp1027
a(I7
I8
S'{\'text\': (\'^\', [\';\', \'.\', \'!\', \'?\', \'...\', \'"\', \'``\']), \'pos\': (\'^\', [\'WP\', \'WDT\', \'WRB\', \'"\', "\'\'", \'``\'])}'
tp1028
a(I8
I3
S"{'nodeType': ['Chunk', 'NounChunk', 'VerbChunk', 'AdjectiveToken'], 'modality': ['may', 'can', 'must', 'might', 'could', 'should', 'would', 'ought', 'have to']}"
tp1029
a(I8
I3
S"{'tense': ['PAST', 'PRESENT', 'FUTURE'], 'nodeType': ['Chunk', 'NounChunk', 'VerbChunk', 'AdjectiveToken']}"
tp1030
a(I8
I9
S'{\'text\': (\'^\', [\';\', \'.\', \'!\', \'?\', \'...\', \'"\', \'``\']), \'pos\': (\'^\', [\'WP\', \'WDT\', \'WRB\', \'"\', "\'\'", \'``\'])}'
tp1031
a(I9
I3
S"{'nodeType': ['Chunk', 'NounChunk', 'VerbChunk', 'AdjectiveToken'], 'modality': ['may', 'can', 'must', 'might', 'could', 'should', 'would', 'ought', 'have to']}"
tp1032
a(I9
I3
S"{'tense': ['PAST', 'PRESENT', 'FUTURE'], 'nodeType': ['Chunk', 'NounChunk', 'VerbChunk', 'AdjectiveToken']}"
tp1033
asg83
I1
sg84
I1
sbaa(lp1034
g117
ag117
atp1035
ssS'discussions'
p1036
(dp1037
g4
((lp1038
(lp1039
g675
ag640
aa(lp1040
g86
ag355
aa(lp1041
g222
ag117
atp1042
ssS'concern'
p1043
(dp1044
g4
((lp1045
(lp1046
g355
ag385
aa(lp1047
g117
atp1048
ssS'imposition'
p1049
(dp1050
g4
((lp1051
(lp1052
g86
aa(lp1053
g222
atp1054
ssS'pressures'
p1055
(dp1056
g4
((lp1057
(lp1058
g580
aa(lp1059
g124
ag144
ag428
aa(lp1060
g222
ag222
atp1061
ssS'boost'
p1062
(dp1063
g4
((lp1064
(lp1065
(iutilities.FSA
FSA
p1066
(dp1067
g9
S'NP_event1'
p1068
sg11
(lp1069
I2
asg13
I1
sg14
Nsg15
S'[_{_\'_n_o_d_e_T_y_p_e_\'_:_ _\'_T_o_k_e_n_\'_,_ _\'_p_o_s_\'_:_ _\'_P_D_T_\'_}_,_ _\'_?_\'_,_ _{_\'_t_e_x_t_\'_:_ _[_\'_"_\'_,_ _\'_`_`_\'_,_ _"_\'_\'_"_]_}_,_ _\'_?_\'_,_ _\'_(_\'_,_ _{_\'_n_o_d_e_T_y_p_e_\'_:_ _\'_T_o_k_e_n_\'_,_ _\'_p_o_s_\'_:_ _[_\'_J_J_\'_,_ _\'_J_J_R_\'_,_ _\'_J_J_S_\'_,_ _\'_D_T_\'_,_ _\'_P_D_T_\'_,_ _\'_P_O_S_\'_,_ _\'_C_D_\'_,_ _\'_S_Y_M_\'_]_}_,_ _\'_*_\'_,_ _{_\'_n_o_d_e_T_y_p_e_\'_:_ _\'_N_o_u_n_C_h_u_n_k_\'_}_,_ _{_\'_t_e_x_t_\'_:_ _\'_o_f_\'_}_,_ _\'_)_\'_,_ _\'_*_\'_,_ _{_\'_n_o_d_e_T_y_p_e_\'_:_ _\'_N_o_u_n_C_h_u_n_k_\'_,_ _\'_e_v_e_n_t_S_t_a_t_u_s_\'_:_ _\'_1_\'_}_]'
p1070
sg17
I0
sg18
(lp1071
I0
aI2
aI4
aI3
aI1
aI5
asg20
(dp1072
sg22
I1
sg23
(lp1073
(I0
I1
S"{'nodeType': 'NounChunk'}"
p1074
tp1075
a(I0
I2
S"{'nodeType': 'NounChunk', 'eventStatus': '1'}"
p1076
tp1077
a(I0
I3
S"{'nodeType': 'Token', 'pos': 'PDT'}"
tp1078
a(I0
I4
S'{\'text\': [\'"\', \'``\', "\'\'"]}'
p1079
tp1080
a(I0
I5
S"{'nodeType': 'Token', 'pos': ['JJ', 'JJR', 'JJS', 'DT', 'PDT', 'POS', 'CD', 'SYM']}"
p1081
tp1082
a(I1
I4
S"{'text': 'of'}"
tp1083
a(I3
I1
g1074
tp1084
a(I3
I2
g1076
tp1085
a(I3
I4
g1079
tp1086
a(I3
I5
g1081
tp1087
a(I4
I1
g1074
tp1088
a(I4
I2
g1076
tp1089
a(I4
I5
g1081
tp1090
a(I5
I1
g1074
tp1091
a(I5
I5
g1081
tp1092
asg83
I1
sg84
I1
sba(iutilities.FSA
FSA
p1093
(dp1094
g9
S'NP_event2'
p1095
sg11
(lp1096
I2
asg13
I1
sg14
Nsg15
S'[_{_\'_n_o_d_e_T_y_p_e_\'_:_ _\'_T_o_k_e_n_\'_,_ _\'_p_o_s_\'_:_ _\'_P_D_T_\'_}_,_ _\'_?_\'_,_ _{_\'_t_e_x_t_\'_:_ _[_\'_"_\'_,_ _\'_`_`_\'_,_ _"_\'_\'_"_]_}_,_ _\'_?_\'_,_ _{_\'_n_o_d_e_T_y_p_e_\'_:_ _\'_T_o_k_e_n_\'_,_ _\'_p_o_s_\'_:_ _\'_D_T_\'_}_,_ _\'_?_\'_,_ _{_\'_t_e_x_t_\'_:_ _[_\'_"_\'_,_ _\'_`_`_\'_,_ _"_\'_\'_"_]_}_,_ _\'_?_\'_,_ _\'_(_\'_,_ _{_\'_n_o_d_e_T_y_p_e_\'_:_ _\'_T_o_k_e_n_\'_,_ _\'_p_o_s_\'_:_ _[_\'_J_J_\'_,_ _\'_J_J_R_\'_,_ _\'_J_J_S_\'_]_}_,_ _\'_|_\'_,_ _{_\'_n_o_d_e_T_y_p_e_\'_:_ _\'_V_e_r_b_C_h_u_n_k_\'_,_ _\'_p_o_s_\'_:_ _[_\'_V_G_B_\'_,_ _\'_V_B_N_\'_]_}_,_ _\'_|_\'_,_ _{_\'_p_o_s_\'_:_ _\'_S_Y_M_\'_}_,_ _\'_)_\'_,_ _\'_*_\'_,_ _{_\'_t_e_x_t_\'_:_ _[_\'_"_\'_,_ _\'_`_`_\'_,_ _"_\'_\'_"_]_}_,_ _\'_?_\'_,_ _{_\'_n_o_d_e_T_y_p_e_\'_:_ _\'_T_o_k_e_n_\'_,_ _\'_p_o_s_\'_:_ _\'_C_D_\'_}_,_ _\'_*_\'_,_ _{_\'_t_e_x_t_\'_:_ _[_\'_"_\'_,_ _\'_`_`_\'_,_ _"_\'_\'_"_]_}_,_ _\'_?_\'_,_ _{_\'_n_o_d_e_T_y_p_e_\'_:_ _\'_N_o_u_n_C_h_u_n_k_\'_,_ _\'_e_v_e_n_t_S_t_a_t_u_s_\'_:_ _\'_1_\'_}_]'
p1097
sg17
I0
sg18
(lp1098
I0
aI5
aI2
aI6
aI3
aI1
aI4
aI7
asg20
(dp1099
sg22
I1
sg23
(lp1100
(I0
I1
S"{'nodeType': 'Token', 'pos': ['JJ', 'JJR', 'JJS']}"
tp1101
a(I0
I1
S"{'nodeType': 'VerbChunk', 'pos': ['VGB', 'VBN']}"
tp1102
a(I0
I1
S"{'pos': 'SYM'}"
tp1103
a(I0
I2
S"{'nodeType': 'NounChunk', 'eventStatus': '1'}"
p1104
tp1105
a(I0
I3
S"{'nodeType': 'Token', 'pos': 'PDT'}"
tp1106
a(I0
I4
S'{\'text\': [\'"\', \'``\', "\'\'"]}'
p1107
tp1108
a(I0
I5
S"{'nodeType': 'Token', 'pos': 'CD'}"
p1109
tp1110
a(I0
I6
S"{'nodeType': 'Token', 'pos': 'DT'}"
p1111
tp1112
a(I1
I1
S"{'nodeType': 'Token', 'pos': ['JJ', 'JJR', 'JJS']}"
tp1113
a(I1
I1
S"{'nodeType': 'VerbChunk', 'pos': ['VGB', 'VBN']}"
tp1114
a(I1
I1
S"{'pos': 'SYM'}"
tp1115
a(I1
I2
g1104
tp1116
a(I1
I5
S"{'nodeType': 'Token', 'pos': 'CD'}"
tp1117
a(I1
I5
S'{\'text\': [\'"\', \'``\', "\'\'"]}'
tp1118
a(I3
I1
S"{'nodeType': 'Token', 'pos': ['JJ', 'JJR', 'JJS']}"
tp1119
a(I3
I1
S"{'nodeType': 'VerbChunk', 'pos': ['VGB', 'VBN']}"
tp1120
a(I3
I1
S"{'pos': 'SYM'}"
tp1121
a(I3
I2
g1104
tp1122
a(I3
I4
g1107
tp1123
a(I3
I5
g1109
tp1124
a(I3
I6
g1111
tp1125
a(I4
I1
S"{'nodeType': 'Token', 'pos': ['JJ', 'JJR', 'JJS']}"
tp1126
a(I4
I1
S"{'nodeType': 'VerbChunk', 'pos': ['VGB', 'VBN']}"
tp1127
a(I4
I1
S"{'pos': 'SYM'}"
tp1128
a(I4
I1
S'{\'text\': [\'"\', \'``\', "\'\'"]}'
tp1129
a(I4
I2
g1104
tp1130
a(I4
I5
g1109
tp1131
a(I4
I6
g1111
tp1132
a(I5
I2
g1104
tp1133
a(I5
I7
S'{\'text\': [\'"\', \'``\', "\'\'"]}'
tp1134
a(I5
I5
g1109
tp1135
a(I6
I1
S"{'nodeType': 'Token', 'pos': ['JJ', 'JJR', 'JJS']}"
tp1136
a(I6
I1
S"{'nodeType': 'VerbChunk', 'pos': ['VGB', 'VBN']}"
tp1137
a(I6
I1
S"{'pos': 'SYM'}"
tp1138
a(I6
I1
S'{\'text\': [\'"\', \'``\', "\'\'"]}'
tp1139
a(I6
I2
g1104
tp1140
a(I6
I5
g1109
tp1141
a(I7
I2
g1104
tp1142
asg83
I1
sg84
I1
sbaa(lp1143
g117
atp1144
ssS'discovery'
p1145
(dp1146
g4
((lp1147
(lp1148
g7
aa(lp1149
g1066
ag1093
aa(lp1150
g117
ag117
atp1151
ssS'ability'
p1152
(dp1153
g4
((lp1154
(lp1155
g124
ag144
ag428
aa(lp1156
g222
atp1157
ssS'desires'
p1158
(dp1159
g4
((lp1160
(lp1161
g124
ag144
ag428
aa(lp1162
g222
atp1163
ssS'approvals'
p1164
(dp1165
g4
((lp1166
(lp1167
g124
ag144
ag428
aa(lp1168
g1066
ag1093
aa(lp1169
g86
aa(lp1170
g222
ag222
ag222
atp1171
ssS'understanding'
p1172
(dp1173
g4
((lp1174
(lp1175
g86
aa(lp1176
g117
atp1177
ssS'hypothesis'
p1178
(dp1179
g4
((lp1180
(lp1181
g7
aa(lp1182
g355
aa(lp1183
g222
ag117
atp1184
ssS'approval'
p1185
(dp1186
g4
((lp1187
(lp1188
g124
ag144
ag428
aa(lp1189
g1066
ag1093
aa(lp1190
g86
aa(lp1191
g222
ag222
ag222
atp1192
ssS'change'
p1193
(dp1194
g4
((lp1195
(lp1196
g86
aa(lp1197
g117
atp1198
ssS'remark'
p1199
(dp1200
g4
((lp1201
(lp1202
g7
ag228
ag284
ag321
aa(lp1203
(iutilities.FSA
FSA
p1204
(dp1205
g9
S'on_NPev'
p1206
sg11
(lp1207
I4
asg13
I1
sg14
Nsg15
S"[_{_'_n_o_d_e_T_y_p_e_'_:_ _'_T_o_k_e_n_'_,_ _'_p_o_s_'_:_ _'_P_D_T_'_}_,_ _'_?_'_,_ _{_'_n_o_d_e_T_y_p_e_'_:_ _'_N_o_u_n_C_h_u_n_k_'_}_,_ _'_?_'_,_ _{_'_t_e_x_t_'_:_ _'_o_n_'_}_,_ _{_'_n_o_d_e_T_y_p_e_'_:_ _'_T_o_k_e_n_'_,_ _'_p_o_s_'_:_ _'_P_D_T_'_}_,_ _'_?_'_,_ _'_(_'_,_ _{_'_n_o_d_e_T_y_p_e_'_:_ _'_N_o_u_n_C_h_u_n_k_'_,_ _'_e_v_e_n_t_S_t_a_t_u_s_'_:_ _'_1_'_}_,_ _'_|_'_,_ _{_'_n_o_d_e_T_y_p_e_'_:_ _'_T_o_k_e_n_'_,_ _'_p_o_s_'_:_ _'_D_T_'_}_,_ _'_(_'_,_ _{_'_n_o_d_e_T_y_p_e_'_:_ _'_T_o_k_e_n_'_,_ _'_p_o_s_'_:_ _[_'_J_J_'_,_ _'_J_J_R_'_,_ _'_J_J_S_'_]_}_,_ _'_|_'_,_ _{_'_n_o_d_e_T_y_p_e_'_:_ _'_V_e_r_b_C_h_u_n_k_'_,_ _'_p_o_s_'_:_ _[_'_V_G_B_'_,_ _'_V_B_N_'_]_}_,_ _'_|_'_,_ _{_'_p_o_s_'_:_ _'_S_Y_M_'_}_,_ _'_)_'_,_ _'_*_'_,_ _{_'_n_o_d_e_T_y_p_e_'_:_ _'_T_o_k_e_n_'_,_ _'_p_o_s_'_:_ _'_C_D_'_}_,_ _'_*_'_,_ _{_'_n_o_d_e_T_y_p_e_'_:_ _'_N_o_u_n_C_h_u_n_k_'_}_,_ _'_)_'_]"
p1208
sg17
I0
sg18
(lp1209
I7
aI0
aI1
aI2
aI3
aI4
aI5
aI6
asg20
(dp1210
sg22
I1
sg23
(lp1211
(I0
I1
S"{'nodeType': 'NounChunk'}"
p1212
tp1213
a(I0
I2
S"{'nodeType': 'Token', 'pos': 'PDT'}"
tp1214
a(I0
I3
S"{'text': 'on'}"
p1215
tp1216
a(I1
I3
g1215
tp1217
a(I2
I1
g1212
tp1218
a(I2
I3
g1215
tp1219
a(I3
I4
S"{'nodeType': 'NounChunk', 'eventStatus': '1'}"
p1220
tp1221
a(I3
I5
S"{'nodeType': 'Token', 'pos': 'PDT'}"
tp1222
a(I3
I6
S"{'nodeType': 'Token', 'pos': 'DT'}"
p1223
tp1224
a(I5
I4
g1220
tp1225
a(I5
I6
g1223
tp1226
a(I6
I4
S"{'nodeType': 'NounChunk'}"
tp1227
a(I6
I6
S"{'nodeType': 'Token', 'pos': ['JJ', 'JJR', 'JJS']}"
tp1228
a(I6
I6
S"{'nodeType': 'VerbChunk', 'pos': ['VGB', 'VBN']}"
tp1229
a(I6
I6
S"{'pos': 'SYM'}"
tp1230
a(I6
I7
S"{'nodeType': 'Token', 'pos': 'CD'}"
tp1231
a(I7
I4
S"{'nodeType': 'NounChunk'}"
tp1232
a(I7
I7
S"{'nodeType': 'Token', 'pos': 'CD'}"
tp1233
asg83
I1
sg84
I1
sbaa(lp1234
g408
ag117
atp1235
ssS'perceptions'
p1236
(dp1237
g4
((lp1238
(lp1239
g7
aa(lp1240
g86
ag198
aa(lp1241
g117
ag117
atp1242
ssS'avowals'
p1243
(dp1244
g4
((lp1245
(lp1246
g86
aa(lp1247
g124
ag144
aa(lp1248
g117
ag222
atp1249
ssS'pressure'
p1250
(dp1251
g4
((lp1252
(lp1253
g580
aa(lp1254
g124
ag144
ag428
aa(lp1255
g222
ag222
atp1256
ssS'approaches'
p1257
(dp1258
g4
((lp1259
(lp1260
g924
aa(lp1261
g117
atp1262
ssS'credit'
p1263
(dp1264
g4
((lp1265
(lp1266
g513
ag580
aa(lp1267
g7
aa(lp1268
g117
ag117
ag222
atp1269
ssS'suggestion'
p1270
(dp1271
g4
((lp1272
(lp1273
g7
ag284
aa(lp1274
g222
atp1275
ssS'changes'
p1276
(dp1277
g4
((lp1278
(lp1279
g86
aa(lp1280
g117
atp1281
ssS'options'
p1282
(dp1283
g4
((lp1284
(lp1285
g124
ag144
ag428
aa(lp1286
g198
ag86
aa(lp1287
g222
ag222
atp1288
ssS'negotiation'
p1289
(dp1290
g4
((lp1291
(lp1292
g355
ag385
aa(lp1293
g198
ag86
aa(lp1294
g580
ag513
aa(lp1295
g124
aa(lp1296
g222
ag222
ag222
ag222
atp1297
ssS'intents'
p1298
(dp1299
g4
((lp1300
(lp1301
g124
ag144
ag428
aa(lp1302
g222
atp1303
ssS'feelings'
p1304
(dp1305
g4
((lp1306
(lp1307
g7
ag284
aa(lp1308
g86
ag198
aa(lp1309
g408
ag408
atp1310
ssS'assertions'
p1311
(dp1312
g4
((lp1313
(lp1314
g7
ag228
aa(lp1315
g408
atp1316
ssS'laugh'
p1317
(dp1318
g4
((lp1319
(lp1320
g355
ag385
aa(lp1321
g117
atp1322
ssS'conference'
p1323
(dp1324
g4
((lp1325
(lp1326
g124
ag144
ag428
aa(lp1327
g222
atp1328
ssS'use'
p1329
(dp1330
g4
((lp1331
(lp1332
g124
ag144
ag428
aa(lp1333
g222
atp1334
ssS'acceptance'
p1335
(dp1336
g4
((lp1337
(lp1338
g86
ag198
aa(lp1339
g7
ag228
ag284
ag321
aa(lp1340
g117
ag117
atp1341
ssS'predictions'
p1342
(dp1343
g4
((lp1344
(lp1345
g86
ag198
aa(lp1346
g7
ag284
aa(lp1347
g222
ag222
atp1348
ssS'doubt'
p1349
(dp1350
g4
((lp1351
(lp1352
g7
ag640
aa(lp1353
g355
aa(lp1354
g222
ag222
atp1355
ssS'call'
p1356
(dp1357
g4
((lp1358
(lp1359
g513
ag580
aa(lp1360
g124
ag144
ag428
aa(lp1361
g222
ag222
atp1362
ssS'agreements'
p1363
(dp1364
g4
((lp1365
(lp1366
g124
ag144
ag428
aa(lp1367
g513
aa(lp1368
g222
ag222
atp1369
ssS'suspicion'
p1370
(dp1371
g4
((lp1372
(lp1373
g7
ag284
aa(lp1374
g198
ag86
aa(lp1375
g222
ag222
atp1376
ssS'proposal'
p1377
(dp1378
g4
((lp1379
(lp1380
g124
ag144
ag428
aa(lp1381
g7
ag284
aa(lp1382
g86
ag198
aa(lp1383
g222
ag222
ag222
atp1384
ssS'suggestions'
p1385
(dp1386
g4
((lp1387
(lp1388
g7
ag284
aa(lp1389
g222
atp1390
ssS'excuse'
p1391
(dp1392
g4
((lp1393
(lp1394
g513
ag580
aa(lp1395
g117
atp1396
ssS'cancelations'
p1397
(dp1398
g4
((lp1399
(lp1400
g86
aa(lp1401
g495
atp1402
ssS'pretences'
p1403
(dp1404
g4
((lp1405
(lp1406
g86
aa(lp1407
g198
aa(lp1408
g7
aa(lp1409
g495
ag495
ag495
atp1410
ssS'demand'
p1411
(dp1412
g4
((lp1413
(lp1414
g7
ag228
ag284
ag321
aa(lp1415
g86
ag198
aa(lp1416
g222
ag222
atp1417
ssS'effort'
p1418
(dp1419
g4
((lp1420
(lp1421
g124
ag144
ag428
aa(lp1422
g222
atp1423
ssS'hints'
p1424
(dp1425
g4
((lp1426
(lp1427
g7
aa(lp1428
g355
aa(lp1429
g222
ag222
atp1430
ssS'organizations'
p1431
(dp1432
g4
((lp1433
(lp1434
g86
aa(lp1435
g124
aa(lp1436
g222
ag222
atp1437
ssS'claims'
p1438
(dp1439
g4
((lp1440
(lp1441
g7
ag284
aa(lp1442
g580
aa(lp1443
g408
ag222
atp1444
ssS'challenge'
p1445
(dp1446
g4
((lp1447
(lp1448
g124
ag144
aa(lp1449
g924
aa(lp1450
g222
ag222
atp1451
ssS'accomplishment'
p1452
(dp1453
g4
((lp1454
(lp1455
g86
ag198
aa(lp1456
g117
atp1457
ssS'pretence'
p1458
(dp1459
g4
((lp1460
(lp1461
g86
aa(lp1462
g198
aa(lp1463
g7
aa(lp1464
g495
ag495
ag495
atp1465
ssS'publications'
p1466
(dp1467
g4
((lp1468
(lp1469
g86
aa(lp1470
g408
atp1471
ssS'discoveries'
p1472
(dp1473
g4
((lp1474
(lp1475
g7
aa(lp1476
g1066
ag1093
aa(lp1477
g117
ag117
atp1478
ssS'proof'
p1479
(dp1480
g4
((lp1481
(lp1482
g86
ag198
aa(lp1483
g7
ag284
aa(lp1484
g117
ag117
atp1485
ssS'claim'
p1486
(dp1487
g4
((lp1488
(lp1489
g7
ag284
aa(lp1490
g580
aa(lp1491
g408
ag222
atp1492
ssS'conferences'
p1493
(dp1494
g4
((lp1495
(lp1496
g124
ag144
ag428
aa(lp1497
g222
atp1498
ssS'laughs'
p1499
(dp1500
g4
((lp1501
(lp1502
g355
ag385
aa(lp1503
g117
atp1504
ssS'assumptions'
p1505
(dp1506
g4
((lp1507
(lp1508
g7
ag284
aa(lp1509
g222
atp1510
ssS'guarantee'
p1511
(dp1512
g4
((lp1513
(lp1514
(iutilities.FSA
FSA
p1515
(dp1516
g9
S'thatClause_NOT_tensed'
p1517
sg11
(lp1518
I2
asg13
I1
sg14
Nsg15
S'[_{_\'_t_e_x_t_\'_:_ _(_\'_^_\'_,_ _[_\'_,_\'_]_)_}_,_ _{_\'_t_e_x_t_\'_:_ _(_\'_^_\'_,_ _[_\'_;_\'_,_ _\'_._\'_,_ _\'_!_\'_,_ _\'_?_\'_,_ _\'_._._._\'_,_ _\'_"_\'_,_ _\'_`_`_\'_]_)_,_ _\'_p_o_s_\'_:_ _(_\'_^_\'_,_ _[_\'_W_P_\'_,_ _\'_W_D_T_\'_,_ _\'_W_R_B_\'_,_ _\'_"_\'_,_ _"_\'_\'_"_,_ _\'_`_`_\'_]_)_}_,_ _\'_?_\'_,_ _{_\'_t_e_x_t_\'_:_ _(_\'_^_\'_,_ _[_\'_;_\'_,_ _\'_._\'_,_ _\'_!_\'_,_ _\'_?_\'_,_ _\'_._._._\'_,_ _\'_"_\'_,_ _\'_`_`_\'_]_)_,_ _\'_p_o_s_\'_:_ _(_\'_^_\'_,_ _[_\'_W_P_\'_,_ _\'_W_D_T_\'_,_ _\'_W_R_B_\'_,_ _\'_"_\'_,_ _"_\'_\'_"_,_ _\'_`_`_\'_]_)_}_,_ _\'_?_\'_,_ _{_\'_t_e_x_t_\'_:_ _(_\'_^_\'_,_ _[_\'_;_\'_,_ _\'_._\'_,_ _\'_!_\'_,_ _\'_?_\'_,_ _\'_._._._\'_,_ _\'_"_\'_,_ _\'_`_`_\'_]_)_,_ _\'_p_o_s_\'_:_ _(_\'_^_\'_,_ _[_\'_W_P_\'_,_ _\'_W_D_T_\'_,_ _\'_W_R_B_\'_,_ _\'_"_\'_,_ _"_\'_\'_"_,_ _\'_`_`_\'_]_)_}_,_ _\'_?_\'_,_ _{_\'_t_e_x_t_\'_:_ _(_\'_^_\'_,_ _[_\'_;_\'_,_ _\'_._\'_,_ _\'_!_\'_,_ _\'_?_\'_,_ _\'_._._._\'_,_ _\'_"_\'_,_ _\'_`_`_\'_]_)_,_ _\'_p_o_s_\'_:_ _(_\'_^_\'_,_ _[_\'_W_P_\'_,_ _\'_W_D_T_\'_,_ _\'_W_R_B_\'_,_ _\'_"_\'_,_ _"_\'_\'_"_,_ _\'_`_`_\'_]_)_}_,_ _\'_?_\'_,_ _{_\'_t_e_x_t_\'_:_ _(_\'_^_\'_,_ _[_\'_;_\'_,_ _\'_._\'_,_ _\'_!_\'_,_ _\'_?_\'_,_ _\'_._._._\'_,_ _\'_"_\'_,_ _\'_`_`_\'_]_)_,_ _\'_p_o_s_\'_:_ _(_\'_^_\'_,_ _[_\'_W_P_\'_,_ _\'_W_D_T_\'_,_ _\'_W_R_B_\'_,_ _\'_"_\'_,_ _"_\'_\'_"_,_ _\'_`_`_\'_]_)_}_,_ _\'_?_\'_,_ _{_\'_t_e_x_t_\'_:_ _(_\'_^_\'_,_ _[_\'_;_\'_,_ _\'_._\'_,_ _\'_!_\'_,_ _\'_?_\'_,_ _\'_._._._\'_,_ _\'_"_\'_,_ _\'_`_`_\'_]_)_,_ _\'_p_o_s_\'_:_ _(_\'_^_\'_,_ _[_\'_W_P_\'_,_ _\'_W_D_T_\'_,_ _\'_W_R_B_\'_,_ _\'_"_\'_,_ _"_\'_\'_"_,_ _\'_`_`_\'_]_)_}_,_ _\'_?_\'_,_ _{_\'_t_e_n_s_e_\'_:_ _\'_I_N_F_I_N_I_T_I_V_E_\'_,_ _\'_n_o_d_e_T_y_p_e_\'_:_ _\'_V_e_r_b_C_h_u_n_k_\'_,_ _\'_e_v_e_n_t_S_t_a_t_u_s_\'_:_ _\'_1_\'_,_ _\'_p_o_s_\'_:_ _\'_V_B_\'_}_]'
p1519
sg17
I0
sg18
(lp1520
I0
aI1
aI2
aI8
aI3
aI4
aI5
aI6
aI7
asg20
(dp1521
sg22
I1
sg23
(lp1522
(I0
I1
S"{'text': ('^', [','])}"
tp1523
a(I1
I2
S"{'tense': 'INFINITIVE', 'nodeType': 'VerbChunk', 'eventStatus': '1', 'pos': 'VB'}"
p1524
tp1525
a(I1
I3
S'{\'text\': (\'^\', [\';\', \'.\', \'!\', \'?\', \'...\', \'"\', \'``\']), \'pos\': (\'^\', [\'WP\', \'WDT\', \'WRB\', \'"\', "\'\'", \'``\'])}'
tp1526
a(I3
I2
g1524
tp1527
a(I3
I4
S'{\'text\': (\'^\', [\';\', \'.\', \'!\', \'?\', \'...\', \'"\', \'``\']), \'pos\': (\'^\', [\'WP\', \'WDT\', \'WRB\', \'"\', "\'\'", \'``\'])}'
tp1528
a(I4
I2
g1524
tp1529
a(I4
I5
S'{\'text\': (\'^\', [\';\', \'.\', \'!\', \'?\', \'...\', \'"\', \'``\']), \'pos\': (\'^\', [\'WP\', \'WDT\', \'WRB\', \'"\', "\'\'", \'``\'])}'
tp1530
a(I5
I2
g1524
tp1531
a(I5
I6
S'{\'text\': (\'^\', [\';\', \'.\', \'!\', \'?\', \'...\', \'"\', \'``\']), \'pos\': (\'^\', [\'WP\', \'WDT\', \'WRB\', \'"\', "\'\'", \'``\'])}'
tp1532
a(I6
I2
g1524
tp1533
a(I6
I7
S'{\'text\': (\'^\', [\';\', \'.\', \'!\', \'?\', \'...\', \'"\', \'``\']), \'pos\': (\'^\', [\'WP\', \'WDT\', \'WRB\', \'"\', "\'\'", \'``\'])}'
tp1534
a(I7
I2
g1524
tp1535
a(I7
I8
S'{\'text\': (\'^\', [\';\', \'.\', \'!\', \'?\', \'...\', \'"\', \'``\']), \'pos\': (\'^\', [\'WP\', \'WDT\', \'WRB\', \'"\', "\'\'", \'``\'])}'
tp1536
a(I8
I2
g1524
tp1537
asg83
I1
sg84
I1
sbag7
ag624
ag284
aa(lp1538
g1066
ag1093
aa(lp1539
g222
ag222
atp1540
ssS'needs'
p1541
(dp1542
g4
((lp1543
(lp1544
g124
ag144
ag428
aa(lp1545
g1066
ag1093
aa(lp1546
g222
ag222
atp1547
ssS'goal'
p1548
(dp1549
g4
((lp1550
(lp1551
g124
ag144
ag428
aa(lp1552
g86
ag198
aa(lp1553
g222
ag222
atp1554
ssS'discussion'
p1555
(dp1556
g4
((lp1557
(lp1558
g675
ag640
aa(lp1559
g86
ag355
aa(lp1560
g222
ag117
atp1561
ssS'struggles'
p1562
(dp1563
g4
((lp1564
(lp1565
g124
ag144
ag428
aa(lp1566
g513
ag580
aa(lp1567
g222
atp1568
ssS'delay'
p1569
(dp1570
g4
((lp1571
(lp1572
g86
ag198
aa(lp1573
g222
atp1574
ssS'development'
p1575
(dp1576
g4
((lp1577
(lp1578
g86
ag198
aa(lp1579
g117
atp1580
ssS'plans'
p1581
(dp1582
g4
((lp1583
(lp1584
g124
ag144
ag428
aa(lp1585
g1066
ag1093
aa(lp1586
g222
ag222
atp1587
ssS'adoptions'
p1588
(dp1589
g4
((lp1590
(lp1591
g86
aa(lp1592
g124
ag144
ag428
aa(lp1593
g117
ag222
atp1594
ssS'uses'
p1595
(dp1596
g4
((lp1597
(lp1598
g124
ag144
ag428
aa(lp1599
g222
atp1600
ssS'acceptances'
p1601
(dp1602
g4
((lp1603
(lp1604
g86
ag198
aa(lp1605
g7
ag228
ag284
ag321
aa(lp1606
g117
ag117
atp1607
ssS'destruction'
p1608
(dp1609
g4
((lp1610
(lp1611
g86
ag198
aa(lp1612
g117
atp1613
ssS'acquisitions'
p1614
(dp1615
g4
((lp1616
(lp1617
g86
aa(lp1618
g124
ag144
ag428
aa(lp1619
g117
ag222
atp1620
ssS'attempt'
p1621
(dp1622
g4
((lp1623
(lp1624
g124
ag144
ag428
aa(lp1625
g1066
ag1093
aa(lp1626
g86
aa(lp1627
g222
ag222
ag222
atp1628
ssS'charges'
p1629
(dp1630
g4
((lp1631
(lp1632
g513
aa(lp1633
g198
ag86
aa(lp1634
g7
ag284
aa(lp1635
g117
ag222
ag222
atp1636
ssS'position'
p1637
(dp1638
g4
((lp1639
(lp1640
g124
ag144
aa(lp1641
g198
aa(lp1642
g222
ag222
atp1643
ssS'clearance'
p1644
(dp1645
g4
((lp1646
(lp1647
g124
ag144
ag428
aa(lp1648
g222
atp1649
ssS'order'
p1650
(dp1651
g4
((lp1652
(lp1653
g124
ag144
ag428
aa(lp1654
g1066
ag1093
aa(lp1655
g198
aa(lp1656
g222
ag222
ag222
atp1657
ssS'talk'
p1658
(dp1659
g4
((lp1660
(lp1661
g355
aa(lp1662
g222
atp1663
ssS'destructions'
p1664
(dp1665
g4
((lp1666
(lp1667
g86
ag198
aa(lp1668
g117
atp1669
ssS'move'
p1670
(dp1671
g4
((lp1672
(lp1673
(iutilities.FSA
FSA
p1674
(dp1675
g9
S'from_NPev'
p1676
sg11
(lp1677
I4
asg13
I1
sg14
Nsg15
S"[_{_'_n_o_d_e_T_y_p_e_'_:_ _'_T_o_k_e_n_'_,_ _'_p_o_s_'_:_ _'_P_D_T_'_}_,_ _'_?_'_,_ _{_'_n_o_d_e_T_y_p_e_'_:_ _'_N_o_u_n_C_h_u_n_k_'_}_,_ _'_?_'_,_ _{_'_t_e_x_t_'_:_ _'_f_r_o_m_'_}_,_ _{_'_n_o_d_e_T_y_p_e_'_:_ _'_T_o_k_e_n_'_,_ _'_p_o_s_'_:_ _'_P_D_T_'_}_,_ _'_?_'_,_ _'_(_'_,_ _{_'_n_o_d_e_T_y_p_e_'_:_ _'_N_o_u_n_C_h_u_n_k_'_,_ _'_e_v_e_n_t_S_t_a_t_u_s_'_:_ _'_1_'_}_,_ _'_|_'_,_ _{_'_n_o_d_e_T_y_p_e_'_:_ _'_T_o_k_e_n_'_,_ _'_p_o_s_'_:_ _'_D_T_'_}_,_ _'_(_'_,_ _{_'_n_o_d_e_T_y_p_e_'_:_ _'_T_o_k_e_n_'_,_ _'_p_o_s_'_:_ _[_'_J_J_'_,_ _'_J_J_R_'_,_ _'_J_J_S_'_]_}_,_ _'_|_'_,_ _{_'_n_o_d_e_T_y_p_e_'_:_ _'_V_e_r_b_C_h_u_n_k_'_,_ _'_p_o_s_'_:_ _[_'_V_G_B_'_,_ _'_V_B_N_'_]_}_,_ _'_|_'_,_ _'_|_'_,_ _{_'_p_o_s_'_:_ _'_S_Y_M_'_}_,_ _'_)_'_,_ _'_*_'_,_ _{_'_n_o_d_e_T_y_p_e_'_:_ _'_T_o_k_e_n_'_,_ _'_p_o_s_'_:_ _'_C_D_'_}_,_ _'_*_'_,_ _{_'_n_o_d_e_T_y_p_e_'_:_ _'_N_o_u_n_C_h_u_n_k_'_}_,_ _'_)_'_]"
p1678
sg17
I0
sg18
(lp1679
I7
aI0
aI1
aI2
aI3
aI4
aI5
aI6
asg20
(dp1680
sg22
I1
sg23
(lp1681
(I0
I1
S"{'nodeType': 'NounChunk'}"
p1682
tp1683
a(I0
I2
S"{'nodeType': 'Token', 'pos': 'PDT'}"
tp1684
a(I0
I3
S"{'text': 'from'}"
p1685
tp1686
a(I1
I3
g1685
tp1687
a(I2
I1
g1682
tp1688
a(I2
I3
g1685
tp1689
a(I3
I4
S"{'nodeType': 'NounChunk', 'eventStatus': '1'}"
p1690
tp1691
a(I3
I5
S"{'nodeType': 'Token', 'pos': 'PDT'}"
tp1692
a(I3
I6
S"{'nodeType': 'Token', 'pos': 'DT'}"
p1693
tp1694
a(I5
I4
g1690
tp1695
a(I5
I6
g1693
tp1696
a(I6
I4
S"{'nodeType': 'NounChunk'}"
tp1697
a(I6
I6
S"{'nodeType': 'Token', 'pos': ['JJ', 'JJR', 'JJS']}"
tp1698
a(I6
I6
S"{'nodeType': 'VerbChunk', 'pos': ['VGB', 'VBN']}"
tp1699
a(I6
I6
S"{'pos': 'SYM'}"
tp1700
a(I6
I7
S"{'nodeType': 'Token', 'pos': 'CD'}"
tp1701
a(I7
I4
S"{'nodeType': 'NounChunk'}"
tp1702
a(I7
I7
S"{'nodeType': 'Token', 'pos': 'CD'}"
tp1703
asg83
I1
sg84
I1
sbag725
aa(lp1704
g124
ag144
ag428
aa(lp1705
g117
ag222
atp1706
ssS'questions'
p1707
(dp1708
g4
((lp1709
(lp1710
g640
aa(lp1711
g222
atp1712
ssS'boosts'
p1713
(dp1714
g4
((lp1715
(lp1716
g1066
ag1093
aa(lp1717
g117
atp1718
ssS'presumption'
p1719
(dp1720
g4
((lp1721
(lp1722
g7
aa(lp1723
g222
atp1724
ssS'discloses'
p1725
(dp1726
g4
((lp1727
(lp1728
g86
ag198
aa(lp1729
g7
ag284
aa(lp1730
g117
ag117
atp1731
ssS'hint'
p1732
(dp1733
g4
((lp1734
(lp1735
g7
aa(lp1736
g355
aa(lp1737
g222
ag222
atp1738
ssS'responsabilities'
p1739
(dp1740
g4
((lp1741
(lp1742
g124
ag144
ag428
aa(lp1743
g86
ag198
ag580
ag513
aa(lp1744
g222
ag222
atp1745
ssS'expectations'
p1746
(dp1747
g4
((lp1748
(lp1749
g124
ag144
aa(lp1750
g7
ag284
aa(lp1751
g355
ag385
ag86
ag198
aa(lp1752
g222
ag222
ag222
atp1753
ssS'improvement'
p1754
(dp1755
g4
((lp1756
(lp1757
g86
ag1066
ag1093
aa(lp1758
g117
atp1759
ssS'offers'
p1760
(dp1761
g4
((lp1762
(lp1763
g124
ag144
ag428
aa(lp1764
g1066
ag1093
aa(lp1765
g222
ag222
atp1766
ssS'adoption'
p1767
(dp1768
g4
((lp1769
(lp1770
g86
aa(lp1771
g124
ag144
ag428
aa(lp1772
g117
ag222
atp1773
ssS'guarantees'
p1774
(dp1775
g4
((lp1776
(lp1777
g1515
ag7
ag624
ag284
aa(lp1778
g1066
ag1093
aa(lp1779
g222
ag222
atp1780
ssS'responsability'
p1781
(dp1782
g4
((lp1783
(lp1784
g124
ag144
ag428
aa(lp1785
g86
ag198
ag580
ag513
aa(lp1786
g222
ag222
atp1787
ssS'complaint'
p1788
(dp1789
g4
((lp1790
(lp1791
g7
aa(lp1792
g355
aa(lp1793
g408
ag117
atp1794
ssS'demands'
p1795
(dp1796
g4
((lp1797
(lp1798
g7
ag228
ag284
ag321
aa(lp1799
g86
ag198
aa(lp1800
g222
ag222
atp1801
ssS'conversations'
p1802
(dp1803
g4
((lp1804
(lp1805
g355
ag385
aa(lp1806
g580
ag513
aa(lp1807
g117
ag222
atp1808
ssS'bid'
p1809
(dp1810
g4
((lp1811
(lp1812
g580
ag513
aa(lp1813
g124
ag144
ag428
aa(lp1814
g222
ag222
atp1815
ssS'invitations'
p1816
(dp1817
g4
((lp1818
(lp1819
g124
ag144
ag428
aa(lp1820
g222
atp1821
ssS'renunciation'
p1822
(dp1823
g4
((lp1824
(lp1825
g86
aa(lp1826
g495
atp1827
ssS'increases'
p1828
(dp1829
g4
((lp1830
(lp1831
g86
ag198
aa(lp1832
g117
atp1833
ssS'preference'
p1834
(dp1835
g4
((lp1836
(lp1837
g513
aa(lp1838
g580
aa(lp1839
g222
ag222
atp1840
ssS'developments'
p1841
(dp1842
g4
((lp1843
(lp1844
g86
ag198
aa(lp1845
g117
atp1846
ssS'desire'
p1847
(dp1848
g4
((lp1849
(lp1850
g124
ag144
ag428
aa(lp1851
g222
atp1852
ssS'improvements'
p1853
(dp1854
g4
((lp1855
(lp1856
g86
ag1066
ag1093
aa(lp1857
g117
atp1858
ssS'references'
p1859
(dp1860
g4
((lp1861
(lp1862
g924
aa(lp1863
g117
atp1864
ssS'recognitions'
p1865
(dp1866
g4
((lp1867
(lp1868
g7
ag284
aa(lp1869
g86
aa(lp1870
g117
ag117
atp1871
ssS'proposals'
p1872
(dp1873
g4
((lp1874
(lp1875
g124
ag144
ag428
aa(lp1876
g7
ag284
aa(lp1877
g86
ag198
aa(lp1878
g222
ag222
ag222
atp1879
ssS'challenges'
p1880
(dp1881
g4
((lp1882
(lp1883
g124
ag144
aa(lp1884
g924
aa(lp1885
g222
ag222
atp1886
ssS'proofs'
p1887
(dp1888
g4
((lp1889
(lp1890
g86
ag198
aa(lp1891
g7
ag284
aa(lp1892
g117
ag117
atp1893
ssS'recognition'
p1894
(dp1895
g4
((lp1896
(lp1897
g7
ag284
aa(lp1898
g86
aa(lp1899
g117
ag117
atp1900
ssS'conjectures'
p1901
(dp1902
g4
((lp1903
(lp1904
g355
aa(lp1905
g7
ag624
ag228
ag284
ag321
aa(lp1906
g117
ag222
atp1907
ssS'decision'
p1908
(dp1909
g4
((lp1910
(lp1911
g124
ag144
ag428
aa(lp1912
g7
ag284
aa(lp1913
g466
aa(lp1914
g222
ag222
ag222
atp1915
ssS'increase'
p1916
(dp1917
g4
((lp1918
(lp1919
g86
ag198
aa(lp1920
g117
atp1921
ssS'investigation'
p1922
(dp1923
g4
((lp1924
(lp1925
g86
aa(lp1926
g117
atp1927
ssS'understandings'
p1928
(dp1929
g4
((lp1930
(lp1931
g86
aa(lp1932
g117
atp1933
ssS'disclose'
p1934
(dp1935
g4
((lp1936
(lp1937
g86
ag198
aa(lp1938
g7
ag284
aa(lp1939
g117
ag117
atp1940
ssS'perception'
p1941
(dp1942
g4
((lp1943
(lp1944
g7
aa(lp1945
g86
ag198
aa(lp1946
g117
ag117
atp1947
ssS'belief'
p1948
(dp1949
g4
((lp1950
(lp1951
g7
ag284
aa(lp1952
g222
atp1953
ssS'power'
p1954
(dp1955
g4
((lp1956
(lp1957
g124
ag144
ag428
aa(lp1958
g222
atp1959
ssS'agreement'
p1960
(dp1961
g4
((lp1962
(lp1963
g124
ag144
ag428
aa(lp1964
g513
aa(lp1965
g222
ag222
atp1966
ssS'expansion'
p1967
(dp1968
g4
((lp1969
(lp1970
g86
ag198
aa(lp1971
g117
atp1972
ssS'credits'
p1973
(dp1974
g4
((lp1975
(lp1976
g513
ag580
aa(lp1977
g7
aa(lp1978
g117
ag117
ag222
atp1979
ssS'appointments'
p1980
(dp1981
g4
((lp1982
(lp1983
g124
ag144
ag428
aa(lp1984
g222
atp1985
ssS'confirmations'
p1986
(dp1987
g4
((lp1988
(lp1989
g7
ag640
ag675
ag228
ag284
ag321
aa(lp1990
g86
aa(lp1991
g408
ag408
atp1992
ssS'struggle'
p1993
(dp1994
g4
((lp1995
(lp1996
g124
ag144
ag428
aa(lp1997
g513
ag580
aa(lp1998
g222
atp1999
ssS'certifications'
p2000
(dp2001
g4
((lp2002
(lp2003
g7
aa(lp2004
g86
aa(lp2005
g117
ag117
atp2006
ssS'extension'
p2007
(dp2008
g4
((lp2009
(lp2010
g86
aa(lp2011
g117
atp2012
ssS'intimations'
p2013
(dp2014
g4
((lp2015
(lp2016
g7
aa(lp2017
g408
atp2018
ssS'conversation'
p2019
(dp2020
g4
((lp2021
(lp2022
g355
ag385
aa(lp2023
g580
ag513
aa(lp2024
g117
ag222
atp2025
ssS'cancelation'
p2026
(dp2027
g4
((lp2028
(lp2029
g86
aa(lp2030
g495
atp2031
ssS'extensions'
p2032
(dp2033
g4
((lp2034
(lp2035
g86
aa(lp2036
g117
atp2037
ssS'invitation'
p2038
(dp2039
g4
((lp2040
(lp2041
g124
ag144
ag428
aa(lp2042
g222
atp2043
ssS'efforts'
p2044
(dp2045
g4
((lp2046
(lp2047
g124
ag144
ag428
aa(lp2048
g222
atp2049
ssS'statements'
p2050
(dp2051
g4
((lp2052
(lp2053
g7
ag228
aa(lp2054
g408
atp2055
ssS'presumptions'
p2056
(dp2057
g4
((lp2058
(lp2059
g7
aa(lp2060
g222
atp2061
ssS'remarks'
p2062
(dp2063
g4
((lp2064
(lp2065
g7
ag228
ag284
ag321
aa(lp2066
g1204
aa(lp2067
g408
ag117
atp2068
ssS'accomplishments'
p2069
(dp2070
g4
((lp2071
(lp2072
g86
ag198
aa(lp2073
g117
atp2074
ssS'promise'
p2075
(dp2076
g4
((lp2077
(lp2078
g124
ag144
aa(lp2079
g7
ag284
aa(lp2080
g198
ag86
aa(lp2081
g222
ag222
ag222
atp2082
ssS'publication'
p2083
(dp2084
g4
((lp2085
(lp2086
g86
aa(lp2087
g408
atp2088
ssS'support'
p2089
(dp2090
g4
((lp2091
(lp2092
g580
aa(lp2093
g86
aa(lp2094
g222
ag117
atp2095
ssS'question'
p2096
(dp2097
g4
((lp2098
(lp2099
g640
aa(lp2100
g222
atp2101
ssS'intention'
p2102
(dp2103
g4
((lp2104
(lp2105
g124
ag144
ag428
aa(lp2106
g86
ag198
aa(lp2107
g222
ag222
atp2108
ssS'assumption'
p2109
(dp2110
g4
((lp2111
(lp2112
g7
ag284
aa(lp2113
g222
atp2114
ssS'statement'
p2115
(dp2116
g4
((lp2117
(lp2118
g7
ag228
aa(lp2119
g408
atp2120
ssS'option'
p2121
(dp2122
g4
((lp2123
(lp2124
g124
ag144
ag428
aa(lp2125
g198
ag86
aa(lp2126
g222
ag222
atp2127
ssS'offer'
p2128
(dp2129
g4
((lp2130
(lp2131
g124
ag144
ag428
aa(lp2132
g1066
ag1093
aa(lp2133
g222
ag222
atp2134
ssS'attempted'
p2135
(dp2136
g4
((lp2137
(lp2138
g124
ag144
ag428
aa(lp2139
g1066
ag1093
aa(lp2140
g86
aa(lp2141
g222
ag222
ag222
atp2142
ssS'failure'
p2143
(dp2144
g4
((lp2145
(lp2146
g124
ag144
ag428
aa(lp2147
g198
aa(lp2148
g495
ag495
atp2149
ssS'goals'
p2150
(dp2151
g4
((lp2152
(lp2153
g124
ag144
ag428
aa(lp2154
g86
ag198
aa(lp2155
g222
ag222
atp2156
ssS'hopes'
p2157
(dp2158
g4
((lp2159
(lp2160
g124
ag144
ag428
aa(lp2161
g7
ag284
aa(lp2162
g222
ag222
atp2163
ssS'rejection'
p2164
(dp2165
g4
((lp2166
(lp2167
g86
aa(lp2168
g117
atp2169
ssS'wish'
p2170
(dp2171
g4
((lp2172
(lp2173
g7
ag284
aa(lp2174
g124
ag144
aa(lp2175
g580
aa(lp2176
g778
ag821
aa(lp2177
g845
ag888
aa(lp2178
g222
ag222
ag222
ag495
ag117
atp2179
ssS'declarations'
p2180
(dp2181
g4
((lp2182
(lp2183
g7
ag228
ag284
ag321
aa(lp2184
g355
ag385
aa(lp2185
g408
ag117
atp2186
ssS'bids'
p2187
(dp2188
g4
((lp2189
(lp2190
g580
ag513
aa(lp2191
g124
ag144
ag428
aa(lp2192
g222
ag222
atp2193
ssS'feeling'
p2194
(dp2195
g4
((lp2196
(lp2197
g7
ag284
aa(lp2198
g86
ag198
aa(lp2199
g408
ag408
atp2200
ssS'powers'
p2201
(dp2202
g4
((lp2203
(lp2204
g124
ag144
ag428
aa(lp2205
g222
atp2206
ssS'beliefs'
p2207
(dp2208
g4
((lp2209
(lp2210
g7
ag284
aa(lp2211
g222
atp2212
ssS'acquisition'
p2213
(dp2214
g4
((lp2215
(lp2216
g86
aa(lp2217
g124
ag144
ag428
aa(lp2218
g117
ag222
atp2219
ssS'promises'
p2220
(dp2221
g4
((lp2222
(lp2223
g124
ag144
aa(lp2224
g7
ag284
aa(lp2225
g198
ag86
aa(lp2226
g222
ag222
ag222
atp2227
ssS'suspicions'
p2228
(dp2229
g4
((lp2230
(lp2231
g7
ag284
aa(lp2232
g198
ag86
aa(lp2233
g222
ag222
atp2234
ssS'need'
p2235
(dp2236
g4
((lp2237
(lp2238
g124
ag144
ag428
aa(lp2239
g1066
ag1093
aa(lp2240
g222
ag222
atp2241
ssS'moves'
p2242
(dp2243
g4
((lp2244
(lp2245
g1674
ag725
aa(lp2246
g124
ag144
ag428
aa(lp2247
g117
ag222
atp2248
ssS'demonstration'
p2249
(dp2250
g4
((lp2251
(lp2252
g86
aa(lp2253
g1004
aa(lp2254
g117
ag117
atp2255
ssS'orders'
p2256
(dp2257
g4
((lp2258
(lp2259
g124
ag144
ag428
aa(lp2260
g1066
ag1093
aa(lp2261
g198
aa(lp2262
g222
ag222
ag222
atp2263
ssS'negotiations'
p2264
(dp2265
g4
((lp2266
(lp2267
g355
ag385
aa(lp2268
g198
ag86
aa(lp2269
g580
ag513
aa(lp2270
g124
aa(lp2271
g222
ag222
ag222
ag222
atp2272
ssS'fears'
p2273
(dp2274
g4
((lp2275
(lp2276
g7
ag284
aa(lp2277
g124
ag144
aa(lp2278
g86
ag198
aa(lp2279
g222
ag222
ag117
atp2280
ssS'excuses'
p2281
(dp2282
g4
((lp2283
(lp2284
g513
ag580
aa(lp2285
g117
atp2286
ssS'concerns'
p2287
(dp2288
g4
((lp2289
(lp2290
g355
ag385
aa(lp2291
g117
atp2292
ssS'impositions'
p2293
(dp2294
g4
((lp2295
(lp2296
g86
aa(lp2297
g222
atp2298
ssS'subject'
p2299
(dp2300
g4
((lp2301
(lp2302
g924
aa(lp2303
g124
ag144
ag428
aa(lp2304
g222
ag222
atp2305
ssS'investigations'
p2306
(dp2307
g4
((lp2308
(lp2309
g86
aa(lp2310
g117
atp2311
ssS'intentions'
p2312
(dp2313
g4
((lp2314
(lp2315
g124
ag144
ag428
aa(lp2316
g86
ag198
aa(lp2317
g222
ag222
atp2318
ssS'chance'
p2319
(dp2320
g4
((lp2321
(lp2322
g7
aa(lp2323
g124
ag144
aa(lp2324
g198
aa(lp2325
g86
aa(lp2326
g222
atp2327
ssS'intent'
p2328
(dp2329
g4
((lp2330
(lp2331
g124
ag144
ag428
aa(lp2332
g222
atp2333
ssS'plan'
p2334
(dp2335
g4
((lp2336
(lp2337
g124
ag144
ag428
aa(lp2338
g1066
ag1093
aa(lp2339
g222
ag222
atp2340
ssS'intimation'
p2341
(dp2342
g4
((lp2343
(lp2344
g7
aa(lp2345
g408
atp2346
ssS'organization'
p2347
(dp2348
g4
((lp2349
(lp2350
g86
aa(lp2351
g124
aa(lp2352
g222
ag222
atp2353
ssS'complaints'
p2354
(dp2355
g4
((lp2356
(lp2357
g7
aa(lp2358
g355
aa(lp2359
g408
ag117
atp2360
ssS'achievement'
p2361
(dp2362
g4
((lp2363
(lp2364
g86
ag198
aa(lp2365
g117
atp2366
ssS'preferences'
p2367
(dp2368
g4
((lp2369
(lp2370
g513
aa(lp2371
g580
aa(lp2372
g222
ag222
atp2373
ssS'calls'
p2374
(dp2375
g4
((lp2376
(lp2377
g513
ag580
aa(lp2378
g124
ag144
ag428
aa(lp2379
g222
ag222
atp2380
ssS'implications'
p2381
(dp2382
g4
((lp2383
(lp2384
g7
ag228
ag284
ag321
aa(lp2385
g222
atp2386
ssS'rejections'
p2387
(dp2388
g4
((lp2389
(lp2390
g86
aa(lp2391
g117
atp2392
ss.