(dp1
S'certification'
p2
(dp3
S'forward'
p4
((lp5
(lp6
ccopy_reg
_reconstructor
p7
(cutilities.FSA
FSA
p8
c__builtin__
object
p9
NtRp10
(dp11
S'fsaname'
p12
S'thatClause_that'
p13
sS'finalStates'
p14
(lp15
I6
asS'_isTrimmed'
p16
I1
sS'alphabet'
p17
NsS'label'
p18
S'[_\'_(_\'_,_ _{_\'_t_e_x_t_\'_:_ _[_\'_t_h_a_t_\'_,_ _\'_i_f_\'_,_ _\'_w_h_e_t_h_e_r_\'_]_,_ _\'_n_o_d_e_T_y_p_e_\'_:_ _\'_T_o_k_e_n_\'_,_ _\'_p_o_s_\'_:_ _\'_I_N_\'_}_,_ _\'_|_\'_,_ _\'_(_\'_,_ _{_\'_n_o_d_e_T_y_p_e_\'_:_ _\'_N_o_u_n_C_h_u_n_k_\'_}_,_ _\'_|_\'_,_ _{_\'_n_o_d_e_T_y_p_e_\'_:_ _\'_T_o_k_e_n_\'_,_ _\'_p_o_s_\'_:_ _\'_I_N_\'_}_,_ _\'_|_\'_,_ _{_\'_n_o_d_e_T_y_p_e_\'_:_ _\'_T_o_k_e_n_\'_,_ _\'_p_o_s_\'_:_ _[_\'_J_J_\'_,_ _\'_J_J_R_\'_,_ _\'_J_J_S_\'_,_ _\'_D_T_\'_,_ _\'_P_D_T_\'_,_ _\'_P_O_S_\'_,_ _\'_C_D_\'_,_ _\'_S_Y_M_\'_]_}_,_ _\'_|_\'_,_ _{_\'_t_e_x_t_\'_:_ _[_\'_"_\'_,_ _\'_`_`_\'_,_ _"_\'_\'_"_]_}_,_ _\'_)_\'_,_ _\'_+_\'_,_ _{_\'_t_e_x_t_\'_:_ _[_\'_t_h_a_t_\'_,_ _\'_i_f_\'_,_ _\'_w_h_e_t_h_e_r_\'_]_,_ _\'_n_o_d_e_T_y_p_e_\'_:_ _\'_T_o_k_e_n_\'_,_ _\'_p_o_s_\'_:_ _\'_I_N_\'_}_,_ _\'_|_\'_,_ _{_\'_t_e_x_t_\'_:_ _(_\'_^_\'_,_ _[_\'_,_\'_]_)_}_,_ _\'_?_\'_,_ _{_\'_t_e_x_t_\'_:_ _(_\'_^_\'_,_ _[_\'_;_\'_,_ _\'_._\'_,_ _\'_!_\'_,_ _\'_?_\'_,_ _\'_._._._\'_,_ _\'_"_\'_,_ _\'_`_`_\'_]_)_,_ _\'_p_o_s_\'_:_ _(_\'_^_\'_,_ _[_\'_W_P_\'_,_ _\'_W_D_T_\'_,_ _\'_W_R_B_\'_,_ _\'_"_\'_,_ _"_\'_\'_"_,_ _\'_`_`_\'_]_)_}_,_ _\'_?_\'_,_ _{_\'_t_e_x_t_\'_:_ _(_\'_^_\'_,_ _[_\'_;_\'_,_ _\'_._\'_,_ _\'_!_\'_,_ _\'_?_\'_,_ _\'_._._._\'_,_ _\'_"_\'_,_ _\'_`_`_\'_]_)_,_ _\'_p_o_s_\'_:_ _(_\'_^_\'_,_ _[_\'_W_P_\'_,_ _\'_W_D_T_\'_,_ _\'_W_R_B_\'_,_ _\'_"_\'_,_ _"_\'_\'_"_,_ _\'_`_`_\'_]_)_}_,_ _\'_?_\'_,_ _{_\'_t_e_x_t_\'_:_ _[_\'_t_h_a_t_\'_,_ _\'_i_f_\'_,_ _\'_w_h_e_t_h_e_r_\'_]_,_ _\'_n_o_d_e_T_y_p_e_\'_:_ _\'_T_o_k_e_n_\'_,_ _\'_p_o_s_\'_:_ _\'_I_N_\'_}_,_ _\'_|_\'_,_ _{_\'_t_e_x_t_\'_:_ _\'_,_\'_}_,_ _{_\'_t_e_x_t_\'_:_ _[_\'_t_h_a_t_\'_,_ _\'_i_f_\'_,_ _\'_w_h_e_t_h_e_r_\'_]_,_ _\'_n_o_d_e_T_y_p_e_\'_:_ _\'_T_o_k_e_n_\'_,_ _\'_p_o_s_\'_:_ _\'_I_N_\'_}_,_ _\'_)_\'_,_ _{_\'_t_e_x_t_\'_:_ _(_\'_^_\'_,_ _[_\'_;_\'_,_ _\'_._\'_,_ _\'_!_\'_,_ _\'_?_\'_,_ _\'_._._._\'_,_ _\'_"_\'_,_ _\'_`_`_\'_]_)_,_ _\'_p_o_s_\'_:_ _(_\'_^_\'_,_ _[_\'_W_P_\'_,_ _\'_W_D_T_\'_,_ _\'_W_R_B_\'_,_ _\'_"_\'_,_ _"_\'_\'_"_,_ _\'_`_`_\'_]_)_}_,_ _\'_?_\'_,_ _\'_(_\'_,_ _\'_(_\'_,_ _{_\'_n_o_d_e_T_y_p_e_\'_:_ _\'_N_o_u_n_C_h_u_n_k_\'_}_,_ _\'_|_\'_,_ _{_\'_n_o_d_e_T_y_p_e_\'_:_ _\'_T_o_k_e_n_\'_,_ _\'_p_o_s_\'_:_ _\'_I_N_\'_}_,_ _\'_|_\'_,_ _{_\'_n_o_d_e_T_y_p_e_\'_:_ _\'_T_o_k_e_n_\'_,_ _\'_p_o_s_\'_:_ _[_\'_J_J_\'_,_ _\'_J_J_R_\'_,_ _\'_J_J_S_\'_,_ _\'_D_T_\'_,_ _\'_P_D_T_\'_,_ _\'_P_O_S_\'_,_ _\'_C_D_\'_,_ _\'_S_Y_M_\'_]_}_,_ _\'_)_\'_,_ _\'_+_\'_,_ _\'_(_\'_,_ _{_\'_t_e_n_s_e_\'_:_ _[_\'_P_A_S_T_\'_,_ _\'_P_R_E_S_E_N_T_\'_,_ _\'_F_U_T_U_R_E_\'_]_,_ _\'_n_o_d_e_T_y_p_e_\'_:_ _[_\'_C_h_u_n_k_\'_,_ _\'_N_o_u_n_C_h_u_n_k_\'_,_ _\'_V_e_r_b_C_h_u_n_k_\'_,_ _\'_A_d_j_e_c_t_i_v_e_T_o_k_e_n_\'_]_}_,_ _\'_|_\'_,_ _{_\'_n_o_d_e_T_y_p_e_\'_:_ _[_\'_C_h_u_n_k_\'_,_ _\'_N_o_u_n_C_h_u_n_k_\'_,_ _\'_V_e_r_b_C_h_u_n_k_\'_,_ _\'_A_d_j_e_c_t_i_v_e_T_o_k_e_n_\'_]_,_ _\'_m_o_d_a_l_i_t_y_\'_:_ _[_\'_m_a_y_\'_,_ _\'_c_a_n_\'_,_ _\'_m_u_s_t_\'_,_ _\'_m_i_g_h_t_\'_,_ _\'_c_o_u_l_d_\'_,_ _\'_s_h_o_u_l_d_\'_,_ _\'_w_o_u_l_d_\'_,_ _\'_o_u_g_h_t_\'_,_ _\'_h_a_v_e_ _t_o_\'_]_}_,_ _\'_)_\'_,_ _\'_|_\'_,_ _{_\'_t_e_x_t_\'_:_ _(_\'_^_\'_,_ _[_\'_;_\'_,_ _\'_._\'_,_ _\'_!_\'_,_ _\'_?_\'_,_ _\'_._._._\'_,_ _\'_"_\'_,_ _\'_`_`_\'_]_)_,_ _\'_p_o_s_\'_:_ _(_\'_^_\'_,_ _[_\'_W_P_\'_,_ _\'_W_D_T_\'_,_ _\'_W_R_B_\'_,_ _\'_"_\'_,_ _"_\'_\'_"_,_ _\'_`_`_\'_]_)_}_,_ _\'_?_\'_,_ _{_\'_t_e_x_t_\'_:_ _(_\'_^_\'_,_ _[_\'_;_\'_,_ _\'_._\'_,_ _\'_!_\'_,_ _\'_?_\'_,_ _\'_._._._\'_,_ _\'_"_\'_,_ _\'_`_`_\'_]_)_,_ _\'_p_o_s_\'_:_ _(_\'_^_\'_,_ _[_\'_W_P_\'_,_ _\'_W_D_T_\'_,_ _\'_W_R_B_\'_,_ _\'_"_\'_,_ _"_\'_\'_"_,_ _\'_`_`_\'_]_)_}_,_ _\'_?_\'_,_ _{_\'_t_e_x_t_\'_:_ _(_\'_^_\'_,_ _[_\'_;_\'_,_ _\'_._\'_,_ _\'_!_\'_,_ _\'_?_\'_,_ _\'_._._._\'_,_ _\'_"_\'_,_ _\'_`_`_\'_]_)_,_ _\'_p_o_s_\'_:_ _(_\'_^_\'_,_ _[_\'_W_P_\'_,_ _\'_W_D_T_\'_,_ _\'_W_R_B_\'_,_ _\'_"_\'_,_ _"_\'_\'_"_,_ _\'_`_`_\'_]_)_}_,_ _\'_?_\'_,_ _{_\'_t_e_x_t_\'_:_ _(_\'_^_\'_,_ _[_\'_;_\'_,_ _\'_._\'_,_ _\'_!_\'_,_ _\'_?_\'_,_ _\'_._._._\'_,_ _\'_"_\'_,_ _\'_`_`_\'_]_)_,_ _\'_p_o_s_\'_:_ _(_\'_^_\'_,_ _[_\'_W_P_\'_,_ _\'_W_D_T_\'_,_ _\'_W_R_B_\'_,_ _\'_"_\'_,_ _"_\'_\'_"_,_ _\'_`_`_\'_]_)_}_,_ _\'_?_\'_,_ _{_\'_t_e_x_t_\'_:_ _(_\'_^_\'_,_ _[_\'_;_\'_,_ _\'_._\'_,_ _\'_!_\'_,_ _\'_?_\'_,_ _\'_._._._\'_,_ _\'_"_\'_,_ _\'_`_`_\'_]_)_,_ _\'_p_o_s_\'_:_ _(_\'_^_\'_,_ _[_\'_W_P_\'_,_ _\'_W_D_T_\'_,_ _\'_W_R_B_\'_,_ _\'_"_\'_,_ _"_\'_\'_"_,_ _\'_`_`_\'_]_)_}_,_ _\'_?_\'_,_ _\'_(_\'_,_ _{_\'_t_e_n_s_e_\'_:_ _[_\'_P_A_S_T_\'_,_ _\'_P_R_E_S_E_N_T_\'_,_ _\'_F_U_T_U_R_E_\'_]_,_ _\'_n_o_d_e_T_y_p_e_\'_:_ _[_\'_C_h_u_n_k_\'_,_ _\'_N_o_u_n_C_h_u_n_k_\'_,_ _\'_V_e_r_b_C_h_u_n_k_\'_,_ _\'_A_d_j_e_c_t_i_v_e_T_o_k_e_n_\'_]_}_,_ _\'_|_\'_,_ _{_\'_n_o_d_e_T_y_p_e_\'_:_ _[_\'_C_h_u_n_k_\'_,_ _\'_N_o_u_n_C_h_u_n_k_\'_,_ _\'_V_e_r_b_C_h_u_n_k_\'_,_ _\'_A_d_j_e_c_t_i_v_e_T_o_k_e_n_\'_]_,_ _\'_m_o_d_a_l_i_t_y_\'_:_ _[_\'_m_a_y_\'_,_ _\'_c_a_n_\'_,_ _\'_m_u_s_t_\'_,_ _\'_m_i_g_h_t_\'_,_ _\'_c_o_u_l_d_\'_,_ _\'_s_h_o_u_l_d_\'_,_ _\'_w_o_u_l_d_\'_,_ _\'_o_u_g_h_t_\'_,_ _\'_h_a_v_e_ _t_o_\'_]_}_,_ _\'_)_\'_,_ _\'_|_\'_,_ _{_\'_t_e_x_t_\'_:_ _[_\'_i_s_\'_,_ _\'_w_a_s_\'_,_ _\'_w_e_r_e_\'_,_ _\'_a_m_\'_,_ _\'_b_e_\'_,_ _"_\'_s_"_,_ _\'_a_r_e_\'_,_ _"_\'_r_e_"_,_ _"_\'_m_"_,_ _\'_b_e_e_n_\'_,_ _\'_b_e_i_n_g_\'_]_,_ _\'_n_o_d_e_T_y_p_e_\'_:_ _\'_V_e_r_b_C_h_u_n_k_\'_}_,_ _{_\'_n_o_d_e_T_y_p_e_\'_:_ _\'_T_o_k_e_n_\'_,_ _\'_p_o_s_\'_:_ _\'_I_N_\'_}_,_ _\'_?_\'_,_ _{_\'_n_o_d_e_T_y_p_e_\'_:_ _\'_N_o_u_n_C_h_u_n_k_\'_,_ _\'_e_v_e_n_t_S_t_a_t_u_s_\'_:_ _\'_1_\'_}_,_ _\'_)_\'_]'
p19
sS'initialState'
p20
I0
sS'states'
p21
(lp22
I14
aI0
aI2
aI1
aI10
aI12
aI9
aI8
aI6
aI7
aI3
aI4
aI13
aI5
aI15
aI11
asS'_arcMetadata'
p23
(dp24
sS'_isSorted'
p25
I1
sS'transitions'
p26
(lp27
(I0
I1
S'{\'text\': (\'^\', [\';\', \'.\', \'!\', \'?\', \'...\', \'"\', \'``\']), \'pos\': (\'^\', [\'WP\', \'WDT\', \'WRB\', \'"\', "\'\'", \'``\'])}'
p28
tp29
a(I0
I2
S"{'nodeType': 'NounChunk'}"
tp30
a(I0
I2
S"{'nodeType': 'Token', 'pos': 'IN'}"
tp31
a(I0
I2
S"{'nodeType': 'Token', 'pos': ['JJ', 'JJR', 'JJS', 'DT', 'PDT', 'POS', 'CD', 'SYM']}"
tp32
a(I0
I2
S'{\'text\': [\'"\', \'``\', "\'\'"]}'
tp33
a(I0
I3
S"{'text': ('^', [','])}"
tp34
a(I0
I4
S"{'text': ','}"
tp35
a(I0
I5
S"{'text': ['that', 'if', 'whether'], 'nodeType': 'Token', 'pos': 'IN'}"
tp36
a(I1
I5
S"{'text': ['that', 'if', 'whether'], 'nodeType': 'Token', 'pos': 'IN'}"
p37
tp38
a(I1
I4
S'{\'text\': (\'^\', [\';\', \'.\', \'!\', \'?\', \'...\', \'"\', \'``\']), \'pos\': (\'^\', [\'WP\', \'WDT\', \'WRB\', \'"\', "\'\'", \'``\'])}'
tp39
a(I2
I2
S"{'nodeType': 'NounChunk'}"
tp40
a(I2
I2
S"{'nodeType': 'Token', 'pos': 'IN'}"
tp41
a(I2
I2
S"{'nodeType': 'Token', 'pos': ['JJ', 'JJR', 'JJS', 'DT', 'PDT', 'POS', 'CD', 'SYM']}"
tp42
a(I2
I2
S'{\'text\': [\'"\', \'``\', "\'\'"]}'
tp43
a(I2
I5
S"{'text': ['that', 'if', 'whether'], 'nodeType': 'Token', 'pos': 'IN'}"
tp44
a(I3
I5
g37
tp45
a(I3
I1
g28
tp46
a(I4
I5
S"{'text': ['that', 'if', 'whether'], 'nodeType': 'Token', 'pos': 'IN'}"
tp47
a(I5
I6
S"{'nodeType': ['Chunk', 'NounChunk', 'VerbChunk', 'AdjectiveToken'], 'modality': ['may', 'can', 'must', 'might', 'could', 'should', 'would', 'ought', 'have to']}"
tp48
a(I5
I6
S"{'tense': ['PAST', 'PRESENT', 'FUTURE'], 'nodeType': ['Chunk', 'NounChunk', 'VerbChunk', 'AdjectiveToken']}"
tp49
a(I5
I7
S'{\'text\': (\'^\', [\';\', \'.\', \'!\', \'?\', \'...\', \'"\', \'``\']), \'pos\': (\'^\', [\'WP\', \'WDT\', \'WRB\', \'"\', "\'\'", \'``\'])}'
tp50
a(I5
I8
S"{'nodeType': 'NounChunk'}"
tp51
a(I5
I8
S"{'nodeType': 'Token', 'pos': 'IN'}"
tp52
a(I5
I8
S"{'nodeType': 'Token', 'pos': ['JJ', 'JJR', 'JJS', 'DT', 'PDT', 'POS', 'CD', 'SYM']}"
tp53
a(I5
I9
S'{\'text\': [\'is\', \'was\', \'were\', \'am\', \'be\', "\'s", \'are\', "\'re", "\'m", \'been\', \'being\'], \'nodeType\': \'VerbChunk\'}'
p54
tp55
a(I7
I6
S"{'nodeType': ['Chunk', 'NounChunk', 'VerbChunk', 'AdjectiveToken'], 'modality': ['may', 'can', 'must', 'might', 'could', 'should', 'would', 'ought', 'have to']}"
tp56
a(I7
I6
S"{'tense': ['PAST', 'PRESENT', 'FUTURE'], 'nodeType': ['Chunk', 'NounChunk', 'VerbChunk', 'AdjectiveToken']}"
tp57
a(I7
I10
S'{\'text\': (\'^\', [\';\', \'.\', \'!\', \'?\', \'...\', \'"\', \'``\']), \'pos\': (\'^\', [\'WP\', \'WDT\', \'WRB\', \'"\', "\'\'", \'``\'])}'
tp58
a(I7
I8
S"{'nodeType': 'NounChunk'}"
tp59
a(I7
I8
S"{'nodeType': 'Token', 'pos': 'IN'}"
tp60
a(I7
I8
S"{'nodeType': 'Token', 'pos': ['JJ', 'JJR', 'JJS', 'DT', 'PDT', 'POS', 'CD', 'SYM']}"
tp61
a(I7
I9
g54
tp62
a(I8
I6
S"{'nodeType': ['Chunk', 'NounChunk', 'VerbChunk', 'AdjectiveToken'], 'modality': ['may', 'can', 'must', 'might', 'could', 'should', 'would', 'ought', 'have to']}"
tp63
a(I8
I6
S"{'tense': ['PAST', 'PRESENT', 'FUTURE'], 'nodeType': ['Chunk', 'NounChunk', 'VerbChunk', 'AdjectiveToken']}"
tp64
a(I8
I8
S"{'nodeType': 'NounChunk'}"
tp65
a(I8
I8
S"{'nodeType': 'Token', 'pos': 'IN'}"
tp66
a(I8
I8
S"{'nodeType': 'Token', 'pos': ['JJ', 'JJR', 'JJS', 'DT', 'PDT', 'POS', 'CD', 'SYM']}"
tp67
a(I9
I11
S"{'nodeType': 'Token', 'pos': 'IN'}"
tp68
a(I9
I6
S"{'nodeType': 'NounChunk', 'eventStatus': '1'}"
p69
tp70
a(I10
I6
S"{'nodeType': ['Chunk', 'NounChunk', 'VerbChunk', 'AdjectiveToken'], 'modality': ['may', 'can', 'must', 'might', 'could', 'should', 'would', 'ought', 'have to']}"
tp71
a(I10
I6
S"{'tense': ['PAST', 'PRESENT', 'FUTURE'], 'nodeType': ['Chunk', 'NounChunk', 'VerbChunk', 'AdjectiveToken']}"
tp72
a(I10
I12
S'{\'text\': (\'^\', [\';\', \'.\', \'!\', \'?\', \'...\', \'"\', \'``\']), \'pos\': (\'^\', [\'WP\', \'WDT\', \'WRB\', \'"\', "\'\'", \'``\'])}'
tp73
a(I11
I6
g69
tp74
a(I12
I6
S"{'nodeType': ['Chunk', 'NounChunk', 'VerbChunk', 'AdjectiveToken'], 'modality': ['may', 'can', 'must', 'might', 'could', 'should', 'would', 'ought', 'have to']}"
tp75
a(I12
I6
S"{'tense': ['PAST', 'PRESENT', 'FUTURE'], 'nodeType': ['Chunk', 'NounChunk', 'VerbChunk', 'AdjectiveToken']}"
tp76
a(I12
I13
S'{\'text\': (\'^\', [\';\', \'.\', \'!\', \'?\', \'...\', \'"\', \'``\']), \'pos\': (\'^\', [\'WP\', \'WDT\', \'WRB\', \'"\', "\'\'", \'``\'])}'
tp77
a(I13
I6
S"{'nodeType': ['Chunk', 'NounChunk', 'VerbChunk', 'AdjectiveToken'], 'modality': ['may', 'can', 'must', 'might', 'could', 'should', 'would', 'ought', 'have to']}"
tp78
a(I13
I6
S"{'tense': ['PAST', 'PRESENT', 'FUTURE'], 'nodeType': ['Chunk', 'NounChunk', 'VerbChunk', 'AdjectiveToken']}"
tp79
a(I13
I14
S'{\'text\': (\'^\', [\';\', \'.\', \'!\', \'?\', \'...\', \'"\', \'``\']), \'pos\': (\'^\', [\'WP\', \'WDT\', \'WRB\', \'"\', "\'\'", \'``\'])}'
tp80
a(I14
I6
S"{'nodeType': ['Chunk', 'NounChunk', 'VerbChunk', 'AdjectiveToken'], 'modality': ['may', 'can', 'must', 'might', 'could', 'should', 'would', 'ought', 'have to']}"
tp81
a(I14
I6
S"{'tense': ['PAST', 'PRESENT', 'FUTURE'], 'nodeType': ['Chunk', 'NounChunk', 'VerbChunk', 'AdjectiveToken']}"
tp82
a(I14
I15
S'{\'text\': (\'^\', [\';\', \'.\', \'!\', \'?\', \'...\', \'"\', \'``\']), \'pos\': (\'^\', [\'WP\', \'WDT\', \'WRB\', \'"\', "\'\'", \'``\'])}'
tp83
a(I15
I6
S"{'nodeType': ['Chunk', 'NounChunk', 'VerbChunk', 'AdjectiveToken'], 'modality': ['may', 'can', 'must', 'might', 'could', 'should', 'would', 'ought', 'have to']}"
tp84
a(I15
I6
S"{'tense': ['PAST', 'PRESENT', 'FUTURE'], 'nodeType': ['Chunk', 'NounChunk', 'VerbChunk', 'AdjectiveToken']}"
tp85
asS'_isDeterminized'
p86
I1
sS'_isMinimized'
p87
I1
sbaa(lp88
g7
(g8
g9
NtRp89
(dp90
g12
S'of_NPev'
p91
sg14
(lp92
I4
asg16
I1
sg17
Nsg18
S"[_{_'_n_o_d_e_T_y_p_e_'_:_ _'_T_o_k_e_n_'_,_ _'_p_o_s_'_:_ _'_P_D_T_'_}_,_ _'_?_'_,_ _{_'_n_o_d_e_T_y_p_e_'_:_ _'_N_o_u_n_C_h_u_n_k_'_}_,_ _'_?_'_,_ _{_'_t_e_x_t_'_:_ _'_o_f_'_}_,_ _{_'_n_o_d_e_T_y_p_e_'_:_ _'_T_o_k_e_n_'_,_ _'_p_o_s_'_:_ _'_P_D_T_'_}_,_ _'_?_'_,_ _'_(_'_,_ _{_'_n_o_d_e_T_y_p_e_'_:_ _'_N_o_u_n_C_h_u_n_k_'_,_ _'_e_v_e_n_t_S_t_a_t_u_s_'_:_ _'_1_'_}_,_ _'_|_'_,_ _{_'_n_o_d_e_T_y_p_e_'_:_ _'_T_o_k_e_n_'_,_ _'_p_o_s_'_:_ _'_D_T_'_}_,_ _'_(_'_,_ _{_'_n_o_d_e_T_y_p_e_'_:_ _'_T_o_k_e_n_'_,_ _'_p_o_s_'_:_ _[_'_J_J_'_,_ _'_J_J_R_'_,_ _'_J_J_S_'_]_}_,_ _'_|_'_,_ _{_'_n_o_d_e_T_y_p_e_'_:_ _'_V_e_r_b_C_h_u_n_k_'_,_ _'_p_o_s_'_:_ _[_'_V_G_B_'_,_ _'_V_B_N_'_]_}_,_ _'_|_'_,_ _{_'_p_o_s_'_:_ _'_S_Y_M_'_}_,_ _'_)_'_,_ _'_*_'_,_ _{_'_n_o_d_e_T_y_p_e_'_:_ _'_T_o_k_e_n_'_,_ _'_p_o_s_'_:_ _'_C_D_'_}_,_ _'_*_'_,_ _{_'_n_o_d_e_T_y_p_e_'_:_ _'_N_o_u_n_C_h_u_n_k_'_}_,_ _'_)_'_]"
p93
sg20
I0
sg21
(lp94
I7
aI0
aI1
aI2
aI3
aI4
aI5
aI6
asg23
(dp95
sg25
I1
sg26
(lp96
(I0
I1
S"{'nodeType': 'NounChunk'}"
p97
tp98
a(I0
I2
S"{'nodeType': 'Token', 'pos': 'PDT'}"
tp99
a(I0
I3
S"{'text': 'of'}"
p100
tp101
a(I1
I3
g100
tp102
a(I2
I1
g97
tp103
a(I2
I3
g100
tp104
a(I3
I4
S"{'nodeType': 'NounChunk', 'eventStatus': '1'}"
p105
tp106
a(I3
I5
S"{'nodeType': 'Token', 'pos': 'PDT'}"
tp107
a(I3
I6
S"{'nodeType': 'Token', 'pos': 'DT'}"
p108
tp109
a(I5
I4
g105
tp110
a(I5
I6
g108
tp111
a(I6
I4
S"{'nodeType': 'NounChunk'}"
tp112
a(I6
I6
S"{'nodeType': 'Token', 'pos': ['JJ', 'JJR', 'JJS']}"
tp113
a(I6
I6
S"{'nodeType': 'VerbChunk', 'pos': ['VGB', 'VBN']}"
tp114
a(I6
I6
S"{'pos': 'SYM'}"
tp115
a(I6
I7
S"{'nodeType': 'Token', 'pos': 'CD'}"
tp116
a(I7
I4
S"{'nodeType': 'NounChunk'}"
tp117
a(I7
I7
S"{'nodeType': 'Token', 'pos': 'CD'}"
tp118
asg86
I1
sg87
I1
sbaa(lp119
S'FACTIVE'
p120
ag120
atp121
ssS'chances'
p122
(dp123
g4
((lp124
(lp125
g10
aa(lp126
g7
(g8
g9
NtRp127
(dp128
g12
S'toClause1'
p129
sg14
(lp130
I1
asg16
I1
sg17
Nsg18
S"[_{_'_p_o_s_'_:_ _[_'_R_B_'_,_ _'_R_B_R_'_,_ _'_R_B_S_'_,_ _'_R_P_'_,_ _'_J_J_R_'_]_}_,_ _'_?_'_,_ _'_(_'_,_ _{_'_t_e_n_s_e_'_:_ _'_I_N_F_I_N_I_T_I_V_E_'_,_ _'_n_o_d_e_T_y_p_e_'_:_ _'_V_e_r_b_C_h_u_n_k_'_}_,_ _'_|_'_,_ _{_'_t_e_x_t_'_:_ _'_t_o_'_,_ _'_p_o_s_'_:_ _'_T_O_'_}_,_ _{_'_p_o_s_'_:_ _'_U_H_'_}_,_ _'_?_'_,_ _'_(_'_,_ _{_'_n_o_d_e_T_y_p_e_'_:_ _'_V_e_r_b_C_h_u_n_k_'_,_ _'_e_v_e_n_t_S_t_a_t_u_s_'_:_ _'_1_'_}_,_ _'_|_'_,_ _{_'_n_o_d_e_T_y_p_e_'_:_ _'_N_o_u_n_C_h_u_n_k_'_,_ _'_e_v_e_n_t_S_t_a_t_u_s_'_:_ _'_1_'_}_,_ _'_)_'_,_ _'_)_'_]"
p131
sg20
I0
sg21
(lp132
I2
aI1
aI0
aI4
aI3
asg23
(dp133
sg25
I1
sg26
(lp134
(I0
I1
S"{'tense': 'INFINITIVE', 'nodeType': 'VerbChunk'}"
p135
tp136
a(I0
I2
S"{'pos': ['RB', 'RBR', 'RBS', 'RP', 'JJR']}"
tp137
a(I0
I3
S"{'text': 'to', 'pos': 'TO'}"
p138
tp139
a(I2
I1
g135
tp140
a(I2
I3
g138
tp141
a(I3
I1
S"{'nodeType': 'NounChunk', 'eventStatus': '1'}"
tp142
a(I3
I1
S"{'nodeType': 'VerbChunk', 'eventStatus': '1'}"
tp143
a(I3
I4
S"{'pos': 'UH'}"
tp144
a(I4
I1
S"{'nodeType': 'NounChunk', 'eventStatus': '1'}"
tp145
a(I4
I1
S"{'nodeType': 'VerbChunk', 'eventStatus': '1'}"
tp146
asg86
I1
sg87
I1
sbag7
(g8
g9
NtRp147
(dp148
g12
S'toClause3'
p149
sg14
(lp150
I5
asg16
I1
sg17
Nsg18
S"[_'_(_'_,_ _{_'_n_o_d_e_T_y_p_e_'_:_ _'_T_o_k_e_n_'_,_ _'_p_o_s_'_:_ _'_P_D_T_'_}_,_ _'_|_'_,_ _{_'_n_o_d_e_T_y_p_e_'_:_ _'_T_o_k_e_n_'_,_ _'_p_o_s_'_:_ _'_D_T_'_}_,_ _{_'_n_o_d_e_T_y_p_e_'_:_ _'_T_o_k_e_n_'_,_ _'_p_o_s_'_:_ _'_I_N_'_}_,_ _'_)_'_,_ _'_?_'_,_ _'_(_'_,_ _{_'_n_o_d_e_T_y_p_e_'_:_ _'_N_o_u_n_C_h_u_n_k_'_}_,_ _'_(_'_,_ _{_'_n_o_d_e_T_y_p_e_'_:_ _'_T_o_k_e_n_'_,_ _'_p_o_s_'_:_ _'_I_N_'_}_,_ _'_|_'_,_ _{_'_t_e_x_t_'_:_ _[_'_a_n_d_'_,_ _'_o_r_'_]_,_ _'_n_o_d_e_T_y_p_e_'_:_ _'_T_o_k_e_n_'_,_ _'_p_o_s_'_:_ _'_C_C_'_}_,_ _'_)_'_,_ _{_'_n_o_d_e_T_y_p_e_'_:_ _'_N_o_u_n_C_h_u_n_k_'_}_,_ _'_(_'_,_ _{_'_n_o_d_e_T_y_p_e_'_:_ _'_T_o_k_e_n_'_,_ _'_p_o_s_'_:_ _'_I_N_'_}_,_ _{_'_n_o_d_e_T_y_p_e_'_:_ _'_N_o_u_n_C_h_u_n_k_'_}_,_ _'_)_'_,_ _'_?_'_,_ _'_|_'_,_ _'_(_'_,_ _{_'_n_o_d_e_T_y_p_e_'_:_ _'_T_o_k_e_n_'_,_ _'_p_o_s_'_:_ _[_'_P_P_'_,_ _'_P_P_$_'_,_ _'_P_R_P_$_'_,_ _'_P_R_P_'_]_}_,_ _'_|_'_,_ _{_'_n_o_d_e_T_y_p_e_'_:_ _'_N_o_u_n_C_h_u_n_k_'_}_,_ _'_)_'_,_ _'_|_'_,_ _{_'_t_e_x_t_'_:_ _[_'_t_h_i_s_'_,_ _'_t_h_a_t_'_,_ _'_t_h_e_s_e_'_,_ _'_t_h_o_s_e_'_]_,_ _'_n_o_d_e_T_y_p_e_'_:_ _'_T_o_k_e_n_'_}_,_ _'_|_'_,_ _{_'_n_o_d_e_T_y_p_e_'_:_ _'_T_o_k_e_n_'_,_ _'_p_o_s_'_:_ _'_D_T_'_}_,_ _'_(_'_,_ _{_'_n_o_d_e_T_y_p_e_'_:_ _'_T_o_k_e_n_'_,_ _'_p_o_s_'_:_ _[_'_J_J_'_,_ _'_J_J_R_'_,_ _'_J_J_S_'_]_}_,_ _'_|_'_,_ _{_'_p_o_s_'_:_ _'_S_Y_M_'_}_,_ _'_)_'_,_ _'_*_'_,_ _{_'_n_o_d_e_T_y_p_e_'_:_ _'_T_o_k_e_n_'_,_ _'_p_o_s_'_:_ _'_C_D_'_}_,_ _'_*_'_,_ _'_(_'_,_ _{_'_n_o_d_e_T_y_p_e_'_:_ _'_N_o_u_n_C_h_u_n_k_'_}_,_ _'_|_'_,_ _{_'_n_o_d_e_T_y_p_e_'_:_ _'_N_o_u_n_C_h_u_n_k_'_}_,_ _'_(_'_,_ _{_'_n_o_d_e_T_y_p_e_'_:_ _'_T_o_k_e_n_'_,_ _'_p_o_s_'_:_ _'_I_N_'_}_,_ _'_|_'_,_ _{_'_t_e_x_t_'_:_ _[_'_a_n_d_'_,_ _'_o_r_'_]_,_ _'_n_o_d_e_T_y_p_e_'_:_ _'_T_o_k_e_n_'_,_ _'_p_o_s_'_:_ _'_C_C_'_}_,_ _'_)_'_,_ _{_'_n_o_d_e_T_y_p_e_'_:_ _'_N_o_u_n_C_h_u_n_k_'_}_,_ _'_)_'_,_ _'_)_'_,_ _'_(_'_,_ _{_'_t_e_n_s_e_'_:_ _'_I_N_F_I_N_I_T_I_V_E_'_,_ _'_n_o_d_e_T_y_p_e_'_:_ _'_V_e_r_b_C_h_u_n_k_'_}_,_ _'_|_'_,_ _{_'_t_e_x_t_'_:_ _'_t_o_'_,_ _'_p_o_s_'_:_ _'_T_O_'_}_,_ _{_'_p_o_s_'_:_ _'_U_H_'_}_,_ _'_?_'_,_ _'_(_'_,_ _{_'_n_o_d_e_T_y_p_e_'_:_ _'_V_e_r_b_C_h_u_n_k_'_,_ _'_e_v_e_n_t_S_t_a_t_u_s_'_:_ _'_1_'_}_,_ _'_|_'_,_ _{_'_n_o_d_e_T_y_p_e_'_:_ _'_N_o_u_n_C_h_u_n_k_'_,_ _'_e_v_e_n_t_S_t_a_t_u_s_'_:_ _'_1_'_}_,_ _'_)_'_,_ _'_)_'_]"
p151
sg20
I0
sg21
(lp152
I0
aI5
aI2
aI8
aI4
aI6
aI13
aI9
aI1
aI12
aI3
aI11
aI10
aI7
asg23
(dp153
sg25
I1
sg26
(lp154
(I0
I1
S"{'nodeType': 'Token', 'pos': ['PP', 'PP$', 'PRP$', 'PRP']}"
tp155
a(I0
I1
S"{'text': ['this', 'that', 'these', 'those'], 'nodeType': 'Token'}"
tp156
a(I0
I2
S"{'nodeType': 'NounChunk'}"
p157
tp158
a(I0
I3
S"{'nodeType': 'Token', 'pos': 'PDT'}"
tp159
a(I0
I4
S"{'nodeType': 'Token', 'pos': 'DT'}"
tp160
a(I1
I5
S"{'tense': 'INFINITIVE', 'nodeType': 'VerbChunk'}"
p161
tp162
a(I1
I6
S"{'text': 'to', 'pos': 'TO'}"
p163
tp164
a(I2
I7
S"{'nodeType': 'Token', 'pos': 'IN'}"
tp165
a(I2
I7
S"{'text': ['and', 'or'], 'nodeType': 'Token', 'pos': 'CC'}"
tp166
a(I2
I5
g161
tp167
a(I2
I6
g163
tp168
a(I3
I2
g157
tp169
a(I3
I1
S"{'nodeType': 'Token', 'pos': ['PP', 'PP$', 'PRP$', 'PRP']}"
tp170
a(I3
I1
S"{'text': ['this', 'that', 'these', 'those'], 'nodeType': 'Token'}"
tp171
a(I3
I8
S"{'nodeType': 'Token', 'pos': 'DT'}"
tp172
a(I4
I3
S"{'nodeType': 'Token', 'pos': 'IN'}"
tp173
a(I4
I9
S"{'nodeType': 'NounChunk'}"
p174
tp175
a(I4
I8
S"{'nodeType': 'Token', 'pos': ['JJ', 'JJR', 'JJS']}"
tp176
a(I4
I8
S"{'pos': 'SYM'}"
tp177
a(I4
I10
S"{'nodeType': 'Token', 'pos': 'CD'}"
p178
tp179
a(I6
I5
S"{'nodeType': 'NounChunk', 'eventStatus': '1'}"
tp180
a(I6
I5
S"{'nodeType': 'VerbChunk', 'eventStatus': '1'}"
tp181
a(I6
I11
S"{'pos': 'UH'}"
tp182
a(I7
I12
S"{'nodeType': 'NounChunk'}"
tp183
a(I8
I9
g174
tp184
a(I8
I8
S"{'nodeType': 'Token', 'pos': ['JJ', 'JJR', 'JJS']}"
tp185
a(I8
I8
S"{'pos': 'SYM'}"
tp186
a(I8
I10
g178
tp187
a(I9
I13
S"{'nodeType': 'Token', 'pos': 'IN'}"
tp188
a(I9
I13
S"{'text': ['and', 'or'], 'nodeType': 'Token', 'pos': 'CC'}"
tp189
a(I9
I5
g161
tp190
a(I9
I6
g163
tp191
a(I10
I9
g174
tp192
a(I10
I10
S"{'nodeType': 'Token', 'pos': 'CD'}"
tp193
a(I11
I5
S"{'nodeType': 'NounChunk', 'eventStatus': '1'}"
tp194
a(I11
I5
S"{'nodeType': 'VerbChunk', 'eventStatus': '1'}"
tp195
a(I12
I13
S"{'nodeType': 'Token', 'pos': 'IN'}"
tp196
a(I12
I5
g161
tp197
a(I12
I6
g163
tp198
a(I13
I1
S"{'nodeType': 'NounChunk'}"
tp199
asg86
I1
sg87
I1
sbaa(lp200
g7
(g8
g9
NtRp201
(dp202
g12
S'ofING_clause'
p203
sg14
(lp204
I5
asg16
I1
sg17
Nsg18
S"[_{_'_n_o_d_e_T_y_p_e_'_:_ _'_T_o_k_e_n_'_,_ _'_p_o_s_'_:_ _'_I_N_'_}_,_ _'_?_'_,_ _{_'_n_o_d_e_T_y_p_e_'_:_ _'_T_o_k_e_n_'_,_ _'_p_o_s_'_:_ _'_P_D_T_'_}_,_ _'_?_'_,_ _{_'_n_o_d_e_T_y_p_e_'_:_ _'_N_o_u_n_C_h_u_n_k_'_}_,_ _'_?_'_,_ _{_'_t_e_x_t_'_:_ _'_o_f_'_}_,_ _{_'_n_o_d_e_T_y_p_e_'_:_ _'_V_e_r_b_C_h_u_n_k_'_,_ _'_e_v_e_n_t_S_t_a_t_u_s_'_:_ _'_1_'_}_]"
p205
sg20
I0
sg21
(lp206
I0
aI1
aI2
aI3
aI4
aI5
asg23
(dp207
sg25
I1
sg26
(lp208
(I0
I1
S"{'nodeType': 'Token', 'pos': 'IN'}"
tp209
a(I0
I2
S"{'nodeType': 'NounChunk'}"
p210
tp211
a(I0
I3
S"{'nodeType': 'Token', 'pos': 'PDT'}"
p212
tp213
a(I0
I4
S"{'text': 'of'}"
p214
tp215
a(I1
I2
g210
tp216
a(I1
I3
g212
tp217
a(I1
I4
g214
tp218
a(I2
I4
g214
tp219
a(I3
I2
g210
tp220
a(I3
I4
g214
tp221
a(I4
I5
S"{'nodeType': 'VerbChunk', 'eventStatus': '1'}"
tp222
asg86
I1
sg87
I1
sbaa(lp223
g89
aa(lp224
S'MODAL'
p225
atp226
ssS'declaration'
p227
(dp228
g4
((lp229
(lp230
g10
ag7
(g8
g9
NtRp231
(dp232
g12
S'thatClause_that_QUOTES'
p233
sg14
(lp234
I4
asg16
I1
sg17
Nsg18
S'[_\'_(_\'_,_ _\'_(_\'_,_ _{_\'_n_o_d_e_T_y_p_e_\'_:_ _\'_N_o_u_n_C_h_u_n_k_\'_}_,_ _\'_|_\'_,_ _{_\'_n_o_d_e_T_y_p_e_\'_:_ _\'_T_o_k_e_n_\'_,_ _\'_p_o_s_\'_:_ _\'_I_N_\'_}_,_ _\'_|_\'_,_ _{_\'_n_o_d_e_T_y_p_e_\'_:_ _\'_T_o_k_e_n_\'_,_ _\'_p_o_s_\'_:_ _[_\'_J_J_\'_,_ _\'_J_J_R_\'_,_ _\'_J_J_S_\'_,_ _\'_D_T_\'_,_ _\'_P_D_T_\'_,_ _\'_P_O_S_\'_,_ _\'_C_D_\'_,_ _\'_S_Y_M_\'_]_}_,_ _\'_|_\'_,_ _{_\'_t_e_x_t_\'_:_ _[_\'_"_\'_,_ _\'_`_`_\'_,_ _"_\'_\'_"_]_}_,_ _\'_)_\'_,_ _\'_?_\'_,_ _\'_|_\'_,_ _{_\'_t_e_x_t_\'_:_ _\'_,_\'_}_,_ _\'_|_\'_,_ _{_\'_t_e_x_t_\'_:_ _\'_:_\'_}_,_ _\'_)_\'_,_ _\'_?_\'_,_ _{_\'_t_e_x_t_\'_:_ _[_\'_t_h_a_t_\'_,_ _\'_i_f_\'_,_ _\'_w_h_e_t_h_e_r_\'_]_,_ _\'_n_o_d_e_T_y_p_e_\'_:_ _\'_T_o_k_e_n_\'_,_ _\'_p_o_s_\'_:_ _\'_I_N_\'_}_,_ _{_\'_t_e_x_t_\'_:_ _[_\'_"_\'_,_ _\'_`_`_\'_,_ _"_\'_\'_"_]_}_,_ _{_\'_t_e_x_t_\'_:_ _(_\'_^_\'_,_ _[_\'_;_\'_,_ _\'_._\'_,_ _\'_!_\'_,_ _\'_?_\'_,_ _\'_._._._\'_,_ _\'_"_\'_,_ _\'_`_`_\'_]_)_,_ _\'_p_o_s_\'_:_ _(_\'_^_\'_,_ _[_\'_W_P_\'_,_ _\'_W_D_T_\'_,_ _\'_W_R_B_\'_,_ _\'_"_\'_,_ _"_\'_\'_"_,_ _\'_`_`_\'_]_)_}_,_ _\'_?_\'_,_ _\'_(_\'_,_ _\'_(_\'_,_ _{_\'_n_o_d_e_T_y_p_e_\'_:_ _\'_N_o_u_n_C_h_u_n_k_\'_}_,_ _\'_|_\'_,_ _{_\'_n_o_d_e_T_y_p_e_\'_:_ _\'_T_o_k_e_n_\'_,_ _\'_p_o_s_\'_:_ _\'_I_N_\'_}_,_ _\'_|_\'_,_ _{_\'_n_o_d_e_T_y_p_e_\'_:_ _\'_T_o_k_e_n_\'_,_ _\'_p_o_s_\'_:_ _[_\'_J_J_\'_,_ _\'_J_J_R_\'_,_ _\'_J_J_S_\'_,_ _\'_D_T_\'_,_ _\'_P_D_T_\'_,_ _\'_P_O_S_\'_,_ _\'_C_D_\'_,_ _\'_S_Y_M_\'_]_}_,_ _\'_)_\'_,_ _\'_+_\'_,_ _\'_(_\'_,_ _{_\'_t_e_n_s_e_\'_:_ _[_\'_P_A_S_T_\'_,_ _\'_P_R_E_S_E_N_T_\'_,_ _\'_F_U_T_U_R_E_\'_]_,_ _\'_n_o_d_e_T_y_p_e_\'_:_ _[_\'_C_h_u_n_k_\'_,_ _\'_N_o_u_n_C_h_u_n_k_\'_,_ _\'_V_e_r_b_C_h_u_n_k_\'_,_ _\'_A_d_j_e_c_t_i_v_e_T_o_k_e_n_\'_]_}_,_ _\'_|_\'_,_ _{_\'_n_o_d_e_T_y_p_e_\'_:_ _[_\'_C_h_u_n_k_\'_,_ _\'_N_o_u_n_C_h_u_n_k_\'_,_ _\'_V_e_r_b_C_h_u_n_k_\'_,_ _\'_A_d_j_e_c_t_i_v_e_T_o_k_e_n_\'_]_,_ _\'_m_o_d_a_l_i_t_y_\'_:_ _[_\'_m_a_y_\'_,_ _\'_c_a_n_\'_,_ _\'_m_u_s_t_\'_,_ _\'_m_i_g_h_t_\'_,_ _\'_c_o_u_l_d_\'_,_ _\'_s_h_o_u_l_d_\'_,_ _\'_w_o_u_l_d_\'_,_ _\'_o_u_g_h_t_\'_,_ _\'_h_a_v_e_ _t_o_\'_]_}_,_ _\'_)_\'_,_ _\'_|_\'_,_ _{_\'_t_e_x_t_\'_:_ _(_\'_^_\'_,_ _[_\'_;_\'_,_ _\'_._\'_,_ _\'_!_\'_,_ _\'_?_\'_,_ _\'_._._._\'_,_ _\'_"_\'_,_ _\'_`_`_\'_]_)_,_ _\'_p_o_s_\'_:_ _(_\'_^_\'_,_ _[_\'_W_P_\'_,_ _\'_W_D_T_\'_,_ _\'_W_R_B_\'_,_ _\'_"_\'_,_ _"_\'_\'_"_,_ _\'_`_`_\'_]_)_}_,_ _\'_?_\'_,_ _{_\'_t_e_x_t_\'_:_ _(_\'_^_\'_,_ _[_\'_;_\'_,_ _\'_._\'_,_ _\'_!_\'_,_ _\'_?_\'_,_ _\'_._._._\'_,_ _\'_"_\'_,_ _\'_`_`_\'_]_)_,_ _\'_p_o_s_\'_:_ _(_\'_^_\'_,_ _[_\'_W_P_\'_,_ _\'_W_D_T_\'_,_ _\'_W_R_B_\'_,_ _\'_"_\'_,_ _"_\'_\'_"_,_ _\'_`_`_\'_]_)_}_,_ _\'_?_\'_,_ _{_\'_t_e_x_t_\'_:_ _(_\'_^_\'_,_ _[_\'_;_\'_,_ _\'_._\'_,_ _\'_!_\'_,_ _\'_?_\'_,_ _\'_._._._\'_,_ _\'_"_\'_,_ _\'_`_`_\'_]_)_,_ _\'_p_o_s_\'_:_ _(_\'_^_\'_,_ _[_\'_W_P_\'_,_ _\'_W_D_T_\'_,_ _\'_W_R_B_\'_,_ _\'_"_\'_,_ _"_\'_\'_"_,_ _\'_`_`_\'_]_)_}_,_ _\'_?_\'_,_ _{_\'_t_e_x_t_\'_:_ _(_\'_^_\'_,_ _[_\'_;_\'_,_ _\'_._\'_,_ _\'_!_\'_,_ _\'_?_\'_,_ _\'_._._._\'_,_ _\'_"_\'_,_ _\'_`_`_\'_]_)_,_ _\'_p_o_s_\'_:_ _(_\'_^_\'_,_ _[_\'_W_P_\'_,_ _\'_W_D_T_\'_,_ _\'_W_R_B_\'_,_ _\'_"_\'_,_ _"_\'_\'_"_,_ _\'_`_`_\'_]_)_}_,_ _\'_?_\'_,_ _{_\'_t_e_x_t_\'_:_ _(_\'_^_\'_,_ _[_\'_;_\'_,_ _\'_._\'_,_ _\'_!_\'_,_ _\'_?_\'_,_ _\'_._._._\'_,_ _\'_"_\'_,_ _\'_`_`_\'_]_)_,_ _\'_p_o_s_\'_:_ _(_\'_^_\'_,_ _[_\'_W_P_\'_,_ _\'_W_D_T_\'_,_ _\'_W_R_B_\'_,_ _\'_"_\'_,_ _"_\'_\'_"_,_ _\'_`_`_\'_]_)_}_,_ _\'_?_\'_,_ _\'_(_\'_,_ _{_\'_t_e_n_s_e_\'_:_ _[_\'_P_A_S_T_\'_,_ _\'_P_R_E_S_E_N_T_\'_,_ _\'_F_U_T_U_R_E_\'_]_,_ _\'_n_o_d_e_T_y_p_e_\'_:_ _[_\'_C_h_u_n_k_\'_,_ _\'_N_o_u_n_C_h_u_n_k_\'_,_ _\'_V_e_r_b_C_h_u_n_k_\'_,_ _\'_A_d_j_e_c_t_i_v_e_T_o_k_e_n_\'_]_}_,_ _\'_|_\'_,_ _{_\'_n_o_d_e_T_y_p_e_\'_:_ _[_\'_C_h_u_n_k_\'_,_ _\'_N_o_u_n_C_h_u_n_k_\'_,_ _\'_V_e_r_b_C_h_u_n_k_\'_,_ _\'_A_d_j_e_c_t_i_v_e_T_o_k_e_n_\'_]_,_ _\'_m_o_d_a_l_i_t_y_\'_:_ _[_\'_m_a_y_\'_,_ _\'_c_a_n_\'_,_ _\'_m_u_s_t_\'_,_ _\'_m_i_g_h_t_\'_,_ _\'_c_o_u_l_d_\'_,_ _\'_s_h_o_u_l_d_\'_,_ _\'_w_o_u_l_d_\'_,_ _\'_o_u_g_h_t_\'_,_ _\'_h_a_v_e_ _t_o_\'_]_}_,_ _\'_)_\'_,_ _\'_|_\'_,_ _{_\'_t_e_x_t_\'_:_ _[_\'_i_s_\'_,_ _\'_w_a_s_\'_,_ _\'_w_e_r_e_\'_,_ _\'_a_m_\'_,_ _\'_b_e_\'_,_ _"_\'_s_"_,_ _\'_a_r_e_\'_,_ _"_\'_r_e_"_,_ _"_\'_m_"_,_ _\'_b_e_e_n_\'_,_ _\'_b_e_i_n_g_\'_]_,_ _\'_n_o_d_e_T_y_p_e_\'_:_ _\'_V_e_r_b_C_h_u_n_k_\'_}_,_ _{_\'_n_o_d_e_T_y_p_e_\'_:_ _\'_T_o_k_e_n_\'_,_ _\'_p_o_s_\'_:_ _\'_I_N_\'_}_,_ _\'_?_\'_,_ _{_\'_n_o_d_e_T_y_p_e_\'_:_ _\'_N_o_u_n_C_h_u_n_k_\'_,_ _\'_e_v_e_n_t_S_t_a_t_u_s_\'_:_ _\'_1_\'_}_,_ _\'_)_\'_]'
p235
sg20
I0
sg21
(lp236
I6
aI0
aI8
aI3
aI10
aI5
aI4
aI7
aI2
aI11
aI12
aI9
aI1
aI13
asg23
(dp237
sg25
I1
sg26
(lp238
(I0
I1
S"{'nodeType': 'NounChunk'}"
tp239
a(I0
I1
S"{'nodeType': 'Token', 'pos': 'IN'}"
tp240
a(I0
I1
S"{'nodeType': 'Token', 'pos': ['JJ', 'JJR', 'JJS', 'DT', 'PDT', 'POS', 'CD', 'SYM']}"
tp241
a(I0
I1
S"{'text': ','}"
tp242
a(I0
I1
S"{'text': ':'}"
tp243
a(I0
I1
S'{\'text\': [\'"\', \'``\', "\'\'"]}'
tp244
a(I0
I2
S"{'text': ['that', 'if', 'whether'], 'nodeType': 'Token', 'pos': 'IN'}"
p245
tp246
a(I1
I2
g245
tp247
a(I2
I3
S'{\'text\': [\'"\', \'``\', "\'\'"]}'
tp248
a(I3
I4
S"{'nodeType': ['Chunk', 'NounChunk', 'VerbChunk', 'AdjectiveToken'], 'modality': ['may', 'can', 'must', 'might', 'could', 'should', 'would', 'ought', 'have to']}"
tp249
a(I3
I4
S"{'tense': ['PAST', 'PRESENT', 'FUTURE'], 'nodeType': ['Chunk', 'NounChunk', 'VerbChunk', 'AdjectiveToken']}"
tp250
a(I3
I5
S'{\'text\': (\'^\', [\';\', \'.\', \'!\', \'?\', \'...\', \'"\', \'``\']), \'pos\': (\'^\', [\'WP\', \'WDT\', \'WRB\', \'"\', "\'\'", \'``\'])}'
tp251
a(I3
I6
S"{'nodeType': 'NounChunk'}"
tp252
a(I3
I6
S"{'nodeType': 'Token', 'pos': 'IN'}"
tp253
a(I3
I6
S"{'nodeType': 'Token', 'pos': ['JJ', 'JJR', 'JJS', 'DT', 'PDT', 'POS', 'CD', 'SYM']}"
tp254
a(I3
I7
S'{\'text\': [\'is\', \'was\', \'were\', \'am\', \'be\', "\'s", \'are\', "\'re", "\'m", \'been\', \'being\'], \'nodeType\': \'VerbChunk\'}'
p255
tp256
a(I5
I4
S"{'nodeType': ['Chunk', 'NounChunk', 'VerbChunk', 'AdjectiveToken'], 'modality': ['may', 'can', 'must', 'might', 'could', 'should', 'would', 'ought', 'have to']}"
tp257
a(I5
I4
S"{'tense': ['PAST', 'PRESENT', 'FUTURE'], 'nodeType': ['Chunk', 'NounChunk', 'VerbChunk', 'AdjectiveToken']}"
tp258
a(I5
I8
S'{\'text\': (\'^\', [\';\', \'.\', \'!\', \'?\', \'...\', \'"\', \'``\']), \'pos\': (\'^\', [\'WP\', \'WDT\', \'WRB\', \'"\', "\'\'", \'``\'])}'
tp259
a(I5
I6
S"{'nodeType': 'NounChunk'}"
tp260
a(I5
I6
S"{'nodeType': 'Token', 'pos': 'IN'}"
tp261
a(I5
I6
S"{'nodeType': 'Token', 'pos': ['JJ', 'JJR', 'JJS', 'DT', 'PDT', 'POS', 'CD', 'SYM']}"
tp262
a(I5
I7
g255
tp263
a(I6
I4
S"{'nodeType': ['Chunk', 'NounChunk', 'VerbChunk', 'AdjectiveToken'], 'modality': ['may', 'can', 'must', 'might', 'could', 'should', 'would', 'ought', 'have to']}"
tp264
a(I6
I4
S"{'tense': ['PAST', 'PRESENT', 'FUTURE'], 'nodeType': ['Chunk', 'NounChunk', 'VerbChunk', 'AdjectiveToken']}"
tp265
a(I6
I6
S"{'nodeType': 'NounChunk'}"
tp266
a(I6
I6
S"{'nodeType': 'Token', 'pos': 'IN'}"
tp267
a(I6
I6
S"{'nodeType': 'Token', 'pos': ['JJ', 'JJR', 'JJS', 'DT', 'PDT', 'POS', 'CD', 'SYM']}"
tp268
a(I7
I9
S"{'nodeType': 'Token', 'pos': 'IN'}"
tp269
a(I7
I4
S"{'nodeType': 'NounChunk', 'eventStatus': '1'}"
p270
tp271
a(I8
I4
S"{'nodeType': ['Chunk', 'NounChunk', 'VerbChunk', 'AdjectiveToken'], 'modality': ['may', 'can', 'must', 'might', 'could', 'should', 'would', 'ought', 'have to']}"
tp272
a(I8
I4
S"{'tense': ['PAST', 'PRESENT', 'FUTURE'], 'nodeType': ['Chunk', 'NounChunk', 'VerbChunk', 'AdjectiveToken']}"
tp273
a(I8
I10
S'{\'text\': (\'^\', [\';\', \'.\', \'!\', \'?\', \'...\', \'"\', \'``\']), \'pos\': (\'^\', [\'WP\', \'WDT\', \'WRB\', \'"\', "\'\'", \'``\'])}'
tp274
a(I9
I4
g270
tp275
a(I10
I4
S"{'nodeType': ['Chunk', 'NounChunk', 'VerbChunk', 'AdjectiveToken'], 'modality': ['may', 'can', 'must', 'might', 'could', 'should', 'would', 'ought', 'have to']}"
tp276
a(I10
I4
S"{'tense': ['PAST', 'PRESENT', 'FUTURE'], 'nodeType': ['Chunk', 'NounChunk', 'VerbChunk', 'AdjectiveToken']}"
tp277
a(I10
I11
S'{\'text\': (\'^\', [\';\', \'.\', \'!\', \'?\', \'...\', \'"\', \'``\']), \'pos\': (\'^\', [\'WP\', \'WDT\', \'WRB\', \'"\', "\'\'", \'``\'])}'
tp278
a(I11
I4
S"{'nodeType': ['Chunk', 'NounChunk', 'VerbChunk', 'AdjectiveToken'], 'modality': ['may', 'can', 'must', 'might', 'could', 'should', 'would', 'ought', 'have to']}"
tp279
a(I11
I4
S"{'tense': ['PAST', 'PRESENT', 'FUTURE'], 'nodeType': ['Chunk', 'NounChunk', 'VerbChunk', 'AdjectiveToken']}"
tp280
a(I11
I12
S'{\'text\': (\'^\', [\';\', \'.\', \'!\', \'?\', \'...\', \'"\', \'``\']), \'pos\': (\'^\', [\'WP\', \'WDT\', \'WRB\', \'"\', "\'\'", \'``\'])}'
tp281
a(I12
I4
S"{'nodeType': ['Chunk', 'NounChunk', 'VerbChunk', 'AdjectiveToken'], 'modality': ['may', 'can', 'must', 'might', 'could', 'should', 'would', 'ought', 'have to']}"
tp282
a(I12
I4
S"{'tense': ['PAST', 'PRESENT', 'FUTURE'], 'nodeType': ['Chunk', 'NounChunk', 'VerbChunk', 'AdjectiveToken']}"
tp283
a(I12
I13
S'{\'text\': (\'^\', [\';\', \'.\', \'!\', \'?\', \'...\', \'"\', \'``\']), \'pos\': (\'^\', [\'WP\', \'WDT\', \'WRB\', \'"\', "\'\'", \'``\'])}'
tp284
a(I13
I4
S"{'nodeType': ['Chunk', 'NounChunk', 'VerbChunk', 'AdjectiveToken'], 'modality': ['may', 'can', 'must', 'might', 'could', 'should', 'would', 'ought', 'have to']}"
tp285
a(I13
I4
S"{'tense': ['PAST', 'PRESENT', 'FUTURE'], 'nodeType': ['Chunk', 'NounChunk', 'VerbChunk', 'AdjectiveToken']}"
tp286
asg86
I1
sg87
I1
sbag7
(g8
g9
NtRp287
(dp288
g12
S'thatClause_NOT_that'
p289
sg14
(lp290
I2
asg16
I1
sg17
Nsg18
S'[_{_\'_t_e_x_t_\'_:_ _(_\'_^_\'_,_ _[_\'_,_\'_]_)_}_,_ _{_\'_t_e_x_t_\'_:_ _(_\'_^_\'_,_ _[_\'_;_\'_,_ _\'_._\'_,_ _\'_!_\'_,_ _\'_?_\'_,_ _\'_._._._\'_,_ _\'_"_\'_]_)_,_ _\'_p_o_s_\'_:_ _(_\'_^_\'_,_ _[_\'_W_P_\'_,_ _\'_W_D_T_\'_,_ _\'_W_R_B_\'_,_ _\'_"_\'_,_ _"_\'_\'_"_]_)_}_,_ _\'_?_\'_,_ _\'_(_\'_,_ _{_\'_t_e_x_t_\'_:_ _(_\'_^_\'_,_ _[_\'_;_\'_,_ _\'_._\'_,_ _\'_!_\'_,_ _\'_?_\'_,_ _\'_._._._\'_,_ _\'_"_\'_,_ _\'_`_`_\'_]_)_,_ _\'_p_o_s_\'_:_ _(_\'_^_\'_,_ _[_\'_W_P_\'_,_ _\'_W_D_T_\'_,_ _\'_W_R_B_\'_,_ _\'_"_\'_,_ _"_\'_\'_"_,_ _\'_`_`_\'_]_)_}_,_ _\'_?_\'_,_ _{_\'_t_e_x_t_\'_:_ _(_\'_^_\'_,_ _[_\'_;_\'_,_ _\'_._\'_,_ _\'_!_\'_,_ _\'_?_\'_,_ _\'_._._._\'_,_ _\'_"_\'_,_ _\'_`_`_\'_]_)_,_ _\'_p_o_s_\'_:_ _(_\'_^_\'_,_ _[_\'_W_P_\'_,_ _\'_W_D_T_\'_,_ _\'_W_R_B_\'_,_ _\'_"_\'_,_ _"_\'_\'_"_,_ _\'_`_`_\'_]_)_}_,_ _\'_?_\'_,_ _{_\'_t_e_x_t_\'_:_ _(_\'_^_\'_,_ _[_\'_;_\'_,_ _\'_._\'_,_ _\'_!_\'_,_ _\'_?_\'_,_ _\'_._._._\'_,_ _\'_"_\'_,_ _\'_`_`_\'_]_)_,_ _\'_p_o_s_\'_:_ _(_\'_^_\'_,_ _[_\'_W_P_\'_,_ _\'_W_D_T_\'_,_ _\'_W_R_B_\'_,_ _\'_"_\'_,_ _"_\'_\'_"_,_ _\'_`_`_\'_]_)_}_,_ _\'_?_\'_,_ _{_\'_t_e_x_t_\'_:_ _(_\'_^_\'_,_ _[_\'_;_\'_,_ _\'_._\'_,_ _\'_!_\'_,_ _\'_?_\'_,_ _\'_._._._\'_,_ _\'_"_\'_,_ _\'_`_`_\'_]_)_,_ _\'_p_o_s_\'_:_ _(_\'_^_\'_,_ _[_\'_W_P_\'_,_ _\'_W_D_T_\'_,_ _\'_W_R_B_\'_,_ _\'_"_\'_,_ _"_\'_\'_"_,_ _\'_`_`_\'_]_)_}_,_ _\'_?_\'_,_ _{_\'_t_e_x_t_\'_:_ _(_\'_^_\'_,_ _[_\'_;_\'_,_ _\'_._\'_,_ _\'_!_\'_,_ _\'_?_\'_,_ _\'_._._._\'_,_ _\'_"_\'_,_ _\'_`_`_\'_]_)_,_ _\'_p_o_s_\'_:_ _(_\'_^_\'_,_ _[_\'_W_P_\'_,_ _\'_W_D_T_\'_,_ _\'_W_R_B_\'_,_ _\'_"_\'_,_ _"_\'_\'_"_,_ _\'_`_`_\'_]_)_}_,_ _\'_?_\'_,_ _\'_(_\'_,_ _{_\'_t_e_n_s_e_\'_:_ _[_\'_P_A_S_T_\'_,_ _\'_P_R_E_S_E_N_T_\'_,_ _\'_F_U_T_U_R_E_\'_]_,_ _\'_n_o_d_e_T_y_p_e_\'_:_ _[_\'_C_h_u_n_k_\'_,_ _\'_N_o_u_n_C_h_u_n_k_\'_,_ _\'_V_e_r_b_C_h_u_n_k_\'_,_ _\'_A_d_j_e_c_t_i_v_e_T_o_k_e_n_\'_]_}_,_ _\'_|_\'_,_ _{_\'_n_o_d_e_T_y_p_e_\'_:_ _[_\'_C_h_u_n_k_\'_,_ _\'_N_o_u_n_C_h_u_n_k_\'_,_ _\'_V_e_r_b_C_h_u_n_k_\'_,_ _\'_A_d_j_e_c_t_i_v_e_T_o_k_e_n_\'_]_,_ _\'_m_o_d_a_l_i_t_y_\'_:_ _[_\'_m_a_y_\'_,_ _\'_c_a_n_\'_,_ _\'_m_u_s_t_\'_,_ _\'_m_i_g_h_t_\'_,_ _\'_c_o_u_l_d_\'_,_ _\'_s_h_o_u_l_d_\'_,_ _\'_w_o_u_l_d_\'_,_ _\'_o_u_g_h_t_\'_,_ _\'_h_a_v_e_ _t_o_\'_]_}_,_ _\'_)_\'_,_ _\'_|_\'_,_ _{_\'_t_e_x_t_\'_:_ _[_\'_i_s_\'_,_ _\'_w_a_s_\'_,_ _\'_w_e_r_e_\'_,_ _\'_a_m_\'_,_ _\'_b_e_\'_,_ _"_\'_s_"_,_ _\'_a_r_e_\'_,_ _"_\'_r_e_"_,_ _"_\'_m_"_,_ _\'_b_e_e_n_\'_,_ _\'_b_e_i_n_g_\'_]_,_ _\'_n_o_d_e_T_y_p_e_\'_:_ _\'_V_e_r_b_C_h_u_n_k_\'_}_,_ _{_\'_n_o_d_e_T_y_p_e_\'_:_ _\'_T_o_k_e_n_\'_,_ _\'_p_o_s_\'_:_ _\'_I_N_\'_}_,_ _\'_?_\'_,_ _{_\'_n_o_d_e_T_y_p_e_\'_:_ _\'_N_o_u_n_C_h_u_n_k_\'_,_ _\'_e_v_e_n_t_S_t_a_t_u_s_\'_:_ _\'_1_\'_}_,_ _\'_)_\'_]'
p291
sg20
I0
sg21
(lp292
I0
aI1
aI7
aI3
aI2
aI4
aI10
aI8
aI6
aI5
aI9
asg23
(dp293
sg25
I1
sg26
(lp294
(I0
I1
S"{'text': ('^', [','])}"
tp295
a(I1
I2
S"{'nodeType': ['Chunk', 'NounChunk', 'VerbChunk', 'AdjectiveToken'], 'modality': ['may', 'can', 'must', 'might', 'could', 'should', 'would', 'ought', 'have to']}"
tp296
a(I1
I2
S"{'tense': ['PAST', 'PRESENT', 'FUTURE'], 'nodeType': ['Chunk', 'NounChunk', 'VerbChunk', 'AdjectiveToken']}"
tp297
a(I1
I3
S'{\'text\': [\'is\', \'was\', \'were\', \'am\', \'be\', "\'s", \'are\', "\'re", "\'m", \'been\', \'being\'], \'nodeType\': \'VerbChunk\'}'
p298
tp299
a(I1
I4
S'{\'text\': (\'^\', [\';\', \'.\', \'!\', \'?\', \'...\', \'"\']), \'pos\': (\'^\', [\'WP\', \'WDT\', \'WRB\', \'"\', "\'\'"])}'
tp300
a(I1
I5
S'{\'text\': (\'^\', [\';\', \'.\', \'!\', \'?\', \'...\', \'"\', \'``\']), \'pos\': (\'^\', [\'WP\', \'WDT\', \'WRB\', \'"\', "\'\'", \'``\'])}'
tp301
a(I3
I6
S"{'nodeType': 'Token', 'pos': 'IN'}"
tp302
a(I3
I2
S"{'nodeType': 'NounChunk', 'eventStatus': '1'}"
p303
tp304
a(I4
I2
S"{'nodeType': ['Chunk', 'NounChunk', 'VerbChunk', 'AdjectiveToken'], 'modality': ['may', 'can', 'must', 'might', 'could', 'should', 'would', 'ought', 'have to']}"
tp305
a(I4
I2
S"{'tense': ['PAST', 'PRESENT', 'FUTURE'], 'nodeType': ['Chunk', 'NounChunk', 'VerbChunk', 'AdjectiveToken']}"
tp306
a(I4
I3
g298
tp307
a(I4
I5
S'{\'text\': (\'^\', [\';\', \'.\', \'!\', \'?\', \'...\', \'"\', \'``\']), \'pos\': (\'^\', [\'WP\', \'WDT\', \'WRB\', \'"\', "\'\'", \'``\'])}'
tp308
a(I5
I2
S"{'nodeType': ['Chunk', 'NounChunk', 'VerbChunk', 'AdjectiveToken'], 'modality': ['may', 'can', 'must', 'might', 'could', 'should', 'would', 'ought', 'have to']}"
tp309
a(I5
I2
S"{'tense': ['PAST', 'PRESENT', 'FUTURE'], 'nodeType': ['Chunk', 'NounChunk', 'VerbChunk', 'AdjectiveToken']}"
tp310
a(I5
I7
S'{\'text\': (\'^\', [\';\', \'.\', \'!\', \'?\', \'...\', \'"\', \'``\']), \'pos\': (\'^\', [\'WP\', \'WDT\', \'WRB\', \'"\', "\'\'", \'``\'])}'
tp311
a(I6
I2
g303
tp312
a(I7
I2
S"{'nodeType': ['Chunk', 'NounChunk', 'VerbChunk', 'AdjectiveToken'], 'modality': ['may', 'can', 'must', 'might', 'could', 'should', 'would', 'ought', 'have to']}"
tp313
a(I7
I2
S"{'tense': ['PAST', 'PRESENT', 'FUTURE'], 'nodeType': ['Chunk', 'NounChunk', 'VerbChunk', 'AdjectiveToken']}"
tp314
a(I7
I8
S'{\'text\': (\'^\', [\';\', \'.\', \'!\', \'?\', \'...\', \'"\', \'``\']), \'pos\': (\'^\', [\'WP\', \'WDT\', \'WRB\', \'"\', "\'\'", \'``\'])}'
tp315
a(I8
I2
S"{'nodeType': ['Chunk', 'NounChunk', 'VerbChunk', 'AdjectiveToken'], 'modality': ['may', 'can', 'must', 'might', 'could', 'should', 'would', 'ought', 'have to']}"
tp316
a(I8
I2
S"{'tense': ['PAST', 'PRESENT', 'FUTURE'], 'nodeType': ['Chunk', 'NounChunk', 'VerbChunk', 'AdjectiveToken']}"
tp317
a(I8
I9
S'{\'text\': (\'^\', [\';\', \'.\', \'!\', \'?\', \'...\', \'"\', \'``\']), \'pos\': (\'^\', [\'WP\', \'WDT\', \'WRB\', \'"\', "\'\'", \'``\'])}'
tp318
a(I9
I2
S"{'nodeType': ['Chunk', 'NounChunk', 'VerbChunk', 'AdjectiveToken'], 'modality': ['may', 'can', 'must', 'might', 'could', 'should', 'would', 'ought', 'have to']}"
tp319
a(I9
I2
S"{'tense': ['PAST', 'PRESENT', 'FUTURE'], 'nodeType': ['Chunk', 'NounChunk', 'VerbChunk', 'AdjectiveToken']}"
tp320
a(I9
I10
S'{\'text\': (\'^\', [\';\', \'.\', \'!\', \'?\', \'...\', \'"\', \'``\']), \'pos\': (\'^\', [\'WP\', \'WDT\', \'WRB\', \'"\', "\'\'", \'``\'])}'
tp321
a(I10
I2
S"{'nodeType': ['Chunk', 'NounChunk', 'VerbChunk', 'AdjectiveToken'], 'modality': ['may', 'can', 'must', 'might', 'could', 'should', 'would', 'ought', 'have to']}"
tp322
a(I10
I2
S"{'tense': ['PAST', 'PRESENT', 'FUTURE'], 'nodeType': ['Chunk', 'NounChunk', 'VerbChunk', 'AdjectiveToken']}"
tp323
asg86
I1
sg87
I1
sbag7
(g8
g9
NtRp324
(dp325
g12
S'thatClause_NOT_that_QUOTES'
p326
sg14
(lp327
I3
asg16
I1
sg17
Nsg18
S'[_\'_(_\'_,_ _{_\'_t_e_x_t_\'_:_ _\'_,_\'_}_,_ _\'_|_\'_,_ _{_\'_t_e_x_t_\'_:_ _\'_:_\'_}_,_ _\'_)_\'_,_ _\'_?_\'_,_ _{_\'_t_e_x_t_\'_:_ _[_\'_"_\'_,_ _\'_`_`_\'_,_ _"_\'_\'_"_]_}_,_ _{_\'_t_e_x_t_\'_:_ _(_\'_^_\'_,_ _[_\'_;_\'_,_ _\'_._\'_,_ _\'_!_\'_,_ _\'_?_\'_,_ _\'_._._._\'_,_ _\'_"_\'_,_ _\'_`_`_\'_]_)_,_ _\'_p_o_s_\'_:_ _(_\'_^_\'_,_ _[_\'_W_P_\'_,_ _\'_W_D_T_\'_,_ _\'_W_R_B_\'_,_ _\'_"_\'_,_ _"_\'_\'_"_,_ _\'_`_`_\'_]_)_}_,_ _\'_?_\'_,_ _{_\'_t_e_x_t_\'_:_ _(_\'_^_\'_,_ _[_\'_;_\'_,_ _\'_._\'_,_ _\'_!_\'_,_ _\'_?_\'_,_ _\'_._._._\'_,_ _\'_"_\'_,_ _\'_`_`_\'_]_)_,_ _\'_p_o_s_\'_:_ _(_\'_^_\'_,_ _[_\'_W_P_\'_,_ _\'_W_D_T_\'_,_ _\'_W_R_B_\'_,_ _\'_"_\'_,_ _"_\'_\'_"_,_ _\'_`_`_\'_]_)_}_,_ _\'_?_\'_,_ _{_\'_t_e_x_t_\'_:_ _(_\'_^_\'_,_ _[_\'_;_\'_,_ _\'_._\'_,_ _\'_!_\'_,_ _\'_?_\'_,_ _\'_._._._\'_,_ _\'_"_\'_,_ _\'_`_`_\'_]_)_,_ _\'_p_o_s_\'_:_ _(_\'_^_\'_,_ _[_\'_W_P_\'_,_ _\'_W_D_T_\'_,_ _\'_W_R_B_\'_,_ _\'_"_\'_,_ _"_\'_\'_"_,_ _\'_`_`_\'_]_)_}_,_ _\'_?_\'_,_ _{_\'_t_e_x_t_\'_:_ _(_\'_^_\'_,_ _[_\'_;_\'_,_ _\'_._\'_,_ _\'_!_\'_,_ _\'_?_\'_,_ _\'_._._._\'_,_ _\'_"_\'_,_ _\'_`_`_\'_]_)_,_ _\'_p_o_s_\'_:_ _(_\'_^_\'_,_ _[_\'_W_P_\'_,_ _\'_W_D_T_\'_,_ _\'_W_R_B_\'_,_ _\'_"_\'_,_ _"_\'_\'_"_,_ _\'_`_`_\'_]_)_}_,_ _\'_?_\'_,_ _{_\'_t_e_x_t_\'_:_ _(_\'_^_\'_,_ _[_\'_;_\'_,_ _\'_._\'_,_ _\'_!_\'_,_ _\'_?_\'_,_ _\'_._._._\'_,_ _\'_"_\'_,_ _\'_`_`_\'_]_)_,_ _\'_p_o_s_\'_:_ _(_\'_^_\'_,_ _[_\'_W_P_\'_,_ _\'_W_D_T_\'_,_ _\'_W_R_B_\'_,_ _\'_"_\'_,_ _"_\'_\'_"_,_ _\'_`_`_\'_]_)_}_,_ _\'_?_\'_,_ _{_\'_t_e_x_t_\'_:_ _(_\'_^_\'_,_ _[_\'_;_\'_,_ _\'_._\'_,_ _\'_!_\'_,_ _\'_?_\'_,_ _\'_._._._\'_,_ _\'_"_\'_,_ _\'_`_`_\'_]_)_,_ _\'_p_o_s_\'_:_ _(_\'_^_\'_,_ _[_\'_W_P_\'_,_ _\'_W_D_T_\'_,_ _\'_W_R_B_\'_,_ _\'_"_\'_,_ _"_\'_\'_"_,_ _\'_`_`_\'_]_)_}_,_ _\'_?_\'_,_ _\'_(_\'_,_ _{_\'_t_e_n_s_e_\'_:_ _[_\'_P_A_S_T_\'_,_ _\'_P_R_E_S_E_N_T_\'_,_ _\'_F_U_T_U_R_E_\'_]_,_ _\'_n_o_d_e_T_y_p_e_\'_:_ _[_\'_C_h_u_n_k_\'_,_ _\'_N_o_u_n_C_h_u_n_k_\'_,_ _\'_V_e_r_b_C_h_u_n_k_\'_,_ _\'_A_d_j_e_c_t_i_v_e_T_o_k_e_n_\'_]_}_,_ _\'_|_\'_,_ _{_\'_n_o_d_e_T_y_p_e_\'_:_ _[_\'_C_h_u_n_k_\'_,_ _\'_N_o_u_n_C_h_u_n_k_\'_,_ _\'_V_e_r_b_C_h_u_n_k_\'_,_ _\'_A_d_j_e_c_t_i_v_e_T_o_k_e_n_\'_]_,_ _\'_m_o_d_a_l_i_t_y_\'_:_ _[_\'_m_a_y_\'_,_ _\'_c_a_n_\'_,_ _\'_m_u_s_t_\'_,_ _\'_m_i_g_h_t_\'_,_ _\'_c_o_u_l_d_\'_,_ _\'_s_h_o_u_l_d_\'_,_ _\'_w_o_u_l_d_\'_,_ _\'_o_u_g_h_t_\'_,_ _\'_h_a_v_e_ _t_o_\'_]_}_,_ _\'_)_\'_]'
p328
sg20
I0
sg21
(lp329
I3
aI0
aI1
aI5
aI6
aI2
aI4
aI8
aI7
aI9
asg23
(dp330
sg25
I1
sg26
(lp331
(I0
I1
S'{\'text\': [\'"\', \'``\', "\'\'"]}'
p332
tp333
a(I0
I2
S"{'text': ','}"
tp334
a(I0
I2
S"{'text': ':'}"
tp335
a(I1
I3
S"{'nodeType': ['Chunk', 'NounChunk', 'VerbChunk', 'AdjectiveToken'], 'modality': ['may', 'can', 'must', 'might', 'could', 'should', 'would', 'ought', 'have to']}"
tp336
a(I1
I3
S"{'tense': ['PAST', 'PRESENT', 'FUTURE'], 'nodeType': ['Chunk', 'NounChunk', 'VerbChunk', 'AdjectiveToken']}"
tp337
a(I1
I4
S'{\'text\': (\'^\', [\';\', \'.\', \'!\', \'?\', \'...\', \'"\', \'``\']), \'pos\': (\'^\', [\'WP\', \'WDT\', \'WRB\', \'"\', "\'\'", \'``\'])}'
tp338
a(I2
I1
g332
tp339
a(I4
I3
S"{'nodeType': ['Chunk', 'NounChunk', 'VerbChunk', 'AdjectiveToken'], 'modality': ['may', 'can', 'must', 'might', 'could', 'should', 'would', 'ought', 'have to']}"
tp340
a(I4
I3
S"{'tense': ['PAST', 'PRESENT', 'FUTURE'], 'nodeType': ['Chunk', 'NounChunk', 'VerbChunk', 'AdjectiveToken']}"
tp341
a(I4
I5
S'{\'text\': (\'^\', [\';\', \'.\', \'!\', \'?\', \'...\', \'"\', \'``\']), \'pos\': (\'^\', [\'WP\', \'WDT\', \'WRB\', \'"\', "\'\'", \'``\'])}'
tp342
a(I5
I3
S"{'nodeType': ['Chunk', 'NounChunk', 'VerbChunk', 'AdjectiveToken'], 'modality': ['may', 'can', 'must', 'might', 'could', 'should', 'would', 'ought', 'have to']}"
tp343
a(I5
I3
S"{'tense': ['PAST', 'PRESENT', 'FUTURE'], 'nodeType': ['Chunk', 'NounChunk', 'VerbChunk', 'AdjectiveToken']}"
tp344
a(I5
I6
S'{\'text\': (\'^\', [\';\', \'.\', \'!\', \'?\', \'...\', \'"\', \'``\']), \'pos\': (\'^\', [\'WP\', \'WDT\', \'WRB\', \'"\', "\'\'", \'``\'])}'
tp345
a(I6
I3
S"{'nodeType': ['Chunk', 'NounChunk', 'VerbChunk', 'AdjectiveToken'], 'modality': ['may', 'can', 'must', 'might', 'could', 'should', 'would', 'ought', 'have to']}"
tp346
a(I6
I3
S"{'tense': ['PAST', 'PRESENT', 'FUTURE'], 'nodeType': ['Chunk', 'NounChunk', 'VerbChunk', 'AdjectiveToken']}"
tp347
a(I6
I7
S'{\'text\': (\'^\', [\';\', \'.\', \'!\', \'?\', \'...\', \'"\', \'``\']), \'pos\': (\'^\', [\'WP\', \'WDT\', \'WRB\', \'"\', "\'\'", \'``\'])}'
tp348
a(I7
I3
S"{'nodeType': ['Chunk', 'NounChunk', 'VerbChunk', 'AdjectiveToken'], 'modality': ['may', 'can', 'must', 'might', 'could', 'should', 'would', 'ought', 'have to']}"
tp349
a(I7
I3
S"{'tense': ['PAST', 'PRESENT', 'FUTURE'], 'nodeType': ['Chunk', 'NounChunk', 'VerbChunk', 'AdjectiveToken']}"
tp350
a(I7
I8
S'{\'text\': (\'^\', [\';\', \'.\', \'!\', \'?\', \'...\', \'"\', \'``\']), \'pos\': (\'^\', [\'WP\', \'WDT\', \'WRB\', \'"\', "\'\'", \'``\'])}'
tp351
a(I8
I3
S"{'nodeType': ['Chunk', 'NounChunk', 'VerbChunk', 'AdjectiveToken'], 'modality': ['may', 'can', 'must', 'might', 'could', 'should', 'would', 'ought', 'have to']}"
tp352
a(I8
I3
S"{'tense': ['PAST', 'PRESENT', 'FUTURE'], 'nodeType': ['Chunk', 'NounChunk', 'VerbChunk', 'AdjectiveToken']}"
tp353
a(I8
I9
S'{\'text\': (\'^\', [\';\', \'.\', \'!\', \'?\', \'...\', \'"\', \'``\']), \'pos\': (\'^\', [\'WP\', \'WDT\', \'WRB\', \'"\', "\'\'", \'``\'])}'
tp354
a(I9
I3
S"{'nodeType': ['Chunk', 'NounChunk', 'VerbChunk', 'AdjectiveToken'], 'modality': ['may', 'can', 'must', 'might', 'could', 'should', 'would', 'ought', 'have to']}"
tp355
a(I9
I3
S"{'tense': ['PAST', 'PRESENT', 'FUTURE'], 'nodeType': ['Chunk', 'NounChunk', 'VerbChunk', 'AdjectiveToken']}"
tp356
asg86
I1
sg87
I1
sbaa(lp357
g7
(g8
g9
NtRp358
(dp359
g12
S'about_NPev'
p360
sg14
(lp361
I4
asg16
I1
sg17
Nsg18
S"[_{_'_n_o_d_e_T_y_p_e_'_:_ _'_T_o_k_e_n_'_,_ _'_p_o_s_'_:_ _'_P_D_T_'_}_,_ _'_?_'_,_ _{_'_n_o_d_e_T_y_p_e_'_:_ _'_N_o_u_n_C_h_u_n_k_'_}_,_ _'_?_'_,_ _{_'_t_e_x_t_'_:_ _'_a_b_o_u_t_'_,_ _'_n_o_d_e_T_y_p_e_'_:_ _'_T_o_k_e_n_'_}_,_ _{_'_n_o_d_e_T_y_p_e_'_:_ _'_T_o_k_e_n_'_,_ _'_p_o_s_'_:_ _'_P_D_T_'_}_,_ _'_?_'_,_ _'_(_'_,_ _{_'_n_o_d_e_T_y_p_e_'_:_ _'_N_o_u_n_C_h_u_n_k_'_,_ _'_e_v_e_n_t_S_t_a_t_u_s_'_:_ _'_1_'_}_,_ _'_|_'_,_ _{_'_n_o_d_e_T_y_p_e_'_:_ _'_T_o_k_e_n_'_,_ _'_p_o_s_'_:_ _'_D_T_'_}_,_ _'_(_'_,_ _{_'_n_o_d_e_T_y_p_e_'_:_ _'_T_o_k_e_n_'_,_ _'_p_o_s_'_:_ _[_'_J_J_'_,_ _'_J_J_R_'_,_ _'_J_J_S_'_]_}_,_ _'_|_'_,_ _{_'_n_o_d_e_T_y_p_e_'_:_ _'_V_e_r_b_C_h_u_n_k_'_,_ _'_p_o_s_'_:_ _[_'_V_G_B_'_,_ _'_V_B_N_'_]_}_,_ _'_|_'_,_ _'_|_'_,_ _{_'_p_o_s_'_:_ _'_S_Y_M_'_}_,_ _'_)_'_,_ _'_*_'_,_ _{_'_n_o_d_e_T_y_p_e_'_:_ _'_T_o_k_e_n_'_,_ _'_p_o_s_'_:_ _'_C_D_'_}_,_ _'_*_'_,_ _{_'_n_o_d_e_T_y_p_e_'_:_ _'_N_o_u_n_C_h_u_n_k_'_}_,_ _'_)_'_]"
p362
sg20
I0
sg21
(lp363
I7
aI0
aI1
aI2
aI3
aI4
aI5
aI6
asg23
(dp364
sg25
I1
sg26
(lp365
(I0
I1
S"{'nodeType': 'NounChunk'}"
p366
tp367
a(I0
I2
S"{'text': 'about', 'nodeType': 'Token'}"
p368
tp369
a(I0
I3
S"{'nodeType': 'Token', 'pos': 'PDT'}"
tp370
a(I1
I2
g368
tp371
a(I2
I4
S"{'nodeType': 'NounChunk', 'eventStatus': '1'}"
p372
tp373
a(I2
I5
S"{'nodeType': 'Token', 'pos': 'PDT'}"
tp374
a(I2
I6
S"{'nodeType': 'Token', 'pos': 'DT'}"
p375
tp376
a(I3
I1
g366
tp377
a(I3
I2
g368
tp378
a(I5
I4
g372
tp379
a(I5
I6
g375
tp380
a(I6
I4
S"{'nodeType': 'NounChunk'}"
tp381
a(I6
I6
S"{'nodeType': 'Token', 'pos': ['JJ', 'JJR', 'JJS']}"
tp382
a(I6
I6
S"{'nodeType': 'VerbChunk', 'pos': ['VGB', 'VBN']}"
tp383
a(I6
I6
S"{'pos': 'SYM'}"
tp384
a(I6
I7
S"{'nodeType': 'Token', 'pos': 'CD'}"
tp385
a(I7
I4
S"{'nodeType': 'NounChunk'}"
tp386
a(I7
I7
S"{'nodeType': 'Token', 'pos': 'CD'}"
tp387
asg86
I1
sg87
I1
sbag7
(g8
g9
NtRp388
(dp389
g12
S'aboutING_clause'
p390
sg14
(lp391
I5
asg16
I1
sg17
Nsg18
S"[_{_'_n_o_d_e_T_y_p_e_'_:_ _'_T_o_k_e_n_'_,_ _'_p_o_s_'_:_ _'_I_N_'_}_,_ _'_?_'_,_ _{_'_n_o_d_e_T_y_p_e_'_:_ _'_T_o_k_e_n_'_,_ _'_p_o_s_'_:_ _'_P_D_T_'_}_,_ _'_?_'_,_ _{_'_n_o_d_e_T_y_p_e_'_:_ _'_N_o_u_n_C_h_u_n_k_'_}_,_ _'_?_'_,_ _{_'_t_e_x_t_'_:_ _'_a_b_o_u_t_'_,_ _'_n_o_d_e_T_y_p_e_'_:_ _'_T_o_k_e_n_'_}_,_ _{_'_n_o_d_e_T_y_p_e_'_:_ _'_V_e_r_b_C_h_u_n_k_'_,_ _'_e_v_e_n_t_S_t_a_t_u_s_'_:_ _'_1_'_}_]"
p392
sg20
I0
sg21
(lp393
I0
aI1
aI2
aI3
aI4
aI5
asg23
(dp394
sg25
I1
sg26
(lp395
(I0
I1
S"{'nodeType': 'Token', 'pos': 'IN'}"
tp396
a(I0
I2
S"{'nodeType': 'NounChunk'}"
p397
tp398
a(I0
I3
S"{'nodeType': 'Token', 'pos': 'PDT'}"
p399
tp400
a(I0
I4
S"{'text': 'about', 'nodeType': 'Token'}"
p401
tp402
a(I1
I2
g397
tp403
a(I1
I4
g401
tp404
a(I1
I3
g399
tp405
a(I2
I4
g401
tp406
a(I3
I2
g397
tp407
a(I3
I4
g401
tp408
a(I4
I5
S"{'nodeType': 'VerbChunk', 'eventStatus': '1'}"
tp409
asg86
I1
sg87
I1
sbaa(lp410
S'EVIDENTIAL'
p411
ag120
atp412
ssS'talks'
p413
(dp414
g4
((lp415
(lp416
g358
aa(lp417
g225
atp418
ssS'fear'
p419
(dp420
g4
((lp421
(lp422
g10
ag287
aa(lp423
g127
ag147
aa(lp424
g89
ag201
aa(lp425
g225
ag225
ag120
atp426
ssS'decisions'
p427
(dp428
g4
((lp429
(lp430
g127
ag147
ag7
(g8
g9
NtRp431
(dp432
g12
S'toClause5'
p433
sg14
(lp434
I4
asg16
I1
sg17
Nsg18
S"[_{_'_n_o_d_e_T_y_p_e_'_:_ _'_T_o_k_e_n_'_,_ _'_p_o_s_'_:_ _'_I_N_'_}_,_ _{_'_n_o_d_e_T_y_p_e_'_:_ _'_T_o_k_e_n_'_,_ _'_p_o_s_'_:_ _'_P_D_T_'_}_,_ _'_?_'_,_ _{_'_n_o_d_e_T_y_p_e_'_:_ _'_N_o_u_n_C_h_u_n_k_'_}_,_ _{_'_n_o_d_e_T_y_p_e_'_:_ _'_T_o_k_e_n_'_,_ _'_p_o_s_'_:_ _'_I_N_'_}_,_ _'_?_'_,_ _{_'_n_o_d_e_T_y_p_e_'_:_ _'_T_o_k_e_n_'_,_ _'_p_o_s_'_:_ _'_P_D_T_'_}_,_ _'_?_'_,_ _{_'_n_o_d_e_T_y_p_e_'_:_ _'_N_o_u_n_C_h_u_n_k_'_}_,_ _'_?_'_,_ _'_(_'_,_ _{_'_t_e_n_s_e_'_:_ _'_I_N_F_I_N_I_T_I_V_E_'_,_ _'_n_o_d_e_T_y_p_e_'_:_ _'_V_e_r_b_C_h_u_n_k_'_}_,_ _'_|_'_,_ _{_'_t_e_x_t_'_:_ _'_t_o_'_,_ _'_p_o_s_'_:_ _'_T_O_'_}_,_ _{_'_p_o_s_'_:_ _'_U_H_'_}_,_ _'_?_'_,_ _'_(_'_,_ _{_'_n_o_d_e_T_y_p_e_'_:_ _'_V_e_r_b_C_h_u_n_k_'_,_ _'_e_v_e_n_t_S_t_a_t_u_s_'_:_ _'_1_'_}_,_ _'_|_'_,_ _{_'_n_o_d_e_T_y_p_e_'_:_ _'_N_o_u_n_C_h_u_n_k_'_,_ _'_e_v_e_n_t_S_t_a_t_u_s_'_:_ _'_1_'_}_,_ _'_)_'_,_ _'_)_'_]"
p435
sg20
I0
sg21
(lp436
I4
aI0
aI1
aI2
aI3
aI8
aI9
aI5
aI6
aI7
asg23
(dp437
sg25
I1
sg26
(lp438
(I0
I1
S"{'nodeType': 'Token', 'pos': 'IN'}"
tp439
a(I1
I2
S"{'nodeType': 'NounChunk'}"
p440
tp441
a(I1
I3
S"{'nodeType': 'Token', 'pos': 'PDT'}"
tp442
a(I2
I4
S"{'tense': 'INFINITIVE', 'nodeType': 'VerbChunk'}"
p443
tp444
a(I2
I5
S"{'nodeType': 'Token', 'pos': 'IN'}"
tp445
a(I2
I6
S"{'nodeType': 'Token', 'pos': 'PDT'}"
p446
tp447
a(I2
I7
S"{'nodeType': 'NounChunk'}"
p448
tp449
a(I2
I8
S"{'text': 'to', 'pos': 'TO'}"
p450
tp451
a(I3
I2
g440
tp452
a(I5
I7
g448
tp453
a(I5
I4
g443
tp454
a(I5
I6
g446
tp455
a(I5
I8
g450
tp456
a(I6
I7
g448
tp457
a(I6
I4
g443
tp458
a(I6
I8
g450
tp459
a(I7
I4
g443
tp460
a(I7
I8
g450
tp461
a(I8
I4
S"{'nodeType': 'NounChunk', 'eventStatus': '1'}"
tp462
a(I8
I4
S"{'nodeType': 'VerbChunk', 'eventStatus': '1'}"
tp463
a(I8
I9
S"{'pos': 'UH'}"
tp464
a(I9
I4
S"{'nodeType': 'NounChunk', 'eventStatus': '1'}"
tp465
a(I9
I4
S"{'nodeType': 'VerbChunk', 'eventStatus': '1'}"
tp466
asg86
I1
sg87
I1
sbaa(lp467
g10
ag287
aa(lp468
g7
(g8
g9
NtRp469
(dp470
g12
S'againstING_clause'
p471
sg14
(lp472
I5
asg16
I1
sg17
Nsg18
S"[_{_'_n_o_d_e_T_y_p_e_'_:_ _'_T_o_k_e_n_'_,_ _'_p_o_s_'_:_ _'_I_N_'_}_,_ _'_?_'_,_ _{_'_n_o_d_e_T_y_p_e_'_:_ _'_T_o_k_e_n_'_,_ _'_p_o_s_'_:_ _'_P_D_T_'_}_,_ _'_?_'_,_ _{_'_n_o_d_e_T_y_p_e_'_:_ _'_N_o_u_n_C_h_u_n_k_'_}_,_ _'_?_'_,_ _{_'_t_e_x_t_'_:_ _'_a_g_a_i_n_s_t_'_}_,_ _{_'_n_o_d_e_T_y_p_e_'_:_ _'_V_e_r_b_C_h_u_n_k_'_,_ _'_e_v_e_n_t_S_t_a_t_u_s_'_:_ _'_1_'_}_]"
p473
sg20
I0
sg21
(lp474
I0
aI1
aI2
aI3
aI4
aI5
asg23
(dp475
sg25
I1
sg26
(lp476
(I0
I1
S"{'nodeType': 'Token', 'pos': 'IN'}"
tp477
a(I0
I2
S"{'nodeType': 'NounChunk'}"
p478
tp479
a(I0
I3
S"{'nodeType': 'Token', 'pos': 'PDT'}"
p480
tp481
a(I0
I4
S"{'text': 'against'}"
p482
tp483
a(I1
I2
g478
tp484
a(I1
I3
g480
tp485
a(I1
I4
g482
tp486
a(I2
I4
g482
tp487
a(I3
I2
g478
tp488
a(I3
I4
g482
tp489
a(I4
I5
S"{'nodeType': 'VerbChunk', 'eventStatus': '1'}"
tp490
asg86
I1
sg87
I1
sbaa(lp491
g225
ag225
ag225
atp492
ssS'renunciations'
p493
(dp494
g4
((lp495
(lp496
g89
aa(lp497
S'COUNTER_FACTIVE'
p498
atp499
ssS'delays'
p500
(dp501
g4
((lp502
(lp503
g89
ag201
aa(lp504
g225
atp505
ssS'assertion'
p506
(dp507
g4
((lp508
(lp509
g10
ag231
aa(lp510
g411
atp511
ssS'charge'
p512
(dp513
g4
((lp514
(lp515
g7
(g8
g9
NtRp516
(dp517
g12
S'forING_clause'
p518
sg14
(lp519
I5
asg16
I1
sg17
Nsg18
S"[_{_'_n_o_d_e_T_y_p_e_'_:_ _'_T_o_k_e_n_'_,_ _'_p_o_s_'_:_ _'_I_N_'_}_,_ _'_?_'_,_ _{_'_n_o_d_e_T_y_p_e_'_:_ _'_T_o_k_e_n_'_,_ _'_p_o_s_'_:_ _'_P_D_T_'_}_,_ _'_?_'_,_ _{_'_n_o_d_e_T_y_p_e_'_:_ _'_N_o_u_n_C_h_u_n_k_'_}_,_ _'_?_'_,_ _{_'_t_e_x_t_'_:_ _'_f_o_r_'_}_,_ _{_'_n_o_d_e_T_y_p_e_'_:_ _'_V_e_r_b_C_h_u_n_k_'_,_ _'_e_v_e_n_t_S_t_a_t_u_s_'_:_ _'_1_'_}_]"
p520
sg20
I0
sg21
(lp521
I0
aI1
aI2
aI3
aI4
aI5
asg23
(dp522
sg25
I1
sg26
(lp523
(I0
I1
S"{'nodeType': 'Token', 'pos': 'IN'}"
tp524
a(I0
I2
S"{'nodeType': 'NounChunk'}"
p525
tp526
a(I0
I3
S"{'nodeType': 'Token', 'pos': 'PDT'}"
p527
tp528
a(I0
I4
S"{'text': 'for'}"
p529
tp530
a(I1
I2
g525
tp531
a(I1
I3
g527
tp532
a(I1
I4
g529
tp533
a(I2
I4
g529
tp534
a(I3
I2
g525
tp535
a(I3
I4
g529
tp536
a(I4
I5
S"{'nodeType': 'VerbChunk', 'eventStatus': '1'}"
tp537
asg86
I1
sg87
I1
sbaa(lp538
g201
ag89
aa(lp539
g10
ag287
aa(lp540
g120
ag225
ag225
atp541
ssS'avowal'
p542
(dp543
g4
((lp544
(lp545
g89
aa(lp546
g127
ag147
aa(lp547
g120
ag225
atp548
ssS'regrets'
p549
(dp550
g4
((lp551
(lp552
g7
(g8
g9
NtRp553
(dp554
g12
S'at_NPev'
p555
sg14
(lp556
I4
asg16
I1
sg17
Nsg18
S"[_{_'_n_o_d_e_T_y_p_e_'_:_ _'_T_o_k_e_n_'_,_ _'_p_o_s_'_:_ _'_P_D_T_'_}_,_ _'_?_'_,_ _{_'_n_o_d_e_T_y_p_e_'_:_ _'_N_o_u_n_C_h_u_n_k_'_}_,_ _'_?_'_,_ _{_'_t_e_x_t_'_:_ _'_a_t_'_,_ _'_n_o_d_e_T_y_p_e_'_:_ _'_T_o_k_e_n_'_}_,_ _{_'_n_o_d_e_T_y_p_e_'_:_ _'_T_o_k_e_n_'_,_ _'_p_o_s_'_:_ _'_P_D_T_'_}_,_ _'_?_'_,_ _'_(_'_,_ _{_'_n_o_d_e_T_y_p_e_'_:_ _'_N_o_u_n_C_h_u_n_k_'_,_ _'_e_v_e_n_t_S_t_a_t_u_s_'_:_ _'_1_'_}_,_ _'_|_'_,_ _{_'_n_o_d_e_T_y_p_e_'_:_ _'_T_o_k_e_n_'_,_ _'_p_o_s_'_:_ _'_D_T_'_}_,_ _'_(_'_,_ _{_'_n_o_d_e_T_y_p_e_'_:_ _'_T_o_k_e_n_'_,_ _'_p_o_s_'_:_ _[_'_J_J_'_,_ _'_J_J_R_'_,_ _'_J_J_S_'_]_}_,_ _'_|_'_,_ _{_'_n_o_d_e_T_y_p_e_'_:_ _'_V_e_r_b_C_h_u_n_k_'_,_ _'_p_o_s_'_:_ _[_'_V_G_B_'_,_ _'_V_B_N_'_]_}_,_ _'_|_'_,_ _'_|_'_,_ _{_'_p_o_s_'_:_ _'_S_Y_M_'_}_,_ _'_)_'_,_ _'_*_'_,_ _{_'_n_o_d_e_T_y_p_e_'_:_ _'_T_o_k_e_n_'_,_ _'_p_o_s_'_:_ _'_C_D_'_}_,_ _'_*_'_,_ _{_'_n_o_d_e_T_y_p_e_'_:_ _'_N_o_u_n_C_h_u_n_k_'_}_,_ _'_)_'_]"
p557
sg20
I0
sg21
(lp558
I7
aI0
aI1
aI2
aI3
aI4
aI5
aI6
asg23
(dp559
sg25
I1
sg26
(lp560
(I0
I1
S"{'nodeType': 'NounChunk'}"
p561
tp562
a(I0
I2
S"{'nodeType': 'Token', 'pos': 'PDT'}"
tp563
a(I0
I3
S"{'text': 'at', 'nodeType': 'Token'}"
p564
tp565
a(I1
I3
g564
tp566
a(I2
I1
g561
tp567
a(I2
I3
g564
tp568
a(I3
I4
S"{'nodeType': 'NounChunk', 'eventStatus': '1'}"
p569
tp570
a(I3
I5
S"{'nodeType': 'Token', 'pos': 'PDT'}"
tp571
a(I3
I6
S"{'nodeType': 'Token', 'pos': 'DT'}"
p572
tp573
a(I5
I4
g569
tp574
a(I5
I6
g572
tp575
a(I6
I4
S"{'nodeType': 'NounChunk'}"
tp576
a(I6
I6
S"{'nodeType': 'Token', 'pos': ['JJ', 'JJR', 'JJS']}"
tp577
a(I6
I6
S"{'nodeType': 'VerbChunk', 'pos': ['VGB', 'VBN']}"
tp578
a(I6
I6
S"{'pos': 'SYM'}"
tp579
a(I6
I7
S"{'nodeType': 'Token', 'pos': 'CD'}"
tp580
a(I7
I4
S"{'nodeType': 'NounChunk'}"
tp581
a(I7
I7
S"{'nodeType': 'Token', 'pos': 'CD'}"
tp582
asg86
I1
sg87
I1
sbag7
(g8
g9
NtRp583
(dp584
g12
S'for_NPev'
p585
sg14
(lp586
I4
asg16
I1
sg17
Nsg18
S"[_{_'_n_o_d_e_T_y_p_e_'_:_ _'_T_o_k_e_n_'_,_ _'_p_o_s_'_:_ _'_P_D_T_'_}_,_ _'_?_'_,_ _{_'_n_o_d_e_T_y_p_e_'_:_ _'_N_o_u_n_C_h_u_n_k_'_}_,_ _'_?_'_,_ _{_'_t_e_x_t_'_:_ _'_f_o_r_'_}_,_ _{_'_n_o_d_e_T_y_p_e_'_:_ _'_T_o_k_e_n_'_,_ _'_p_o_s_'_:_ _'_P_D_T_'_}_,_ _'_?_'_,_ _'_(_'_,_ _{_'_n_o_d_e_T_y_p_e_'_:_ _'_N_o_u_n_C_h_u_n_k_'_,_ _'_e_v_e_n_t_S_t_a_t_u_s_'_:_ _'_1_'_}_,_ _'_|_'_,_ _{_'_n_o_d_e_T_y_p_e_'_:_ _'_T_o_k_e_n_'_,_ _'_p_o_s_'_:_ _'_D_T_'_}_,_ _'_(_'_,_ _{_'_n_o_d_e_T_y_p_e_'_:_ _'_T_o_k_e_n_'_,_ _'_p_o_s_'_:_ _[_'_J_J_'_,_ _'_J_J_R_'_,_ _'_J_J_S_'_]_}_,_ _'_|_'_,_ _{_'_n_o_d_e_T_y_p_e_'_:_ _'_V_e_r_b_C_h_u_n_k_'_,_ _'_p_o_s_'_:_ _[_'_V_G_B_'_,_ _'_V_B_N_'_]_}_,_ _'_|_'_,_ _'_|_'_,_ _{_'_p_o_s_'_:_ _'_S_Y_M_'_}_,_ _'_)_'_,_ _'_*_'_,_ _{_'_n_o_d_e_T_y_p_e_'_:_ _'_T_o_k_e_n_'_,_ _'_p_o_s_'_:_ _'_C_D_'_}_,_ _'_*_'_,_ _{_'_n_o_d_e_T_y_p_e_'_:_ _'_N_o_u_n_C_h_u_n_k_'_}_,_ _'_)_'_]"
p587
sg20
I0
sg21
(lp588
I7
aI0
aI1
aI2
aI3
aI4
aI5
aI6
asg23
(dp589
sg25
I1
sg26
(lp590
(I0
I1
S"{'nodeType': 'NounChunk'}"
p591
tp592
a(I0
I2
S"{'nodeType': 'Token', 'pos': 'PDT'}"
tp593
a(I0
I3
S"{'text': 'for'}"
p594
tp595
a(I1
I3
g594
tp596
a(I2
I1
g591
tp597
a(I2
I3
g594
tp598
a(I3
I4
S"{'nodeType': 'NounChunk', 'eventStatus': '1'}"
p599
tp600
a(I3
I5
S"{'nodeType': 'Token', 'pos': 'PDT'}"
tp601
a(I3
I6
S"{'nodeType': 'Token', 'pos': 'DT'}"
p602
tp603
a(I5
I4
g599
tp604
a(I5
I6
g602
tp605
a(I6
I4
S"{'nodeType': 'NounChunk'}"
tp606
a(I6
I6
S"{'nodeType': 'Token', 'pos': ['JJ', 'JJR', 'JJS']}"
tp607
a(I6
I6
S"{'nodeType': 'VerbChunk', 'pos': ['VGB', 'VBN']}"
tp608
a(I6
I6
S"{'pos': 'SYM'}"
tp609
a(I6
I7
S"{'nodeType': 'Token', 'pos': 'CD'}"
tp610
a(I7
I4
S"{'nodeType': 'NounChunk'}"
tp611
a(I7
I7
S"{'nodeType': 'Token', 'pos': 'CD'}"
tp612
asg86
I1
sg87
I1
sbaa(lp613
g120
atp614
ssS'hope'
p615
(dp616
g4
((lp617
(lp618
g127
ag147
ag431
aa(lp619
g10
ag287
aa(lp620
g225
ag225
atp621
ssS'conjecture'
p622
(dp623
g4
((lp624
(lp625
g358
aa(lp626
g10
ag7
(g8
g9
NtRp627
(dp628
g12
S'thatClause_SIMPLE'
p629
sg14
(lp630
I1
asg16
I1
sg17
Nsg18
S"[_'_(_'_,_ _{_'_t_e_n_s_e_'_:_ _[_'_P_A_S_T_'_,_ _'_P_R_E_S_E_N_T_'_,_ _'_F_U_T_U_R_E_'_]_,_ _'_n_o_d_e_T_y_p_e_'_:_ _[_'_C_h_u_n_k_'_,_ _'_N_o_u_n_C_h_u_n_k_'_,_ _'_V_e_r_b_C_h_u_n_k_'_,_ _'_A_d_j_e_c_t_i_v_e_T_o_k_e_n_'_]_}_,_ _'_|_'_,_ _{_'_n_o_d_e_T_y_p_e_'_:_ _[_'_C_h_u_n_k_'_,_ _'_N_o_u_n_C_h_u_n_k_'_,_ _'_V_e_r_b_C_h_u_n_k_'_,_ _'_A_d_j_e_c_t_i_v_e_T_o_k_e_n_'_]_,_ _'_m_o_d_a_l_i_t_y_'_:_ _[_'_m_a_y_'_,_ _'_c_a_n_'_,_ _'_m_u_s_t_'_,_ _'_m_i_g_h_t_'_,_ _'_c_o_u_l_d_'_,_ _'_s_h_o_u_l_d_'_,_ _'_w_o_u_l_d_'_,_ _'_o_u_g_h_t_'_,_ _'_h_a_v_e_ _t_o_'_]_}_,_ _'_)_'_]"
p631
sg20
I0
sg21
(lp632
I0
aI1
asg23
(dp633
sg25
I1
sg26
(lp634
(I0
I1
S"{'nodeType': ['Chunk', 'NounChunk', 'VerbChunk', 'AdjectiveToken'], 'modality': ['may', 'can', 'must', 'might', 'could', 'should', 'would', 'ought', 'have to']}"
tp635
a(I0
I1
S"{'tense': ['PAST', 'PRESENT', 'FUTURE'], 'nodeType': ['Chunk', 'NounChunk', 'VerbChunk', 'AdjectiveToken']}"
tp636
asg86
I1
sg87
I1
sbag231
ag287
ag324
aa(lp637
g120
ag225
atp638
ssS'confirmation'
p639
(dp640
g4
((lp641
(lp642
g10
ag7
(g8
g9
NtRp643
(dp644
g12
S'thatClause_if'
p645
sg14
(lp646
I4
asg16
I1
sg17
Nsg18
S'[_{_\'_t_e_x_t_\'_:_ _(_\'_^_\'_,_ _[_\'_,_\'_]_)_}_,_ _{_\'_t_e_x_t_\'_:_ _(_\'_^_\'_,_ _[_\'_;_\'_,_ _\'_._\'_,_ _\'_!_\'_,_ _\'_?_\'_,_ _\'_._._._\'_,_ _\'_"_\'_,_ _\'_`_`_\'_]_)_,_ _\'_p_o_s_\'_:_ _(_\'_^_\'_,_ _[_\'_W_P_\'_,_ _\'_W_D_T_\'_,_ _\'_W_R_B_\'_,_ _\'_"_\'_,_ _"_\'_\'_"_,_ _\'_`_`_\'_]_)_}_,_ _\'_?_\'_,_ _{_\'_t_e_x_t_\'_:_ _(_\'_^_\'_,_ _[_\'_;_\'_,_ _\'_._\'_,_ _\'_!_\'_,_ _\'_?_\'_,_ _\'_._._._\'_,_ _\'_"_\'_,_ _\'_`_`_\'_]_)_,_ _\'_p_o_s_\'_:_ _(_\'_^_\'_,_ _[_\'_W_P_\'_,_ _\'_W_D_T_\'_,_ _\'_W_R_B_\'_,_ _\'_"_\'_,_ _"_\'_\'_"_,_ _\'_`_`_\'_]_)_}_,_ _\'_?_\'_,_ _{_\'_t_e_x_t_\'_:_ _[_\'_i_f_\'_,_ _\'_w_h_e_t_h_e_r_\'_]_,_ _\'_n_o_d_e_T_y_p_e_\'_:_ _\'_T_o_k_e_n_\'_}_,_ _{_\'_t_e_x_t_\'_:_ _(_\'_^_\'_,_ _[_\'_;_\'_,_ _\'_._\'_,_ _\'_!_\'_,_ _\'_?_\'_,_ _\'_._._._\'_,_ _\'_"_\'_,_ _\'_`_`_\'_]_)_,_ _\'_p_o_s_\'_:_ _(_\'_^_\'_,_ _[_\'_W_P_\'_,_ _\'_W_D_T_\'_,_ _\'_W_R_B_\'_,_ _\'_"_\'_,_ _"_\'_\'_"_,_ _\'_`_`_\'_]_)_}_,_ _\'_?_\'_,_ _{_\'_t_e_x_t_\'_:_ _(_\'_^_\'_,_ _[_\'_;_\'_,_ _\'_._\'_,_ _\'_!_\'_,_ _\'_?_\'_,_ _\'_._._._\'_,_ _\'_"_\'_,_ _\'_`_`_\'_]_)_,_ _\'_p_o_s_\'_:_ _(_\'_^_\'_,_ _[_\'_W_P_\'_,_ _\'_W_D_T_\'_,_ _\'_W_R_B_\'_,_ _\'_"_\'_,_ _"_\'_\'_"_,_ _\'_`_`_\'_]_)_}_,_ _\'_?_\'_,_ _{_\'_t_e_x_t_\'_:_ _(_\'_^_\'_,_ _[_\'_;_\'_,_ _\'_._\'_,_ _\'_!_\'_,_ _\'_?_\'_,_ _\'_._._._\'_,_ _\'_"_\'_,_ _\'_`_`_\'_]_)_,_ _\'_p_o_s_\'_:_ _(_\'_^_\'_,_ _[_\'_W_P_\'_,_ _\'_W_D_T_\'_,_ _\'_W_R_B_\'_,_ _\'_"_\'_,_ _"_\'_\'_"_,_ _\'_`_`_\'_]_)_}_,_ _\'_?_\'_,_ _{_\'_t_e_x_t_\'_:_ _(_\'_^_\'_,_ _[_\'_;_\'_,_ _\'_._\'_,_ _\'_!_\'_,_ _\'_?_\'_,_ _\'_._._._\'_,_ _\'_"_\'_,_ _\'_`_`_\'_]_)_,_ _\'_p_o_s_\'_:_ _(_\'_^_\'_,_ _[_\'_W_P_\'_,_ _\'_W_D_T_\'_,_ _\'_W_R_B_\'_,_ _\'_"_\'_,_ _"_\'_\'_"_,_ _\'_`_`_\'_]_)_}_,_ _\'_?_\'_,_ _{_\'_t_e_x_t_\'_:_ _(_\'_^_\'_,_ _[_\'_;_\'_,_ _\'_._\'_,_ _\'_!_\'_,_ _\'_?_\'_,_ _\'_._._._\'_,_ _\'_"_\'_,_ _\'_`_`_\'_]_)_,_ _\'_p_o_s_\'_:_ _(_\'_^_\'_,_ _[_\'_W_P_\'_,_ _\'_W_D_T_\'_,_ _\'_W_R_B_\'_,_ _\'_"_\'_,_ _"_\'_\'_"_,_ _\'_`_`_\'_]_)_}_,_ _\'_?_\'_,_ _{_\'_t_e_x_t_\'_:_ _(_\'_^_\'_,_ _[_\'_;_\'_,_ _\'_._\'_,_ _\'_!_\'_,_ _\'_?_\'_,_ _\'_._._._\'_,_ _\'_"_\'_,_ _\'_`_`_\'_]_)_,_ _\'_p_o_s_\'_:_ _(_\'_^_\'_,_ _[_\'_W_P_\'_,_ _\'_W_D_T_\'_,_ _\'_W_R_B_\'_,_ _\'_"_\'_,_ _"_\'_\'_"_,_ _\'_`_`_\'_]_)_}_,_ _\'_?_\'_,_ _\'_(_\'_,_ _{_\'_t_e_n_s_e_\'_:_ _[_\'_P_A_S_T_\'_,_ _\'_P_R_E_S_E_N_T_\'_,_ _\'_F_U_T_U_R_E_\'_]_,_ _\'_n_o_d_e_T_y_p_e_\'_:_ _[_\'_C_h_u_n_k_\'_,_ _\'_N_o_u_n_C_h_u_n_k_\'_,_ _\'_V_e_r_b_C_h_u_n_k_\'_,_ _\'_A_d_j_e_c_t_i_v_e_T_o_k_e_n_\'_]_}_,_ _\'_|_\'_,_ _{_\'_n_o_d_e_T_y_p_e_\'_:_ _[_\'_C_h_u_n_k_\'_,_ _\'_N_o_u_n_C_h_u_n_k_\'_,_ _\'_V_e_r_b_C_h_u_n_k_\'_,_ _\'_A_d_j_e_c_t_i_v_e_T_o_k_e_n_\'_]_,_ _\'_m_o_d_a_l_i_t_y_\'_:_ _[_\'_m_a_y_\'_,_ _\'_c_a_n_\'_,_ _\'_m_u_s_t_\'_,_ _\'_m_i_g_h_t_\'_,_ _\'_c_o_u_l_d_\'_,_ _\'_s_h_o_u_l_d_\'_,_ _\'_w_o_u_l_d_\'_,_ _\'_o_u_g_h_t_\'_,_ _\'_h_a_v_e_ _t_o_\'_]_}_,_ _\'_)_\'_]'
p647
sg20
I0
sg21
(lp648
I0
aI1
aI2
aI3
aI4
aI7
aI8
aI5
aI9
aI6
aI10
aI11
asg23
(dp649
sg25
I1
sg26
(lp650
(I0
I1
S"{'text': ('^', [','])}"
tp651
a(I1
I2
S"{'text': ['if', 'whether'], 'nodeType': 'Token'}"
p652
tp653
a(I1
I3
S'{\'text\': (\'^\', [\';\', \'.\', \'!\', \'?\', \'...\', \'"\', \'``\']), \'pos\': (\'^\', [\'WP\', \'WDT\', \'WRB\', \'"\', "\'\'", \'``\'])}'
tp654
a(I2
I4
S"{'nodeType': ['Chunk', 'NounChunk', 'VerbChunk', 'AdjectiveToken'], 'modality': ['may', 'can', 'must', 'might', 'could', 'should', 'would', 'ought', 'have to']}"
tp655
a(I2
I4
S"{'tense': ['PAST', 'PRESENT', 'FUTURE'], 'nodeType': ['Chunk', 'NounChunk', 'VerbChunk', 'AdjectiveToken']}"
tp656
a(I2
I5
S'{\'text\': (\'^\', [\';\', \'.\', \'!\', \'?\', \'...\', \'"\', \'``\']), \'pos\': (\'^\', [\'WP\', \'WDT\', \'WRB\', \'"\', "\'\'", \'``\'])}'
tp657
a(I3
I2
g652
tp658
a(I3
I6
S'{\'text\': (\'^\', [\';\', \'.\', \'!\', \'?\', \'...\', \'"\', \'``\']), \'pos\': (\'^\', [\'WP\', \'WDT\', \'WRB\', \'"\', "\'\'", \'``\'])}'
tp659
a(I5
I4
S"{'nodeType': ['Chunk', 'NounChunk', 'VerbChunk', 'AdjectiveToken'], 'modality': ['may', 'can', 'must', 'might', 'could', 'should', 'would', 'ought', 'have to']}"
tp660
a(I5
I4
S"{'tense': ['PAST', 'PRESENT', 'FUTURE'], 'nodeType': ['Chunk', 'NounChunk', 'VerbChunk', 'AdjectiveToken']}"
tp661
a(I5
I7
S'{\'text\': (\'^\', [\';\', \'.\', \'!\', \'?\', \'...\', \'"\', \'``\']), \'pos\': (\'^\', [\'WP\', \'WDT\', \'WRB\', \'"\', "\'\'", \'``\'])}'
tp662
a(I6
I2
g652
tp663
a(I7
I4
S"{'nodeType': ['Chunk', 'NounChunk', 'VerbChunk', 'AdjectiveToken'], 'modality': ['may', 'can', 'must', 'might', 'could', 'should', 'would', 'ought', 'have to']}"
tp664
a(I7
I4
S"{'tense': ['PAST', 'PRESENT', 'FUTURE'], 'nodeType': ['Chunk', 'NounChunk', 'VerbChunk', 'AdjectiveToken']}"
tp665
a(I7
I8
S'{\'text\': (\'^\', [\';\', \'.\', \'!\', \'?\', \'...\', \'"\', \'``\']), \'pos\': (\'^\', [\'WP\', \'WDT\', \'WRB\', \'"\', "\'\'", \'``\'])}'
tp666
a(I8
I4
S"{'nodeType': ['Chunk', 'NounChunk', 'VerbChunk', 'AdjectiveToken'], 'modality': ['may', 'can', 'must', 'might', 'could', 'should', 'would', 'ought', 'have to']}"
tp667
a(I8
I4
S"{'tense': ['PAST', 'PRESENT', 'FUTURE'], 'nodeType': ['Chunk', 'NounChunk', 'VerbChunk', 'AdjectiveToken']}"
tp668
a(I8
I9
S'{\'text\': (\'^\', [\';\', \'.\', \'!\', \'?\', \'...\', \'"\', \'``\']), \'pos\': (\'^\', [\'WP\', \'WDT\', \'WRB\', \'"\', "\'\'", \'``\'])}'
tp669
a(I9
I4
S"{'nodeType': ['Chunk', 'NounChunk', 'VerbChunk', 'AdjectiveToken'], 'modality': ['may', 'can', 'must', 'might', 'could', 'should', 'would', 'ought', 'have to']}"
tp670
a(I9
I4
S"{'tense': ['PAST', 'PRESENT', 'FUTURE'], 'nodeType': ['Chunk', 'NounChunk', 'VerbChunk', 'AdjectiveToken']}"
tp671
a(I9
I10
S'{\'text\': (\'^\', [\';\', \'.\', \'!\', \'?\', \'...\', \'"\', \'``\']), \'pos\': (\'^\', [\'WP\', \'WDT\', \'WRB\', \'"\', "\'\'", \'``\'])}'
tp672
a(I10
I4
S"{'nodeType': ['Chunk', 'NounChunk', 'VerbChunk', 'AdjectiveToken'], 'modality': ['may', 'can', 'must', 'might', 'could', 'should', 'would', 'ought', 'have to']}"
tp673
a(I10
I4
S"{'tense': ['PAST', 'PRESENT', 'FUTURE'], 'nodeType': ['Chunk', 'NounChunk', 'VerbChunk', 'AdjectiveToken']}"
tp674
a(I10
I11
S'{\'text\': (\'^\', [\';\', \'.\', \'!\', \'?\', \'...\', \'"\', \'``\']), \'pos\': (\'^\', [\'WP\', \'WDT\', \'WRB\', \'"\', "\'\'", \'``\'])}'
tp675
a(I11
I4
S"{'nodeType': ['Chunk', 'NounChunk', 'VerbChunk', 'AdjectiveToken'], 'modality': ['may', 'can', 'must', 'might', 'could', 'should', 'would', 'ought', 'have to']}"
tp676
a(I11
I4
S"{'tense': ['PAST', 'PRESENT', 'FUTURE'], 'nodeType': ['Chunk', 'NounChunk', 'VerbChunk', 'AdjectiveToken']}"
tp677
asg86
I1
sg87
I1
sbag7
(g8
g9
NtRp678
(dp679
g12
S'indirectInterrog'
p680
sg14
(lp681
I2
asg16
I1
sg17
Nsg18
S'[_{_\'_t_e_x_t_\'_:_ _[_\'_w_h_o_\'_,_ _\'_w_h_a_t_\'_,_ _\'_w_h_e_n_\'_,_ _\'_w_h_i_c_h_\'_,_ _\'_h_o_w_\'_,_ _\'_w_h_e_r_e_\'_,_ _\'_w_h_y_\'_]_,_ _\'_n_o_d_e_T_y_p_e_\'_:_ _\'_T_o_k_e_n_\'_}_,_ _{_\'_t_e_x_t_\'_:_ _(_\'_^_\'_,_ _[_\'_;_\'_,_ _\'_._\'_,_ _\'_!_\'_,_ _\'_?_\'_,_ _\'_._._._\'_,_ _\'_"_\'_,_ _\'_`_`_\'_]_)_,_ _\'_p_o_s_\'_:_ _(_\'_^_\'_,_ _[_\'_W_P_\'_,_ _\'_W_D_T_\'_,_ _\'_W_R_B_\'_,_ _\'_"_\'_,_ _"_\'_\'_"_,_ _\'_`_`_\'_]_)_}_,_ _\'_?_\'_,_ _{_\'_t_e_x_t_\'_:_ _(_\'_^_\'_,_ _[_\'_;_\'_,_ _\'_._\'_,_ _\'_!_\'_,_ _\'_?_\'_,_ _\'_._._._\'_,_ _\'_"_\'_,_ _\'_`_`_\'_]_)_,_ _\'_p_o_s_\'_:_ _(_\'_^_\'_,_ _[_\'_W_P_\'_,_ _\'_W_D_T_\'_,_ _\'_W_R_B_\'_,_ _\'_"_\'_,_ _"_\'_\'_"_,_ _\'_`_`_\'_]_)_}_,_ _\'_?_\'_,_ _{_\'_t_e_x_t_\'_:_ _(_\'_^_\'_,_ _[_\'_;_\'_,_ _\'_._\'_,_ _\'_!_\'_,_ _\'_?_\'_,_ _\'_._._._\'_,_ _\'_"_\'_,_ _\'_`_`_\'_]_)_,_ _\'_p_o_s_\'_:_ _(_\'_^_\'_,_ _[_\'_W_P_\'_,_ _\'_W_D_T_\'_,_ _\'_W_R_B_\'_,_ _\'_"_\'_,_ _"_\'_\'_"_,_ _\'_`_`_\'_]_)_}_,_ _\'_?_\'_,_ _{_\'_t_e_x_t_\'_:_ _(_\'_^_\'_,_ _[_\'_;_\'_,_ _\'_._\'_,_ _\'_!_\'_,_ _\'_?_\'_,_ _\'_._._._\'_,_ _\'_"_\'_,_ _\'_`_`_\'_]_)_,_ _\'_p_o_s_\'_:_ _(_\'_^_\'_,_ _[_\'_W_P_\'_,_ _\'_W_D_T_\'_,_ _\'_W_R_B_\'_,_ _\'_"_\'_,_ _"_\'_\'_"_,_ _\'_`_`_\'_]_)_}_,_ _\'_?_\'_,_ _{_\'_t_e_x_t_\'_:_ _(_\'_^_\'_,_ _[_\'_;_\'_,_ _\'_._\'_,_ _\'_!_\'_,_ _\'_?_\'_,_ _\'_._._._\'_,_ _\'_"_\'_,_ _\'_`_`_\'_]_)_,_ _\'_p_o_s_\'_:_ _(_\'_^_\'_,_ _[_\'_W_P_\'_,_ _\'_W_D_T_\'_,_ _\'_W_R_B_\'_,_ _\'_"_\'_,_ _"_\'_\'_"_,_ _\'_`_`_\'_]_)_}_,_ _\'_?_\'_,_ _{_\'_t_e_x_t_\'_:_ _(_\'_^_\'_,_ _[_\'_;_\'_,_ _\'_._\'_,_ _\'_!_\'_,_ _\'_?_\'_,_ _\'_._._._\'_,_ _\'_"_\'_,_ _\'_`_`_\'_]_)_,_ _\'_p_o_s_\'_:_ _(_\'_^_\'_,_ _[_\'_W_P_\'_,_ _\'_W_D_T_\'_,_ _\'_W_R_B_\'_,_ _\'_"_\'_,_ _"_\'_\'_"_,_ _\'_`_`_\'_]_)_}_,_ _\'_?_\'_,_ _\'_(_\'_,_ _{_\'_t_e_n_s_e_\'_:_ _[_\'_P_A_S_T_\'_,_ _\'_P_R_E_S_E_N_T_\'_,_ _\'_F_U_T_U_R_E_\'_]_,_ _\'_n_o_d_e_T_y_p_e_\'_:_ _[_\'_C_h_u_n_k_\'_,_ _\'_N_o_u_n_C_h_u_n_k_\'_,_ _\'_V_e_r_b_C_h_u_n_k_\'_,_ _\'_A_d_j_e_c_t_i_v_e_T_o_k_e_n_\'_]_}_,_ _\'_|_\'_,_ _{_\'_n_o_d_e_T_y_p_e_\'_:_ _[_\'_C_h_u_n_k_\'_,_ _\'_N_o_u_n_C_h_u_n_k_\'_,_ _\'_V_e_r_b_C_h_u_n_k_\'_,_ _\'_A_d_j_e_c_t_i_v_e_T_o_k_e_n_\'_]_,_ _\'_m_o_d_a_l_i_t_y_\'_:_ _[_\'_m_a_y_\'_,_ _\'_c_a_n_\'_,_ _\'_m_u_s_t_\'_,_ _\'_m_i_g_h_t_\'_,_ _\'_c_o_u_l_d_\'_,_ _\'_s_h_o_u_l_d_\'_,_ _\'_w_o_u_l_d_\'_,_ _\'_o_u_g_h_t_\'_,_ _\'_h_a_v_e_ _t_o_\'_]_}_,_ _\'_)_\'_]'
p682
sg20
I0
sg21
(lp683
I0
aI1
aI5
aI6
aI3
aI7
aI8
aI4
aI2
asg23
(dp684
sg25
I1
sg26
(lp685
(I0
I1
S"{'text': ['who', 'what', 'when', 'which', 'how', 'where', 'why'], 'nodeType': 'Token'}"
tp686
a(I1
I2
S"{'nodeType': ['Chunk', 'NounChunk', 'VerbChunk', 'AdjectiveToken'], 'modality': ['may', 'can', 'must', 'might', 'could', 'should', 'would', 'ought', 'have to']}"
tp687
a(I1
I2
S"{'tense': ['PAST', 'PRESENT', 'FUTURE'], 'nodeType': ['Chunk', 'NounChunk', 'VerbChunk', 'AdjectiveToken']}"
tp688
a(I1
I3
S'{\'text\': (\'^\', [\';\', \'.\', \'!\', \'?\', \'...\', \'"\', \'``\']), \'pos\': (\'^\', [\'WP\', \'WDT\', \'WRB\', \'"\', "\'\'", \'``\'])}'
tp689
a(I3
I2
S"{'nodeType': ['Chunk', 'NounChunk', 'VerbChunk', 'AdjectiveToken'], 'modality': ['may', 'can', 'must', 'might', 'could', 'should', 'would', 'ought', 'have to']}"
tp690
a(I3
I2
S"{'tense': ['PAST', 'PRESENT', 'FUTURE'], 'nodeType': ['Chunk', 'NounChunk', 'VerbChunk', 'AdjectiveToken']}"
tp691
a(I3
I4
S'{\'text\': (\'^\', [\';\', \'.\', \'!\', \'?\', \'...\', \'"\', \'``\']), \'pos\': (\'^\', [\'WP\', \'WDT\', \'WRB\', \'"\', "\'\'", \'``\'])}'
tp692
a(I4
I2
S"{'nodeType': ['Chunk', 'NounChunk', 'VerbChunk', 'AdjectiveToken'], 'modality': ['may', 'can', 'must', 'might', 'could', 'should', 'would', 'ought', 'have to']}"
tp693
a(I4
I2
S"{'tense': ['PAST', 'PRESENT', 'FUTURE'], 'nodeType': ['Chunk', 'NounChunk', 'VerbChunk', 'AdjectiveToken']}"
tp694
a(I4
I5
S'{\'text\': (\'^\', [\';\', \'.\', \'!\', \'?\', \'...\', \'"\', \'``\']), \'pos\': (\'^\', [\'WP\', \'WDT\', \'WRB\', \'"\', "\'\'", \'``\'])}'
tp695
a(I5
I2
S"{'nodeType': ['Chunk', 'NounChunk', 'VerbChunk', 'AdjectiveToken'], 'modality': ['may', 'can', 'must', 'might', 'could', 'should', 'would', 'ought', 'have to']}"
tp696
a(I5
I2
S"{'tense': ['PAST', 'PRESENT', 'FUTURE'], 'nodeType': ['Chunk', 'NounChunk', 'VerbChunk', 'AdjectiveToken']}"
tp697
a(I5
I6
S'{\'text\': (\'^\', [\';\', \'.\', \'!\', \'?\', \'...\', \'"\', \'``\']), \'pos\': (\'^\', [\'WP\', \'WDT\', \'WRB\', \'"\', "\'\'", \'``\'])}'
tp698
a(I6
I2
S"{'nodeType': ['Chunk', 'NounChunk', 'VerbChunk', 'AdjectiveToken'], 'modality': ['may', 'can', 'must', 'might', 'could', 'should', 'would', 'ought', 'have to']}"
tp699
a(I6
I2
S"{'tense': ['PAST', 'PRESENT', 'FUTURE'], 'nodeType': ['Chunk', 'NounChunk', 'VerbChunk', 'AdjectiveToken']}"
tp700
a(I6
I7
S'{\'text\': (\'^\', [\';\', \'.\', \'!\', \'?\', \'...\', \'"\', \'``\']), \'pos\': (\'^\', [\'WP\', \'WDT\', \'WRB\', \'"\', "\'\'", \'``\'])}'
tp701
a(I7
I2
S"{'nodeType': ['Chunk', 'NounChunk', 'VerbChunk', 'AdjectiveToken'], 'modality': ['may', 'can', 'must', 'might', 'could', 'should', 'would', 'ought', 'have to']}"
tp702
a(I7
I2
S"{'tense': ['PAST', 'PRESENT', 'FUTURE'], 'nodeType': ['Chunk', 'NounChunk', 'VerbChunk', 'AdjectiveToken']}"
tp703
a(I7
I8
S'{\'text\': (\'^\', [\';\', \'.\', \'!\', \'?\', \'...\', \'"\', \'``\']), \'pos\': (\'^\', [\'WP\', \'WDT\', \'WRB\', \'"\', "\'\'", \'``\'])}'
tp704
a(I8
I2
S"{'nodeType': ['Chunk', 'NounChunk', 'VerbChunk', 'AdjectiveToken'], 'modality': ['may', 'can', 'must', 'might', 'could', 'should', 'would', 'ought', 'have to']}"
tp705
a(I8
I2
S"{'tense': ['PAST', 'PRESENT', 'FUTURE'], 'nodeType': ['Chunk', 'NounChunk', 'VerbChunk', 'AdjectiveToken']}"
tp706
asg86
I1
sg87
I1
sbag231
ag287
ag324
aa(lp707
g89
aa(lp708
g411
ag411
atp709
ssS'appointment'
p710
(dp711
g4
((lp712
(lp713
g127
ag147
ag431
aa(lp714
g225
atp715
ssS'expectation'
p716
(dp717
g4
((lp718
(lp719
g127
ag147
aa(lp720
g10
ag287
aa(lp721
g358
ag388
ag89
ag201
aa(lp722
g225
ag225
ag225
atp723
ssS'prohibition'
p724
(dp725
g4
((lp726
(lp727
g7
(g8
g9
NtRp728
(dp729
g12
S'fromING_clause'
p730
sg14
(lp731
I5
asg16
I1
sg17
Nsg18
S"[_{_'_n_o_d_e_T_y_p_e_'_:_ _'_T_o_k_e_n_'_,_ _'_p_o_s_'_:_ _'_I_N_'_}_,_ _'_?_'_,_ _{_'_n_o_d_e_T_y_p_e_'_:_ _'_T_o_k_e_n_'_,_ _'_p_o_s_'_:_ _'_P_D_T_'_}_,_ _'_?_'_,_ _{_'_n_o_d_e_T_y_p_e_'_:_ _'_N_o_u_n_C_h_u_n_k_'_}_,_ _'_?_'_,_ _{_'_t_e_x_t_'_:_ _'_f_r_o_m_'_}_,_ _{_'_n_o_d_e_T_y_p_e_'_:_ _'_V_e_r_b_C_h_u_n_k_'_,_ _'_e_v_e_n_t_S_t_a_t_u_s_'_:_ _'_1_'_}_]"
p732
sg20
I0
sg21
(lp733
I0
aI1
aI2
aI3
aI4
aI5
asg23
(dp734
sg25
I1
sg26
(lp735
(I0
I1
S"{'nodeType': 'Token', 'pos': 'IN'}"
tp736
a(I0
I2
S"{'nodeType': 'NounChunk'}"
p737
tp738
a(I0
I3
S"{'nodeType': 'Token', 'pos': 'PDT'}"
p739
tp740
a(I0
I4
S"{'text': 'from'}"
p741
tp742
a(I1
I2
g737
tp743
a(I1
I3
g739
tp744
a(I1
I4
g741
tp745
a(I2
I4
g741
tp746
a(I3
I2
g737
tp747
a(I3
I4
g741
tp748
a(I4
I5
S"{'nodeType': 'VerbChunk', 'eventStatus': '1'}"
tp749
asg86
I1
sg87
I1
sbag7
(g8
g9
NtRp750
(dp751
g12
S'onING_clause'
p752
sg14
(lp753
I5
asg16
I1
sg17
Nsg18
S"[_{_'_n_o_d_e_T_y_p_e_'_:_ _'_T_o_k_e_n_'_,_ _'_p_o_s_'_:_ _'_I_N_'_}_,_ _'_?_'_,_ _{_'_n_o_d_e_T_y_p_e_'_:_ _'_T_o_k_e_n_'_,_ _'_p_o_s_'_:_ _'_P_D_T_'_}_,_ _'_?_'_,_ _{_'_n_o_d_e_T_y_p_e_'_:_ _'_N_o_u_n_C_h_u_n_k_'_}_,_ _'_?_'_,_ _{_'_t_e_x_t_'_:_ _'_o_n_'_}_,_ _{_'_n_o_d_e_T_y_p_e_'_:_ _'_V_e_r_b_C_h_u_n_k_'_,_ _'_e_v_e_n_t_S_t_a_t_u_s_'_:_ _'_1_'_}_]"
p754
sg20
I0
sg21
(lp755
I0
aI1
aI2
aI3
aI4
aI5
asg23
(dp756
sg25
I1
sg26
(lp757
(I0
I1
S"{'nodeType': 'Token', 'pos': 'IN'}"
tp758
a(I0
I2
S"{'nodeType': 'NounChunk'}"
p759
tp760
a(I0
I3
S"{'nodeType': 'Token', 'pos': 'PDT'}"
p761
tp762
a(I0
I4
S"{'text': 'on'}"
p763
tp764
a(I1
I2
g759
tp765
a(I1
I3
g761
tp766
a(I1
I4
g763
tp767
a(I2
I4
g763
tp768
a(I3
I2
g759
tp769
a(I3
I4
g763
tp770
a(I4
I5
S"{'nodeType': 'VerbChunk', 'eventStatus': '1'}"
tp771
asg86
I1
sg87
I1
sbag469
aa(lp772
g225
atp773
ssS'wishes'
p774
(dp775
g4
((lp776
(lp777
g10
ag287
aa(lp778
g127
ag147
aa(lp779
g583
aa(lp780
g7
(g8
g9
NtRp781
(dp782
g12
S'thatClausePAST_that'
p783
sg14
(lp784
I7
asg16
I1
sg17
Nsg18
S'[_\'_(_\'_,_ _{_\'_t_e_x_t_\'_:_ _(_\'_^_\'_,_ _[_\'_,_\'_]_)_}_,_ _\'_?_\'_,_ _{_\'_t_e_x_t_\'_:_ _(_\'_^_\'_,_ _[_\'_;_\'_,_ _\'_._\'_,_ _\'_!_\'_,_ _\'_?_\'_,_ _\'_._._._\'_,_ _\'_"_\'_,_ _\'_`_`_\'_]_)_,_ _\'_p_o_s_\'_:_ _(_\'_^_\'_,_ _[_\'_W_P_\'_,_ _\'_W_D_T_\'_,_ _\'_W_R_B_\'_,_ _\'_"_\'_,_ _"_\'_\'_"_,_ _\'_`_`_\'_]_)_}_,_ _\'_?_\'_,_ _{_\'_t_e_x_t_\'_:_ _(_\'_^_\'_,_ _[_\'_;_\'_,_ _\'_._\'_,_ _\'_!_\'_,_ _\'_?_\'_,_ _\'_._._._\'_,_ _\'_"_\'_,_ _\'_`_`_\'_]_)_,_ _\'_p_o_s_\'_:_ _(_\'_^_\'_,_ _[_\'_W_P_\'_,_ _\'_W_D_T_\'_,_ _\'_W_R_B_\'_,_ _\'_"_\'_,_ _"_\'_\'_"_,_ _\'_`_`_\'_]_)_}_,_ _\'_?_\'_,_ _\'_|_\'_,_ _{_\'_t_e_x_t_\'_:_ _\'_,_\'_}_,_ _\'_)_\'_,_ _{_\'_t_e_x_t_\'_:_ _[_\'_t_h_a_t_\'_,_ _\'_i_f_\'_,_ _\'_w_h_e_t_h_e_r_\'_]_,_ _\'_n_o_d_e_T_y_p_e_\'_:_ _\'_T_o_k_e_n_\'_,_ _\'_p_o_s_\'_:_ _\'_I_N_\'_}_,_ _{_\'_t_e_x_t_\'_:_ _(_\'_^_\'_,_ _[_\'_;_\'_,_ _\'_._\'_,_ _\'_!_\'_,_ _\'_?_\'_,_ _\'_._._._\'_,_ _\'_"_\'_,_ _\'_`_`_\'_]_)_,_ _\'_p_o_s_\'_:_ _(_\'_^_\'_,_ _[_\'_W_P_\'_,_ _\'_W_D_T_\'_,_ _\'_W_R_B_\'_,_ _\'_"_\'_,_ _"_\'_\'_"_,_ _\'_`_`_\'_]_)_}_,_ _\'_?_\'_,_ _\'_(_\'_,_ _\'_(_\'_,_ _{_\'_n_o_d_e_T_y_p_e_\'_:_ _\'_N_o_u_n_C_h_u_n_k_\'_}_,_ _\'_|_\'_,_ _{_\'_n_o_d_e_T_y_p_e_\'_:_ _\'_T_o_k_e_n_\'_,_ _\'_p_o_s_\'_:_ _\'_I_N_\'_}_,_ _\'_|_\'_,_ _{_\'_n_o_d_e_T_y_p_e_\'_:_ _\'_T_o_k_e_n_\'_,_ _\'_p_o_s_\'_:_ _[_\'_J_J_\'_,_ _\'_J_J_R_\'_,_ _\'_J_J_S_\'_,_ _\'_D_T_\'_,_ _\'_P_D_T_\'_,_ _\'_P_O_S_\'_,_ _\'_C_D_\'_,_ _\'_S_Y_M_\'_]_}_,_ _\'_)_\'_,_ _\'_+_\'_,_ _{_\'_t_e_n_s_e_\'_:_ _\'_P_A_S_T_\'_,_ _\'_e_v_e_n_t_S_t_a_t_u_s_\'_:_ _\'_1_\'_}_,_ _\'_|_\'_,_ _{_\'_t_e_x_t_\'_:_ _(_\'_^_\'_,_ _[_\'_;_\'_,_ _\'_._\'_,_ _\'_!_\'_,_ _\'_?_\'_,_ _\'_._._._\'_,_ _\'_"_\'_,_ _\'_`_`_\'_]_)_,_ _\'_p_o_s_\'_:_ _(_\'_^_\'_,_ _[_\'_W_P_\'_,_ _\'_W_D_T_\'_,_ _\'_W_R_B_\'_,_ _\'_"_\'_,_ _"_\'_\'_"_,_ _\'_`_`_\'_]_)_}_,_ _\'_?_\'_,_ _{_\'_t_e_x_t_\'_:_ _(_\'_^_\'_,_ _[_\'_;_\'_,_ _\'_._\'_,_ _\'_!_\'_,_ _\'_?_\'_,_ _\'_._._._\'_,_ _\'_"_\'_,_ _\'_`_`_\'_]_)_,_ _\'_p_o_s_\'_:_ _(_\'_^_\'_,_ _[_\'_W_P_\'_,_ _\'_W_D_T_\'_,_ _\'_W_R_B_\'_,_ _\'_"_\'_,_ _"_\'_\'_"_,_ _\'_`_`_\'_]_)_}_,_ _\'_?_\'_,_ _{_\'_t_e_x_t_\'_:_ _(_\'_^_\'_,_ _[_\'_;_\'_,_ _\'_._\'_,_ _\'_!_\'_,_ _\'_?_\'_,_ _\'_._._._\'_,_ _\'_"_\'_,_ _\'_`_`_\'_]_)_,_ _\'_p_o_s_\'_:_ _(_\'_^_\'_,_ _[_\'_W_P_\'_,_ _\'_W_D_T_\'_,_ _\'_W_R_B_\'_,_ _\'_"_\'_,_ _"_\'_\'_"_,_ _\'_`_`_\'_]_)_}_,_ _\'_?_\'_,_ _{_\'_t_e_x_t_\'_:_ _(_\'_^_\'_,_ _[_\'_;_\'_,_ _\'_._\'_,_ _\'_!_\'_,_ _\'_?_\'_,_ _\'_._._._\'_,_ _\'_"_\'_,_ _\'_`_`_\'_]_)_,_ _\'_p_o_s_\'_:_ _(_\'_^_\'_,_ _[_\'_W_P_\'_,_ _\'_W_D_T_\'_,_ _\'_W_R_B_\'_,_ _\'_"_\'_,_ _"_\'_\'_"_,_ _\'_`_`_\'_]_)_}_,_ _\'_?_\'_,_ _{_\'_t_e_x_t_\'_:_ _(_\'_^_\'_,_ _[_\'_;_\'_,_ _\'_._\'_,_ _\'_!_\'_,_ _\'_?_\'_,_ _\'_._._._\'_,_ _\'_"_\'_,_ _\'_`_`_\'_]_)_,_ _\'_p_o_s_\'_:_ _(_\'_^_\'_,_ _[_\'_W_P_\'_,_ _\'_W_D_T_\'_,_ _\'_W_R_B_\'_,_ _\'_"_\'_,_ _"_\'_\'_"_,_ _\'_`_`_\'_]_)_}_,_ _\'_?_\'_,_ _{_\'_t_e_n_s_e_\'_:_ _\'_P_A_S_T_\'_,_ _\'_e_v_e_n_t_S_t_a_t_u_s_\'_:_ _\'_1_\'_}_,_ _\'_)_\'_]'
p785
sg20
I0
sg21
(lp786
I9
aI0
aI1
aI7
aI2
aI3
aI6
aI10
aI4
aI11
aI12
aI8
aI5
asg23
(dp787
sg25
I1
sg26
(lp788
(I0
I1
S"{'text': ('^', [','])}"
tp789
a(I0
I2
S"{'text': ['that', 'if', 'whether'], 'nodeType': 'Token', 'pos': 'IN'}"
p790
tp791
a(I0
I3
S"{'text': ','}"
tp792
a(I0
I4
S'{\'text\': (\'^\', [\';\', \'.\', \'!\', \'?\', \'...\', \'"\', \'``\']), \'pos\': (\'^\', [\'WP\', \'WDT\', \'WRB\', \'"\', "\'\'", \'``\'])}'
p793
tp794
a(I1
I2
g790
tp795
a(I1
I4
g793
tp796
a(I2
I5
S"{'nodeType': 'NounChunk'}"
tp797
a(I2
I5
S"{'nodeType': 'Token', 'pos': 'IN'}"
tp798
a(I2
I5
S"{'nodeType': 'Token', 'pos': ['JJ', 'JJR', 'JJS', 'DT', 'PDT', 'POS', 'CD', 'SYM']}"
tp799
a(I2
I6
S'{\'text\': (\'^\', [\';\', \'.\', \'!\', \'?\', \'...\', \'"\', \'``\']), \'pos\': (\'^\', [\'WP\', \'WDT\', \'WRB\', \'"\', "\'\'", \'``\'])}'
tp800
a(I2
I7
S"{'tense': 'PAST', 'eventStatus': '1'}"
p801
tp802
a(I3
I2
g790
tp803
a(I4
I2
g790
tp804
a(I4
I3
S'{\'text\': (\'^\', [\';\', \'.\', \'!\', \'?\', \'...\', \'"\', \'``\']), \'pos\': (\'^\', [\'WP\', \'WDT\', \'WRB\', \'"\', "\'\'", \'``\'])}'
tp805
a(I5
I5
S"{'nodeType': 'NounChunk'}"
tp806
a(I5
I5
S"{'nodeType': 'Token', 'pos': 'IN'}"
tp807
a(I5
I5
S"{'nodeType': 'Token', 'pos': ['JJ', 'JJR', 'JJS', 'DT', 'PDT', 'POS', 'CD', 'SYM']}"
tp808
a(I5
I7
S"{'tense': 'PAST', 'eventStatus': '1'}"
tp809
a(I6
I5
S"{'nodeType': 'NounChunk'}"
tp810
a(I6
I5
S"{'nodeType': 'Token', 'pos': 'IN'}"
tp811
a(I6
I5
S"{'nodeType': 'Token', 'pos': ['JJ', 'JJR', 'JJS', 'DT', 'PDT', 'POS', 'CD', 'SYM']}"
tp812
a(I6
I8
S'{\'text\': (\'^\', [\';\', \'.\', \'!\', \'?\', \'...\', \'"\', \'``\']), \'pos\': (\'^\', [\'WP\', \'WDT\', \'WRB\', \'"\', "\'\'", \'``\'])}'
tp813
a(I6
I7
g801
tp814
a(I8
I9
S'{\'text\': (\'^\', [\';\', \'.\', \'!\', \'?\', \'...\', \'"\', \'``\']), \'pos\': (\'^\', [\'WP\', \'WDT\', \'WRB\', \'"\', "\'\'", \'``\'])}'
tp815
a(I8
I7
g801
tp816
a(I9
I10
S'{\'text\': (\'^\', [\';\', \'.\', \'!\', \'?\', \'...\', \'"\', \'``\']), \'pos\': (\'^\', [\'WP\', \'WDT\', \'WRB\', \'"\', "\'\'", \'``\'])}'
tp817
a(I9
I7
g801
tp818
a(I10
I11
S'{\'text\': (\'^\', [\';\', \'.\', \'!\', \'?\', \'...\', \'"\', \'``\']), \'pos\': (\'^\', [\'WP\', \'WDT\', \'WRB\', \'"\', "\'\'", \'``\'])}'
tp819
a(I10
I7
g801
tp820
a(I11
I7
g801
tp821
a(I11
I12
S'{\'text\': (\'^\', [\';\', \'.\', \'!\', \'?\', \'...\', \'"\', \'``\']), \'pos\': (\'^\', [\'WP\', \'WDT\', \'WRB\', \'"\', "\'\'", \'``\'])}'
tp822
a(I12
I7
g801
tp823
asg86
I1
sg87
I1
sbag7
(g8
g9
NtRp824
(dp825
g12
S'thatClausePAST_NOT_that'
p826
sg14
(lp827
I3
asg16
I1
sg17
Nsg18
S'[_{_\'_t_e_x_t_\'_:_ _(_\'_^_\'_,_ _[_\'_,_\'_]_)_}_,_ _{_\'_t_e_x_t_\'_:_ _(_\'_^_\'_,_ _[_\'_;_\'_,_ _\'_._\'_,_ _\'_!_\'_,_ _\'_?_\'_,_ _\'_._._._\'_,_ _\'_"_\'_,_ _\'_`_`_\'_]_)_,_ _\'_p_o_s_\'_:_ _(_\'_^_\'_,_ _[_\'_W_P_\'_,_ _\'_W_D_T_\'_,_ _\'_W_R_B_\'_,_ _\'_"_\'_,_ _"_\'_\'_"_,_ _\'_`_`_\'_]_)_}_,_ _\'_?_\'_,_ _{_\'_t_e_x_t_\'_:_ _(_\'_^_\'_,_ _[_\'_;_\'_,_ _\'_._\'_,_ _\'_!_\'_,_ _\'_?_\'_,_ _\'_._._._\'_,_ _\'_"_\'_,_ _\'_`_`_\'_]_)_,_ _\'_p_o_s_\'_:_ _(_\'_^_\'_,_ _[_\'_W_P_\'_,_ _\'_W_D_T_\'_,_ _\'_W_R_B_\'_,_ _\'_"_\'_,_ _"_\'_\'_"_,_ _\'_`_`_\'_]_)_}_,_ _\'_?_\'_,_ _{_\'_t_e_x_t_\'_:_ _(_\'_^_\'_,_ _[_\'_;_\'_,_ _\'_._\'_,_ _\'_!_\'_,_ _\'_?_\'_,_ _\'_._._._\'_,_ _\'_"_\'_,_ _\'_`_`_\'_]_)_,_ _\'_p_o_s_\'_:_ _(_\'_^_\'_,_ _[_\'_W_P_\'_,_ _\'_W_D_T_\'_,_ _\'_W_R_B_\'_,_ _\'_"_\'_,_ _"_\'_\'_"_,_ _\'_`_`_\'_]_)_}_,_ _\'_?_\'_,_ _{_\'_t_e_x_t_\'_:_ _(_\'_^_\'_,_ _[_\'_;_\'_,_ _\'_._\'_,_ _\'_!_\'_,_ _\'_?_\'_,_ _\'_._._._\'_,_ _\'_"_\'_,_ _\'_`_`_\'_]_)_,_ _\'_p_o_s_\'_:_ _(_\'_^_\'_,_ _[_\'_W_P_\'_,_ _\'_W_D_T_\'_,_ _\'_W_R_B_\'_,_ _\'_"_\'_,_ _"_\'_\'_"_,_ _\'_`_`_\'_]_)_}_,_ _\'_?_\'_,_ _{_\'_t_e_x_t_\'_:_ _(_\'_^_\'_,_ _[_\'_;_\'_,_ _\'_._\'_,_ _\'_!_\'_,_ _\'_?_\'_,_ _\'_._._._\'_,_ _\'_"_\'_,_ _\'_`_`_\'_]_)_,_ _\'_p_o_s_\'_:_ _(_\'_^_\'_,_ _[_\'_W_P_\'_,_ _\'_W_D_T_\'_,_ _\'_W_R_B_\'_,_ _\'_"_\'_,_ _"_\'_\'_"_,_ _\'_`_`_\'_]_)_}_,_ _\'_?_\'_,_ _{_\'_t_e_x_t_\'_:_ _(_\'_^_\'_,_ _[_\'_;_\'_,_ _\'_._\'_,_ _\'_!_\'_,_ _\'_?_\'_,_ _\'_._._._\'_,_ _\'_"_\'_,_ _\'_`_`_\'_]_)_,_ _\'_p_o_s_\'_:_ _(_\'_^_\'_,_ _[_\'_W_P_\'_,_ _\'_W_D_T_\'_,_ _\'_W_R_B_\'_,_ _\'_"_\'_,_ _"_\'_\'_"_,_ _\'_`_`_\'_]_)_}_,_ _\'_?_\'_,_ _{_\'_t_e_n_s_e_\'_:_ _\'_P_A_S_T_\'_,_ _\'_e_v_e_n_t_S_t_a_t_u_s_\'_:_ _\'_1_\'_}_]'
p828
sg20
I0
sg21
(lp829
I0
aI1
aI2
aI8
aI3
aI4
aI5
aI6
aI7
asg23
(dp830
sg25
I1
sg26
(lp831
(I0
I1
S"{'text': ('^', [','])}"
tp832
a(I1
I2
S'{\'text\': (\'^\', [\';\', \'.\', \'!\', \'?\', \'...\', \'"\', \'``\']), \'pos\': (\'^\', [\'WP\', \'WDT\', \'WRB\', \'"\', "\'\'", \'``\'])}'
tp833
a(I1
I3
S"{'tense': 'PAST', 'eventStatus': '1'}"
p834
tp835
a(I2
I4
S'{\'text\': (\'^\', [\';\', \'.\', \'!\', \'?\', \'...\', \'"\', \'``\']), \'pos\': (\'^\', [\'WP\', \'WDT\', \'WRB\', \'"\', "\'\'", \'``\'])}'
tp836
a(I2
I3
g834
tp837
a(I4
I5
S'{\'text\': (\'^\', [\';\', \'.\', \'!\', \'?\', \'...\', \'"\', \'``\']), \'pos\': (\'^\', [\'WP\', \'WDT\', \'WRB\', \'"\', "\'\'", \'``\'])}'
tp838
a(I4
I3
g834
tp839
a(I5
I6
S'{\'text\': (\'^\', [\';\', \'.\', \'!\', \'?\', \'...\', \'"\', \'``\']), \'pos\': (\'^\', [\'WP\', \'WDT\', \'WRB\', \'"\', "\'\'", \'``\'])}'
tp840
a(I5
I3
g834
tp841
a(I6
I7
S'{\'text\': (\'^\', [\';\', \'.\', \'!\', \'?\', \'...\', \'"\', \'``\']), \'pos\': (\'^\', [\'WP\', \'WDT\', \'WRB\', \'"\', "\'\'", \'``\'])}'
tp842
a(I6
I3
g834
tp843
a(I7
I8
S'{\'text\': (\'^\', [\';\', \'.\', \'!\', \'?\', \'...\', \'"\', \'``\']), \'pos\': (\'^\', [\'WP\', \'WDT\', \'WRB\', \'"\', "\'\'", \'``\'])}'
tp844
a(I7
I3
g834
tp845
a(I8
I3
g834
tp846
asg86
I1
sg87
I1
sbaa(lp847
g7
(g8
g9
NtRp848
(dp849
g12
S'thatClausePERFECTIVE_NEG_that'
p850
sg14
(lp851
I6
asg16
I1
sg17
Nsg18
S'[_\'_(_\'_,_ _{_\'_t_e_x_t_\'_:_ _(_\'_^_\'_,_ _[_\'_,_\'_]_)_}_,_ _\'_?_\'_,_ _{_\'_t_e_x_t_\'_:_ _(_\'_^_\'_,_ _[_\'_;_\'_,_ _\'_._\'_,_ _\'_!_\'_,_ _\'_?_\'_,_ _\'_._._._\'_,_ _\'_"_\'_,_ _\'_`_`_\'_]_)_,_ _\'_p_o_s_\'_:_ _(_\'_^_\'_,_ _[_\'_W_P_\'_,_ _\'_W_D_T_\'_,_ _\'_W_R_B_\'_,_ _\'_"_\'_,_ _"_\'_\'_"_,_ _\'_`_`_\'_]_)_}_,_ _\'_?_\'_,_ _{_\'_t_e_x_t_\'_:_ _(_\'_^_\'_,_ _[_\'_;_\'_,_ _\'_._\'_,_ _\'_!_\'_,_ _\'_?_\'_,_ _\'_._._._\'_,_ _\'_"_\'_,_ _\'_`_`_\'_]_)_,_ _\'_p_o_s_\'_:_ _(_\'_^_\'_,_ _[_\'_W_P_\'_,_ _\'_W_D_T_\'_,_ _\'_W_R_B_\'_,_ _\'_"_\'_,_ _"_\'_\'_"_,_ _\'_`_`_\'_]_)_}_,_ _\'_?_\'_,_ _\'_|_\'_,_ _{_\'_t_e_x_t_\'_:_ _\'_,_\'_}_,_ _\'_)_\'_,_ _{_\'_t_e_x_t_\'_:_ _[_\'_t_h_a_t_\'_,_ _\'_i_f_\'_,_ _\'_w_h_e_t_h_e_r_\'_]_,_ _\'_n_o_d_e_T_y_p_e_\'_:_ _\'_T_o_k_e_n_\'_,_ _\'_p_o_s_\'_:_ _\'_I_N_\'_}_,_ _{_\'_t_e_x_t_\'_:_ _(_\'_^_\'_,_ _[_\'_;_\'_,_ _\'_._\'_,_ _\'_!_\'_,_ _\'_?_\'_,_ _\'_._._._\'_,_ _\'_"_\'_,_ _\'_`_`_\'_]_)_,_ _\'_p_o_s_\'_:_ _(_\'_^_\'_,_ _[_\'_W_P_\'_,_ _\'_W_D_T_\'_,_ _\'_W_R_B_\'_,_ _\'_"_\'_,_ _"_\'_\'_"_,_ _\'_`_`_\'_]_)_}_,_ _\'_?_\'_,_ _\'_(_\'_,_ _\'_(_\'_,_ _{_\'_n_o_d_e_T_y_p_e_\'_:_ _\'_N_o_u_n_C_h_u_n_k_\'_}_,_ _\'_|_\'_,_ _{_\'_n_o_d_e_T_y_p_e_\'_:_ _\'_T_o_k_e_n_\'_,_ _\'_p_o_s_\'_:_ _\'_I_N_\'_}_,_ _\'_|_\'_,_ _{_\'_n_o_d_e_T_y_p_e_\'_:_ _\'_T_o_k_e_n_\'_,_ _\'_p_o_s_\'_:_ _[_\'_J_J_\'_,_ _\'_J_J_R_\'_,_ _\'_J_J_S_\'_,_ _\'_D_T_\'_,_ _\'_P_D_T_\'_,_ _\'_P_O_S_\'_,_ _\'_C_D_\'_,_ _\'_S_Y_M_\'_]_}_,_ _\'_)_\'_,_ _\'_+_\'_,_ _{_\'_p_o_l_a_r_i_t_y_\'_:_ _\'_N_E_G_\'_,_ _\'_e_v_e_n_t_S_t_a_t_u_s_\'_:_ _\'_1_\'_,_ _\'_a_s_p_e_c_t_\'_:_ _\'_P_E_R_F_E_C_T_I_V_E_\'_}_,_ _\'_|_\'_,_ _{_\'_t_e_x_t_\'_:_ _(_\'_^_\'_,_ _[_\'_;_\'_,_ _\'_._\'_,_ _\'_!_\'_,_ _\'_?_\'_,_ _\'_._._._\'_,_ _\'_"_\'_,_ _\'_`_`_\'_]_)_,_ _\'_p_o_s_\'_:_ _(_\'_^_\'_,_ _[_\'_W_P_\'_,_ _\'_W_D_T_\'_,_ _\'_W_R_B_\'_,_ _\'_"_\'_,_ _"_\'_\'_"_,_ _\'_`_`_\'_]_)_}_,_ _\'_?_\'_,_ _{_\'_t_e_x_t_\'_:_ _(_\'_^_\'_,_ _[_\'_;_\'_,_ _\'_._\'_,_ _\'_!_\'_,_ _\'_?_\'_,_ _\'_._._._\'_,_ _\'_"_\'_,_ _\'_`_`_\'_]_)_,_ _\'_p_o_s_\'_:_ _(_\'_^_\'_,_ _[_\'_W_P_\'_,_ _\'_W_D_T_\'_,_ _\'_W_R_B_\'_,_ _\'_"_\'_,_ _"_\'_\'_"_,_ _\'_`_`_\'_]_)_}_,_ _\'_?_\'_,_ _{_\'_t_e_x_t_\'_:_ _(_\'_^_\'_,_ _[_\'_;_\'_,_ _\'_._\'_,_ _\'_!_\'_,_ _\'_?_\'_,_ _\'_._._._\'_,_ _\'_"_\'_,_ _\'_`_`_\'_]_)_,_ _\'_p_o_s_\'_:_ _(_\'_^_\'_,_ _[_\'_W_P_\'_,_ _\'_W_D_T_\'_,_ _\'_W_R_B_\'_,_ _\'_"_\'_,_ _"_\'_\'_"_,_ _\'_`_`_\'_]_)_}_,_ _\'_?_\'_,_ _{_\'_t_e_x_t_\'_:_ _(_\'_^_\'_,_ _[_\'_;_\'_,_ _\'_._\'_,_ _\'_!_\'_,_ _\'_?_\'_,_ _\'_._._._\'_,_ _\'_"_\'_,_ _\'_`_`_\'_]_)_,_ _\'_p_o_s_\'_:_ _(_\'_^_\'_,_ _[_\'_W_P_\'_,_ _\'_W_D_T_\'_,_ _\'_W_R_B_\'_,_ _\'_"_\'_,_ _"_\'_\'_"_,_ _\'_`_`_\'_]_)_}_,_ _\'_?_\'_,_ _{_\'_t_e_x_t_\'_:_ _(_\'_^_\'_,_ _[_\'_;_\'_,_ _\'_._\'_,_ _\'_!_\'_,_ _\'_?_\'_,_ _\'_._._._\'_,_ _\'_"_\'_,_ _\'_`_`_\'_]_)_,_ _\'_p_o_s_\'_:_ _(_\'_^_\'_,_ _[_\'_W_P_\'_,_ _\'_W_D_T_\'_,_ _\'_W_R_B_\'_,_ _\'_"_\'_,_ _"_\'_\'_"_,_ _\'_`_`_\'_]_)_}_,_ _\'_?_\'_,_ _{_\'_p_o_l_a_r_i_t_y_\'_:_ _\'_N_E_G_\'_,_ _\'_e_v_e_n_t_S_t_a_t_u_s_\'_:_ _\'_1_\'_,_ _\'_a_s_p_e_c_t_\'_:_ _\'_P_E_R_F_E_C_T_I_V_E_\'_}_,_ _\'_)_\'_]'
p852
sg20
I0
sg21
(lp853
I9
aI12
aI0
aI1
aI2
aI3
aI10
aI7
aI4
aI11
aI6
aI8
aI5
asg23
(dp854
sg25
I1
sg26
(lp855
(I0
I1
S"{'text': ('^', [','])}"
tp856
a(I0
I2
S"{'text': ['that', 'if', 'whether'], 'nodeType': 'Token', 'pos': 'IN'}"
p857
tp858
a(I0
I3
S"{'text': ','}"
tp859
a(I0
I4
S'{\'text\': (\'^\', [\';\', \'.\', \'!\', \'?\', \'...\', \'"\', \'``\']), \'pos\': (\'^\', [\'WP\', \'WDT\', \'WRB\', \'"\', "\'\'", \'``\'])}'
p860
tp861
a(I1
I2
g857
tp862
a(I1
I4
g860
tp863
a(I2
I5
S"{'nodeType': 'NounChunk'}"
tp864
a(I2
I5
S"{'nodeType': 'Token', 'pos': 'IN'}"
tp865
a(I2
I5
S"{'nodeType': 'Token', 'pos': ['JJ', 'JJR', 'JJS', 'DT', 'PDT', 'POS', 'CD', 'SYM']}"
tp866
a(I2
I6
S"{'polarity': 'NEG', 'eventStatus': '1', 'aspect': 'PERFECTIVE'}"
p867
tp868
a(I2
I7
S'{\'text\': (\'^\', [\';\', \'.\', \'!\', \'?\', \'...\', \'"\', \'``\']), \'pos\': (\'^\', [\'WP\', \'WDT\', \'WRB\', \'"\', "\'\'", \'``\'])}'
tp869
a(I3
I2
g857
tp870
a(I4
I2
g857
tp871
a(I4
I3
S'{\'text\': (\'^\', [\';\', \'.\', \'!\', \'?\', \'...\', \'"\', \'``\']), \'pos\': (\'^\', [\'WP\', \'WDT\', \'WRB\', \'"\', "\'\'", \'``\'])}'
tp872
a(I5
I5
S"{'nodeType': 'NounChunk'}"
tp873
a(I5
I5
S"{'nodeType': 'Token', 'pos': 'IN'}"
tp874
a(I5
I5
S"{'nodeType': 'Token', 'pos': ['JJ', 'JJR', 'JJS', 'DT', 'PDT', 'POS', 'CD', 'SYM']}"
tp875
a(I5
I6
S"{'polarity': 'NEG', 'eventStatus': '1', 'aspect': 'PERFECTIVE'}"
tp876
a(I7
I5
S"{'nodeType': 'NounChunk'}"
tp877
a(I7
I5
S"{'nodeType': 'Token', 'pos': 'IN'}"
tp878
a(I7
I5
S"{'nodeType': 'Token', 'pos': ['JJ', 'JJR', 'JJS', 'DT', 'PDT', 'POS', 'CD', 'SYM']}"
tp879
a(I7
I6
g867
tp880
a(I7
I8
S'{\'text\': (\'^\', [\';\', \'.\', \'!\', \'?\', \'...\', \'"\', \'``\']), \'pos\': (\'^\', [\'WP\', \'WDT\', \'WRB\', \'"\', "\'\'", \'``\'])}'
tp881
a(I8
I6
g867
tp882
a(I8
I9
S'{\'text\': (\'^\', [\';\', \'.\', \'!\', \'?\', \'...\', \'"\', \'``\']), \'pos\': (\'^\', [\'WP\', \'WDT\', \'WRB\', \'"\', "\'\'", \'``\'])}'
tp883
a(I9
I6
g867
tp884
a(I9
I10
S'{\'text\': (\'^\', [\';\', \'.\', \'!\', \'?\', \'...\', \'"\', \'``\']), \'pos\': (\'^\', [\'WP\', \'WDT\', \'WRB\', \'"\', "\'\'", \'``\'])}'
tp885
a(I10
I6
g867
tp886
a(I10
I11
S'{\'text\': (\'^\', [\';\', \'.\', \'!\', \'?\', \'...\', \'"\', \'``\']), \'pos\': (\'^\', [\'WP\', \'WDT\', \'WRB\', \'"\', "\'\'", \'``\'])}'
tp887
a(I11
I6
g867
tp888
a(I11
I12
S'{\'text\': (\'^\', [\';\', \'.\', \'!\', \'?\', \'...\', \'"\', \'``\']), \'pos\': (\'^\', [\'WP\', \'WDT\', \'WRB\', \'"\', "\'\'", \'``\'])}'
tp889
a(I12
I6
g867
tp890
asg86
I1
sg87
I1
sbag7
(g8
g9
NtRp891
(dp892
g12
S'thatClausePERFECTIVE_NEG_NOT_that'
p893
sg14
(lp894
I2
asg16
I1
sg17
Nsg18
S'[_{_\'_t_e_x_t_\'_:_ _(_\'_^_\'_,_ _[_\'_,_\'_]_)_}_,_ _{_\'_t_e_x_t_\'_:_ _(_\'_^_\'_,_ _[_\'_;_\'_,_ _\'_._\'_,_ _\'_!_\'_,_ _\'_?_\'_,_ _\'_._._._\'_,_ _\'_"_\'_,_ _\'_`_`_\'_]_)_,_ _\'_p_o_s_\'_:_ _(_\'_^_\'_,_ _[_\'_W_P_\'_,_ _\'_W_D_T_\'_,_ _\'_W_R_B_\'_,_ _\'_"_\'_,_ _"_\'_\'_"_,_ _\'_`_`_\'_]_)_}_,_ _\'_?_\'_,_ _{_\'_t_e_x_t_\'_:_ _(_\'_^_\'_,_ _[_\'_;_\'_,_ _\'_._\'_,_ _\'_!_\'_,_ _\'_?_\'_,_ _\'_._._._\'_,_ _\'_"_\'_,_ _\'_`_`_\'_]_)_,_ _\'_p_o_s_\'_:_ _(_\'_^_\'_,_ _[_\'_W_P_\'_,_ _\'_W_D_T_\'_,_ _\'_W_R_B_\'_,_ _\'_"_\'_,_ _"_\'_\'_"_,_ _\'_`_`_\'_]_)_}_,_ _\'_?_\'_,_ _{_\'_t_e_x_t_\'_:_ _(_\'_^_\'_,_ _[_\'_;_\'_,_ _\'_._\'_,_ _\'_!_\'_,_ _\'_?_\'_,_ _\'_._._._\'_,_ _\'_"_\'_,_ _\'_`_`_\'_]_)_,_ _\'_p_o_s_\'_:_ _(_\'_^_\'_,_ _[_\'_W_P_\'_,_ _\'_W_D_T_\'_,_ _\'_W_R_B_\'_,_ _\'_"_\'_,_ _"_\'_\'_"_,_ _\'_`_`_\'_]_)_}_,_ _\'_?_\'_,_ _{_\'_t_e_x_t_\'_:_ _(_\'_^_\'_,_ _[_\'_;_\'_,_ _\'_._\'_,_ _\'_!_\'_,_ _\'_?_\'_,_ _\'_._._._\'_,_ _\'_"_\'_,_ _\'_`_`_\'_]_)_,_ _\'_p_o_s_\'_:_ _(_\'_^_\'_,_ _[_\'_W_P_\'_,_ _\'_W_D_T_\'_,_ _\'_W_R_B_\'_,_ _\'_"_\'_,_ _"_\'_\'_"_,_ _\'_`_`_\'_]_)_}_,_ _\'_?_\'_,_ _{_\'_t_e_x_t_\'_:_ _(_\'_^_\'_,_ _[_\'_;_\'_,_ _\'_._\'_,_ _\'_!_\'_,_ _\'_?_\'_,_ _\'_._._._\'_,_ _\'_"_\'_,_ _\'_`_`_\'_]_)_,_ _\'_p_o_s_\'_:_ _(_\'_^_\'_,_ _[_\'_W_P_\'_,_ _\'_W_D_T_\'_,_ _\'_W_R_B_\'_,_ _\'_"_\'_,_ _"_\'_\'_"_,_ _\'_`_`_\'_]_)_}_,_ _\'_?_\'_,_ _{_\'_t_e_x_t_\'_:_ _(_\'_^_\'_,_ _[_\'_;_\'_,_ _\'_._\'_,_ _\'_!_\'_,_ _\'_?_\'_,_ _\'_._._._\'_,_ _\'_"_\'_,_ _\'_`_`_\'_]_)_,_ _\'_p_o_s_\'_:_ _(_\'_^_\'_,_ _[_\'_W_P_\'_,_ _\'_W_D_T_\'_,_ _\'_W_R_B_\'_,_ _\'_"_\'_,_ _"_\'_\'_"_,_ _\'_`_`_\'_]_)_}_,_ _\'_?_\'_,_ _{_\'_p_o_l_a_r_i_t_y_\'_:_ _\'_N_E_G_\'_,_ _\'_e_v_e_n_t_S_t_a_t_u_s_\'_:_ _\'_1_\'_,_ _\'_a_s_p_e_c_t_\'_:_ _\'_P_E_R_F_E_C_T_I_V_E_\'_}_]'
p895
sg20
I0
sg21
(lp896
I0
aI1
aI2
aI8
aI3
aI4
aI5
aI6
aI7
asg23
(dp897
sg25
I1
sg26
(lp898
(I0
I1
S"{'text': ('^', [','])}"
tp899
a(I1
I2
S"{'polarity': 'NEG', 'eventStatus': '1', 'aspect': 'PERFECTIVE'}"
p900
tp901
a(I1
I3
S'{\'text\': (\'^\', [\';\', \'.\', \'!\', \'?\', \'...\', \'"\', \'``\']), \'pos\': (\'^\', [\'WP\', \'WDT\', \'WRB\', \'"\', "\'\'", \'``\'])}'
tp902
a(I3
I2
g900
tp903
a(I3
I4
S'{\'text\': (\'^\', [\';\', \'.\', \'!\', \'?\', \'...\', \'"\', \'``\']), \'pos\': (\'^\', [\'WP\', \'WDT\', \'WRB\', \'"\', "\'\'", \'``\'])}'
tp904
a(I4
I2
g900
tp905
a(I4
I5
S'{\'text\': (\'^\', [\';\', \'.\', \'!\', \'?\', \'...\', \'"\', \'``\']), \'pos\': (\'^\', [\'WP\', \'WDT\', \'WRB\', \'"\', "\'\'", \'``\'])}'
tp906
a(I5
I2
g900
tp907
a(I5
I6
S'{\'text\': (\'^\', [\';\', \'.\', \'!\', \'?\', \'...\', \'"\', \'``\']), \'pos\': (\'^\', [\'WP\', \'WDT\', \'WRB\', \'"\', "\'\'", \'``\'])}'
tp908
a(I6
I2
g900
tp909
a(I6
I7
S'{\'text\': (\'^\', [\';\', \'.\', \'!\', \'?\', \'...\', \'"\', \'``\']), \'pos\': (\'^\', [\'WP\', \'WDT\', \'WRB\', \'"\', "\'\'", \'``\'])}'
tp910
a(I7
I2
g900
tp911
a(I7
I8
S'{\'text\': (\'^\', [\';\', \'.\', \'!\', \'?\', \'...\', \'"\', \'``\']), \'pos\': (\'^\', [\'WP\', \'WDT\', \'WRB\', \'"\', "\'\'", \'``\'])}'
tp912
a(I8
I2
g900
tp913
asg86
I1
sg87
I1
sbaa(lp914
g225
ag225
ag225
ag498
ag120
atp915
ssS'doubts'
p916
(dp917
g4
((lp918
(lp919
g10
ag643
aa(lp920
g358
aa(lp921
g225
ag225
atp922
ssS'approach'
p923
(dp924
g4
((lp925
(lp926
g7
(g8
g9
NtRp927
(dp928
g12
S'to_NPev'
p929
sg14
(lp930
I4
asg16
I1
sg17
Nsg18
S"[_{_'_n_o_d_e_T_y_p_e_'_:_ _'_T_o_k_e_n_'_,_ _'_p_o_s_'_:_ _'_P_D_T_'_}_,_ _'_?_'_,_ _{_'_n_o_d_e_T_y_p_e_'_:_ _'_N_o_u_n_C_h_u_n_k_'_}_,_ _'_?_'_,_ _{_'_t_e_x_t_'_:_ _'_t_o_'_,_ _'_p_o_s_'_:_ _'_T_O_'_}_,_ _{_'_n_o_d_e_T_y_p_e_'_:_ _'_T_o_k_e_n_'_,_ _'_p_o_s_'_:_ _'_P_D_T_'_}_,_ _'_?_'_,_ _'_(_'_,_ _{_'_n_o_d_e_T_y_p_e_'_:_ _'_N_o_u_n_C_h_u_n_k_'_,_ _'_e_v_e_n_t_S_t_a_t_u_s_'_:_ _'_1_'_}_,_ _'_|_'_,_ _{_'_n_o_d_e_T_y_p_e_'_:_ _'_T_o_k_e_n_'_,_ _'_p_o_s_'_:_ _'_D_T_'_}_,_ _'_(_'_,_ _{_'_n_o_d_e_T_y_p_e_'_:_ _'_T_o_k_e_n_'_,_ _'_p_o_s_'_:_ _[_'_J_J_'_,_ _'_J_J_R_'_,_ _'_J_J_S_'_]_}_,_ _'_|_'_,_ _{_'_n_o_d_e_T_y_p_e_'_:_ _'_V_e_r_b_C_h_u_n_k_'_,_ _'_p_o_s_'_:_ _[_'_V_G_B_'_,_ _'_V_B_N_'_]_}_,_ _'_|_'_,_ _{_'_p_o_s_'_:_ _'_S_Y_M_'_}_,_ _'_)_'_,_ _'_*_'_,_ _{_'_n_o_d_e_T_y_p_e_'_:_ _'_T_o_k_e_n_'_,_ _'_p_o_s_'_:_ _'_C_D_'_}_,_ _'_*_'_,_ _{_'_n_o_d_e_T_y_p_e_'_:_ _'_N_o_u_n_C_h_u_n_k_'_}_,_ _'_)_'_]"
p931
sg20
I0
sg21
(lp932
I7
aI0
aI1
aI2
aI3
aI4
aI5
aI6
asg23
(dp933
sg25
I1
sg26
(lp934
(I0
I1
S"{'nodeType': 'NounChunk'}"
p935
tp936
a(I0
I2
S"{'text': 'to', 'pos': 'TO'}"
p937
tp938
a(I0
I3
S"{'nodeType': 'Token', 'pos': 'PDT'}"
tp939
a(I1
I2
g937
tp940
a(I2
I4
S"{'nodeType': 'NounChunk', 'eventStatus': '1'}"
p941
tp942
a(I2
I5
S"{'nodeType': 'Token', 'pos': 'PDT'}"
tp943
a(I2
I6
S"{'nodeType': 'Token', 'pos': 'DT'}"
p944
tp945
a(I3
I1
g935
tp946
a(I3
I2
g937
tp947
a(I5
I4
g941
tp948
a(I5
I6
g944
tp949
a(I6
I4
S"{'nodeType': 'NounChunk'}"
tp950
a(I6
I6
S"{'nodeType': 'Token', 'pos': ['JJ', 'JJR', 'JJS']}"
tp951
a(I6
I6
S"{'nodeType': 'VerbChunk', 'pos': ['VGB', 'VBN']}"
tp952
a(I6
I6
S"{'pos': 'SYM'}"
tp953
a(I6
I7
S"{'nodeType': 'Token', 'pos': 'CD'}"
tp954
a(I7
I4
S"{'nodeType': 'NounChunk'}"
tp955
a(I7
I7
S"{'nodeType': 'Token', 'pos': 'CD'}"
tp956
asg86
I1
sg87
I1
sbaa(lp957
g120
atp958
ssS'expansions'
p959
(dp960
g4
((lp961
(lp962
g89
ag201
aa(lp963
g120
atp964
ssS'prohibitions'
p965
(dp966
g4
((lp967
(lp968
g728
ag750
ag469
aa(lp969
g225
atp970
ssS'implication'
p971
(dp972
g4
((lp973
(lp974
g10
ag231
ag287
ag324
aa(lp975
g225
atp976
ssS'achievements'
p977
(dp978
g4
((lp979
(lp980
g89
ag201
aa(lp981
g120
atp982
ssS'regret'
p983
(dp984
g4
((lp985
(lp986
g553
ag583
aa(lp987
g120
atp988
ssS'reference'
p989
(dp990
g4
((lp991
(lp992
g927
aa(lp993
g120
atp994
ssS'prediction'
p995
(dp996
g4
((lp997
(lp998
g89
ag201
aa(lp999
g10
ag287
aa(lp1000
g225
ag225
atp1001
ssS'demonstrations'
p1002
(dp1003
g4
((lp1004
(lp1005
g89
aa(lp1006
g7
(g8
g9
NtRp1007
(dp1008
g12
S'of_indirectInterrog'
p1009
sg14
(lp1010
I3
asg16
I1
sg17
Nsg18
S'[_{_\'_t_e_x_t_\'_:_ _\'_o_f_\'_}_,_ _{_\'_t_e_x_t_\'_:_ _[_\'_w_h_o_\'_,_ _\'_w_h_a_t_\'_,_ _\'_w_h_e_n_\'_,_ _\'_w_h_i_c_h_\'_,_ _\'_h_o_w_\'_,_ _\'_w_h_e_r_e_\'_,_ _\'_w_h_y_\'_]_,_ _\'_n_o_d_e_T_y_p_e_\'_:_ _\'_T_o_k_e_n_\'_}_,_ _{_\'_t_e_x_t_\'_:_ _(_\'_^_\'_,_ _[_\'_;_\'_,_ _\'_._\'_,_ _\'_!_\'_,_ _\'_?_\'_,_ _\'_._._._\'_,_ _\'_"_\'_,_ _\'_`_`_\'_]_)_,_ _\'_p_o_s_\'_:_ _(_\'_^_\'_,_ _[_\'_W_P_\'_,_ _\'_W_D_T_\'_,_ _\'_W_R_B_\'_,_ _\'_"_\'_,_ _"_\'_\'_"_,_ _\'_`_`_\'_]_)_}_,_ _\'_?_\'_,_ _{_\'_t_e_x_t_\'_:_ _(_\'_^_\'_,_ _[_\'_;_\'_,_ _\'_._\'_,_ _\'_!_\'_,_ _\'_?_\'_,_ _\'_._._._\'_,_ _\'_"_\'_,_ _\'_`_`_\'_]_)_,_ _\'_p_o_s_\'_:_ _(_\'_^_\'_,_ _[_\'_W_P_\'_,_ _\'_W_D_T_\'_,_ _\'_W_R_B_\'_,_ _\'_"_\'_,_ _"_\'_\'_"_,_ _\'_`_`_\'_]_)_}_,_ _\'_?_\'_,_ _{_\'_t_e_x_t_\'_:_ _(_\'_^_\'_,_ _[_\'_;_\'_,_ _\'_._\'_,_ _\'_!_\'_,_ _\'_?_\'_,_ _\'_._._._\'_,_ _\'_"_\'_,_ _\'_`_`_\'_]_)_,_ _\'_p_o_s_\'_:_ _(_\'_^_\'_,_ _[_\'_W_P_\'_,_ _\'_W_D_T_\'_,_ _\'_W_R_B_\'_,_ _\'_"_\'_,_ _"_\'_\'_"_,_ _\'_`_`_\'_]_)_}_,_ _\'_?_\'_,_ _{_\'_t_e_x_t_\'_:_ _(_\'_^_\'_,_ _[_\'_;_\'_,_ _\'_._\'_,_ _\'_!_\'_,_ _\'_?_\'_,_ _\'_._._._\'_,_ _\'_"_\'_,_ _\'_`_`_\'_]_)_,_ _\'_p_o_s_\'_:_ _(_\'_^_\'_,_ _[_\'_W_P_\'_,_ _\'_W_D_T_\'_,_ _\'_W_R_B_\'_,_ _\'_"_\'_,_ _"_\'_\'_"_,_ _\'_`_`_\'_]_)_}_,_ _\'_?_\'_,_ _{_\'_t_e_x_t_\'_:_ _(_\'_^_\'_,_ _[_\'_;_\'_,_ _\'_._\'_,_ _\'_!_\'_,_ _\'_?_\'_,_ _\'_._._._\'_,_ _\'_"_\'_,_ _\'_`_`_\'_]_)_,_ _\'_p_o_s_\'_:_ _(_\'_^_\'_,_ _[_\'_W_P_\'_,_ _\'_W_D_T_\'_,_ _\'_W_R_B_\'_,_ _\'_"_\'_,_ _"_\'_\'_"_,_ _\'_`_`_\'_]_)_}_,_ _\'_?_\'_,_ _{_\'_t_e_x_t_\'_:_ _(_\'_^_\'_,_ _[_\'_;_\'_,_ _\'_._\'_,_ _\'_!_\'_,_ _\'_?_\'_,_ _\'_._._._\'_,_ _\'_"_\'_,_ _\'_`_`_\'_]_)_,_ _\'_p_o_s_\'_:_ _(_\'_^_\'_,_ _[_\'_W_P_\'_,_ _\'_W_D_T_\'_,_ _\'_W_R_B_\'_,_ _\'_"_\'_,_ _"_\'_\'_"_,_ _\'_`_`_\'_]_)_}_,_ _\'_?_\'_,_ _\'_(_\'_,_ _{_\'_t_e_n_s_e_\'_:_ _[_\'_P_A_S_T_\'_,_ _\'_P_R_E_S_E_N_T_\'_,_ _\'_F_U_T_U_R_E_\'_]_,_ _\'_n_o_d_e_T_y_p_e_\'_:_ _[_\'_C_h_u_n_k_\'_,_ _\'_N_o_u_n_C_h_u_n_k_\'_,_ _\'_V_e_r_b_C_h_u_n_k_\'_,_ _\'_A_d_j_e_c_t_i_v_e_T_o_k_e_n_\'_]_}_,_ _\'_|_\'_,_ _{_\'_n_o_d_e_T_y_p_e_\'_:_ _[_\'_C_h_u_n_k_\'_,_ _\'_N_o_u_n_C_h_u_n_k_\'_,_ _\'_V_e_r_b_C_h_u_n_k_\'_,_ _\'_A_d_j_e_c_t_i_v_e_T_o_k_e_n_\'_]_,_ _\'_m_o_d_a_l_i_t_y_\'_:_ _[_\'_m_a_y_\'_,_ _\'_c_a_n_\'_,_ _\'_m_u_s_t_\'_,_ _\'_m_i_g_h_t_\'_,_ _\'_c_o_u_l_d_\'_,_ _\'_s_h_o_u_l_d_\'_,_ _\'_w_o_u_l_d_\'_,_ _\'_o_u_g_h_t_\'_,_ _\'_h_a_v_e_ _t_o_\'_]_}_,_ _\'_)_\'_]'
p1011
sg20
I0
sg21
(lp1012
I0
aI1
aI2
aI5
aI6
aI7
aI4
aI8
aI9
aI3
asg23
(dp1013
sg25
I1
sg26
(lp1014
(I0
I1
S"{'text': 'of'}"
tp1015
a(I1
I2
S"{'text': ['who', 'what', 'when', 'which', 'how', 'where', 'why'], 'nodeType': 'Token'}"
tp1016
a(I2
I3
S"{'nodeType': ['Chunk', 'NounChunk', 'VerbChunk', 'AdjectiveToken'], 'modality': ['may', 'can', 'must', 'might', 'could', 'should', 'would', 'ought', 'have to']}"
tp1017
a(I2
I3
S"{'tense': ['PAST', 'PRESENT', 'FUTURE'], 'nodeType': ['Chunk', 'NounChunk', 'VerbChunk', 'AdjectiveToken']}"
tp1018
a(I2
I4
S'{\'text\': (\'^\', [\';\', \'.\', \'!\', \'?\', \'...\', \'"\', \'``\']), \'pos\': (\'^\', [\'WP\', \'WDT\', \'WRB\', \'"\', "\'\'", \'``\'])}'
tp1019
a(I4
I3
S"{'nodeType': ['Chunk', 'NounChunk', 'VerbChunk', 'AdjectiveToken'], 'modality': ['may', 'can', 'must', 'might', 'could', 'should', 'would', 'ought', 'have to']}"
tp1020
a(I4
I3
S"{'tense': ['PAST', 'PRESENT', 'FUTURE'], 'nodeType': ['Chunk', 'NounChunk', 'VerbChunk', 'AdjectiveToken']}"
tp1021
a(I4
I5
S'{\'text\': (\'^\', [\';\', \'.\', \'!\', \'?\', \'...\', \'"\', \'``\']), \'pos\': (\'^\', [\'WP\', \'WDT\', \'WRB\', \'"\', "\'\'", \'``\'])}'
tp1022
a(I5
I3
S"{'nodeType': ['Chunk', 'NounChunk', 'VerbChunk', 'AdjectiveToken'], 'modality': ['may', 'can', 'must', 'might', 'could', 'should', 'would', 'ought', 'have to']}"
tp1023
a(I5
I3
S"{'tense': ['PAST', 'PRESENT', 'FUTURE'], 'nodeType': ['Chunk', 'NounChunk', 'VerbChunk', 'AdjectiveToken']}"
tp1024
a(I5
I6
S'{\'text\': (\'^\', [\';\', \'.\', \'!\', \'?\', \'...\', \'"\', \'``\']), \'pos\': (\'^\', [\'WP\', \'WDT\', \'WRB\', \'"\', "\'\'", \'``\'])}'
tp1025
a(I6
I3
S"{'nodeType': ['Chunk', 'NounChunk', 'VerbChunk', 'AdjectiveToken'], 'modality': ['may', 'can', 'must', 'might', 'could', 'should', 'would', 'ought', 'have to']}"
tp1026
a(I6
I3
S"{'tense': ['PAST', 'PRESENT', 'FUTURE'], 'nodeType': ['Chunk', 'NounChunk', 'VerbChunk', 'AdjectiveToken']}"
tp1027
a(I6
I7
S'{\'text\': (\'^\', [\';\', \'.\', \'!\', \'?\', \'...\', \'"\', \'``\']), \'pos\': (\'^\', [\'WP\', \'WDT\', \'WRB\', \'"\', "\'\'", \'``\'])}'
tp1028
a(I7
I3
S"{'nodeType': ['Chunk', 'NounChunk', 'VerbChunk', 'AdjectiveToken'], 'modality': ['may', 'can', 'must', 'might', 'could', 'should', 'would', 'ought', 'have to']}"
tp1029
a(I7
I3
S"{'tense': ['PAST', 'PRESENT', 'FUTURE'], 'nodeType': ['Chunk', 'NounChunk', 'VerbChunk', 'AdjectiveToken']}"
tp1030
a(I7
I8
S'{\'text\': (\'^\', [\';\', \'.\', \'!\', \'?\', \'...\', \'"\', \'``\']), \'pos\': (\'^\', [\'WP\', \'WDT\', \'WRB\', \'"\', "\'\'", \'``\'])}'
tp1031
a(I8
I3
S"{'nodeType': ['Chunk', 'NounChunk', 'VerbChunk', 'AdjectiveToken'], 'modality': ['may', 'can', 'must', 'might', 'could', 'should', 'would', 'ought', 'have to']}"
tp1032
a(I8
I3
S"{'tense': ['PAST', 'PRESENT', 'FUTURE'], 'nodeType': ['Chunk', 'NounChunk', 'VerbChunk', 'AdjectiveToken']}"
tp1033
a(I8
I9
S'{\'text\': (\'^\', [\';\', \'.\', \'!\', \'?\', \'...\', \'"\', \'``\']), \'pos\': (\'^\', [\'WP\', \'WDT\', \'WRB\', \'"\', "\'\'", \'``\'])}'
tp1034
a(I9
I3
S"{'nodeType': ['Chunk', 'NounChunk', 'VerbChunk', 'AdjectiveToken'], 'modality': ['may', 'can', 'must', 'might', 'could', 'should', 'would', 'ought', 'have to']}"
tp1035
a(I9
I3
S"{'tense': ['PAST', 'PRESENT', 'FUTURE'], 'nodeType': ['Chunk', 'NounChunk', 'VerbChunk', 'AdjectiveToken']}"
tp1036
asg86
I1
sg87
I1
sbaa(lp1037
g120
ag120
atp1038
ssS'discussions'
p1039
(dp1040
g4
((lp1041
(lp1042
g678
ag643
aa(lp1043
g89
ag358
aa(lp1044
g225
ag120
atp1045
ssS'concern'
p1046
(dp1047
g4
((lp1048
(lp1049
g358
ag388
aa(lp1050
g120
atp1051
ssS'imposition'
p1052
(dp1053
g4
((lp1054
(lp1055
g89
aa(lp1056
g225
atp1057
ssS'pressures'
p1058
(dp1059
g4
((lp1060
(lp1061
g583
aa(lp1062
g127
ag147
ag431
aa(lp1063
g225
ag225
atp1064
ssS'boost'
p1065
(dp1066
g4
((lp1067
(lp1068
g7
(g8
g9
NtRp1069
(dp1070
g12
S'NP_event1'
p1071
sg14
(lp1072
I2
asg16
I1
sg17
Nsg18
S'[_{_\'_n_o_d_e_T_y_p_e_\'_:_ _\'_T_o_k_e_n_\'_,_ _\'_p_o_s_\'_:_ _\'_P_D_T_\'_}_,_ _\'_?_\'_,_ _{_\'_t_e_x_t_\'_:_ _[_\'_"_\'_,_ _\'_`_`_\'_,_ _"_\'_\'_"_]_}_,_ _\'_?_\'_,_ _\'_(_\'_,_ _{_\'_n_o_d_e_T_y_p_e_\'_:_ _\'_T_o_k_e_n_\'_,_ _\'_p_o_s_\'_:_ _[_\'_J_J_\'_,_ _\'_J_J_R_\'_,_ _\'_J_J_S_\'_,_ _\'_D_T_\'_,_ _\'_P_D_T_\'_,_ _\'_P_O_S_\'_,_ _\'_C_D_\'_,_ _\'_S_Y_M_\'_]_}_,_ _\'_*_\'_,_ _{_\'_n_o_d_e_T_y_p_e_\'_:_ _\'_N_o_u_n_C_h_u_n_k_\'_}_,_ _{_\'_t_e_x_t_\'_:_ _\'_o_f_\'_}_,_ _\'_)_\'_,_ _\'_*_\'_,_ _{_\'_n_o_d_e_T_y_p_e_\'_:_ _\'_N_o_u_n_C_h_u_n_k_\'_,_ _\'_e_v_e_n_t_S_t_a_t_u_s_\'_:_ _\'_1_\'_}_]'
p1073
sg20
I0
sg21
(lp1074
I0
aI2
aI4
aI3
aI1
aI5
asg23
(dp1075
sg25
I1
sg26
(lp1076
(I0
I1
S"{'nodeType': 'NounChunk'}"
p1077
tp1078
a(I0
I2
S"{'nodeType': 'NounChunk', 'eventStatus': '1'}"
p1079
tp1080
a(I0
I3
S"{'nodeType': 'Token', 'pos': 'PDT'}"
tp1081
a(I0
I4
S'{\'text\': [\'"\', \'``\', "\'\'"]}'
p1082
tp1083
a(I0
I5
S"{'nodeType': 'Token', 'pos': ['JJ', 'JJR', 'JJS', 'DT', 'PDT', 'POS', 'CD', 'SYM']}"
p1084
tp1085
a(I1
I4
S"{'text': 'of'}"
tp1086
a(I3
I1
g1077
tp1087
a(I3
I2
g1079
tp1088
a(I3
I4
g1082
tp1089
a(I3
I5
g1084
tp1090
a(I4
I1
g1077
tp1091
a(I4
I2
g1079
tp1092
a(I4
I5
g1084
tp1093
a(I5
I1
g1077
tp1094
a(I5
I5
g1084
tp1095
asg86
I1
sg87
I1
sbag7
(g8
g9
NtRp1096
(dp1097
g12
S'NP_event2'
p1098
sg14
(lp1099
I2
asg16
I1
sg17
Nsg18
S'[_{_\'_n_o_d_e_T_y_p_e_\'_:_ _\'_T_o_k_e_n_\'_,_ _\'_p_o_s_\'_:_ _\'_P_D_T_\'_}_,_ _\'_?_\'_,_ _{_\'_t_e_x_t_\'_:_ _[_\'_"_\'_,_ _\'_`_`_\'_,_ _"_\'_\'_"_]_}_,_ _\'_?_\'_,_ _{_\'_n_o_d_e_T_y_p_e_\'_:_ _\'_T_o_k_e_n_\'_,_ _\'_p_o_s_\'_:_ _\'_D_T_\'_}_,_ _\'_?_\'_,_ _{_\'_t_e_x_t_\'_:_ _[_\'_"_\'_,_ _\'_`_`_\'_,_ _"_\'_\'_"_]_}_,_ _\'_?_\'_,_ _\'_(_\'_,_ _{_\'_n_o_d_e_T_y_p_e_\'_:_ _\'_T_o_k_e_n_\'_,_ _\'_p_o_s_\'_:_ _[_\'_J_J_\'_,_ _\'_J_J_R_\'_,_ _\'_J_J_S_\'_]_}_,_ _\'_|_\'_,_ _{_\'_n_o_d_e_T_y_p_e_\'_:_ _\'_V_e_r_b_C_h_u_n_k_\'_,_ _\'_p_o_s_\'_:_ _[_\'_V_G_B_\'_,_ _\'_V_B_N_\'_]_}_,_ _\'_|_\'_,_ _{_\'_p_o_s_\'_:_ _\'_S_Y_M_\'_}_,_ _\'_)_\'_,_ _\'_*_\'_,_ _{_\'_t_e_x_t_\'_:_ _[_\'_"_\'_,_ _\'_`_`_\'_,_ _"_\'_\'_"_]_}_,_ _\'_?_\'_,_ _{_\'_n_o_d_e_T_y_p_e_\'_:_ _\'_T_o_k_e_n_\'_,_ _\'_p_o_s_\'_:_ _\'_C_D_\'_}_,_ _\'_*_\'_,_ _{_\'_t_e_x_t_\'_:_ _[_\'_"_\'_,_ _\'_`_`_\'_,_ _"_\'_\'_"_]_}_,_ _\'_?_\'_,_ _{_\'_n_o_d_e_T_y_p_e_\'_:_ _\'_N_o_u_n_C_h_u_n_k_\'_,_ _\'_e_v_e_n_t_S_t_a_t_u_s_\'_:_ _\'_1_\'_}_]'
p1100
sg20
I0
sg21
(lp1101
I0
aI5
aI2
aI6
aI3
aI1
aI4
aI7
asg23
(dp1102
sg25
I1
sg26
(lp1103
(I0
I1
S"{'nodeType': 'Token', 'pos': ['JJ', 'JJR', 'JJS']}"
tp1104
a(I0
I1
S"{'nodeType': 'VerbChunk', 'pos': ['VGB', 'VBN']}"
tp1105
a(I0
I1
S"{'pos': 'SYM'}"
tp1106
a(I0
I2
S"{'nodeType': 'NounChunk', 'eventStatus': '1'}"
p1107
tp1108
a(I0
I3
S"{'nodeType': 'Token', 'pos': 'PDT'}"
tp1109
a(I0
I4
S'{\'text\': [\'"\', \'``\', "\'\'"]}'
p1110
tp1111
a(I0
I5
S"{'nodeType': 'Token', 'pos': 'CD'}"
p1112
tp1113
a(I0
I6
S"{'nodeType': 'Token', 'pos': 'DT'}"
p1114
tp1115
a(I1
I1
S"{'nodeType': 'Token', 'pos': ['JJ', 'JJR', 'JJS']}"
tp1116
a(I1
I1
S"{'nodeType': 'VerbChunk', 'pos': ['VGB', 'VBN']}"
tp1117
a(I1
I1
S"{'pos': 'SYM'}"
tp1118
a(I1
I2
g1107
tp1119
a(I1
I5
S"{'nodeType': 'Token', 'pos': 'CD'}"
tp1120
a(I1
I5
S'{\'text\': [\'"\', \'``\', "\'\'"]}'
tp1121
a(I3
I1
S"{'nodeType': 'Token', 'pos': ['JJ', 'JJR', 'JJS']}"
tp1122
a(I3
I1
S"{'nodeType': 'VerbChunk', 'pos': ['VGB', 'VBN']}"
tp1123
a(I3
I1
S"{'pos': 'SYM'}"
tp1124
a(I3
I2
g1107
tp1125
a(I3
I4
g1110
tp1126
a(I3
I5
g1112
tp1127
a(I3
I6
g1114
tp1128
a(I4
I1
S"{'nodeType': 'Token', 'pos': ['JJ', 'JJR', 'JJS']}"
tp1129
a(I4
I1
S"{'nodeType': 'VerbChunk', 'pos': ['VGB', 'VBN']}"
tp1130
a(I4
I1
S"{'pos': 'SYM'}"
tp1131
a(I4
I1
S'{\'text\': [\'"\', \'``\', "\'\'"]}'
tp1132
a(I4
I2
g1107
tp1133
a(I4
I5
g1112
tp1134
a(I4
I6
g1114
tp1135
a(I5
I2
g1107
tp1136
a(I5
I7
S'{\'text\': [\'"\', \'``\', "\'\'"]}'
tp1137
a(I5
I5
g1112
tp1138
a(I6
I1
S"{'nodeType': 'Token', 'pos': ['JJ', 'JJR', 'JJS']}"
tp1139
a(I6
I1
S"{'nodeType': 'VerbChunk', 'pos': ['VGB', 'VBN']}"
tp1140
a(I6
I1
S"{'pos': 'SYM'}"
tp1141
a(I6
I1
S'{\'text\': [\'"\', \'``\', "\'\'"]}'
tp1142
a(I6
I2
g1107
tp1143
a(I6
I5
g1112
tp1144
a(I7
I2
g1107
tp1145
asg86
I1
sg87
I1
sbaa(lp1146
g120
atp1147
ssS'discovery'
p1148
(dp1149
g4
((lp1150
(lp1151
g10
aa(lp1152
g1069
ag1096
aa(lp1153
g120
ag120
atp1154
ssS'ability'
p1155
(dp1156
g4
((lp1157
(lp1158
g127
ag147
ag431
aa(lp1159
g225
atp1160
ssS'desires'
p1161
(dp1162
g4
((lp1163
(lp1164
g127
ag147
ag431
aa(lp1165
g225
atp1166
ssS'approvals'
p1167
(dp1168
g4
((lp1169
(lp1170
g127
ag147
ag431
aa(lp1171
g1069
ag1096
aa(lp1172
g89
aa(lp1173
g225
ag225
ag225
atp1174
ssS'understanding'
p1175
(dp1176
g4
((lp1177
(lp1178
g89
aa(lp1179
g120
atp1180
ssS'hypothesis'
p1181
(dp1182
g4
((lp1183
(lp1184
g10
aa(lp1185
g358
aa(lp1186
g225
ag120
atp1187
ssS'approval'
p1188
(dp1189
g4
((lp1190
(lp1191
g127
ag147
ag431
aa(lp1192
g1069
ag1096
aa(lp1193
g89
aa(lp1194
g225
ag225
ag225
atp1195
ssS'change'
p1196
(dp1197
g4
((lp1198
(lp1199
g89
aa(lp1200
g120
atp1201
ssS'remark'
p1202
(dp1203
g4
((lp1204
(lp1205
g10
ag231
ag287
ag324
aa(lp1206
g7
(g8
g9
NtRp1207
(dp1208
g12
S'on_NPev'
p1209
sg14
(lp1210
I4
asg16
I1
sg17
Nsg18
S"[_{_'_n_o_d_e_T_y_p_e_'_:_ _'_T_o_k_e_n_'_,_ _'_p_o_s_'_:_ _'_P_D_T_'_}_,_ _'_?_'_,_ _{_'_n_o_d_e_T_y_p_e_'_:_ _'_N_o_u_n_C_h_u_n_k_'_}_,_ _'_?_'_,_ _{_'_t_e_x_t_'_:_ _'_o_n_'_}_,_ _{_'_n_o_d_e_T_y_p_e_'_:_ _'_T_o_k_e_n_'_,_ _'_p_o_s_'_:_ _'_P_D_T_'_}_,_ _'_?_'_,_ _'_(_'_,_ _{_'_n_o_d_e_T_y_p_e_'_:_ _'_N_o_u_n_C_h_u_n_k_'_,_ _'_e_v_e_n_t_S_t_a_t_u_s_'_:_ _'_1_'_}_,_ _'_|_'_,_ _{_'_n_o_d_e_T_y_p_e_'_:_ _'_T_o_k_e_n_'_,_ _'_p_o_s_'_:_ _'_D_T_'_}_,_ _'_(_'_,_ _{_'_n_o_d_e_T_y_p_e_'_:_ _'_T_o_k_e_n_'_,_ _'_p_o_s_'_:_ _[_'_J_J_'_,_ _'_J_J_R_'_,_ _'_J_J_S_'_]_}_,_ _'_|_'_,_ _{_'_n_o_d_e_T_y_p_e_'_:_ _'_V_e_r_b_C_h_u_n_k_'_,_ _'_p_o_s_'_:_ _[_'_V_G_B_'_,_ _'_V_B_N_'_]_}_,_ _'_|_'_,_ _{_'_p_o_s_'_:_ _'_S_Y_M_'_}_,_ _'_)_'_,_ _'_*_'_,_ _{_'_n_o_d_e_T_y_p_e_'_:_ _'_T_o_k_e_n_'_,_ _'_p_o_s_'_:_ _'_C_D_'_}_,_ _'_*_'_,_ _{_'_n_o_d_e_T_y_p_e_'_:_ _'_N_o_u_n_C_h_u_n_k_'_}_,_ _'_)_'_]"
p1211
sg20
I0
sg21
(lp1212
I7
aI0
aI1
aI2
aI3
aI4
aI5
aI6
asg23
(dp1213
sg25
I1
sg26
(lp1214
(I0
I1
S"{'nodeType': 'NounChunk'}"
p1215
tp1216
a(I0
I2
S"{'nodeType': 'Token', 'pos': 'PDT'}"
tp1217
a(I0
I3
S"{'text': 'on'}"
p1218
tp1219
a(I1
I3
g1218
tp1220
a(I2
I1
g1215
tp1221
a(I2
I3
g1218
tp1222
a(I3
I4
S"{'nodeType': 'NounChunk', 'eventStatus': '1'}"
p1223
tp1224
a(I3
I5
S"{'nodeType': 'Token', 'pos': 'PDT'}"
tp1225
a(I3
I6
S"{'nodeType': 'Token', 'pos': 'DT'}"
p1226
tp1227
a(I5
I4
g1223
tp1228
a(I5
I6
g1226
tp1229
a(I6
I4
S"{'nodeType': 'NounChunk'}"
tp1230
a(I6
I6
S"{'nodeType': 'Token', 'pos': ['JJ', 'JJR', 'JJS']}"
tp1231
a(I6
I6
S"{'nodeType': 'VerbChunk', 'pos': ['VGB', 'VBN']}"
tp1232
a(I6
I6
S"{'pos': 'SYM'}"
tp1233
a(I6
I7
S"{'nodeType': 'Token', 'pos': 'CD'}"
tp1234
a(I7
I4
S"{'nodeType': 'NounChunk'}"
tp1235
a(I7
I7
S"{'nodeType': 'Token', 'pos': 'CD'}"
tp1236
asg86
I1
sg87
I1
sbaa(lp1237
g411
ag120
atp1238
ssS'perceptions'
p1239
(dp1240
g4
((lp1241
(lp1242
g10
aa(lp1243
g89
ag201
aa(lp1244
g120
ag120
atp1245
ssS'avowals'
p1246
(dp1247
g4
((lp1248
(lp1249
g89
aa(lp1250
g127
ag147
aa(lp1251
g120
ag225
atp1252
ssS'pressure'
p1253
(dp1254
g4
((lp1255
(lp1256
g583
aa(lp1257
g127
ag147
ag431
aa(lp1258
g225
ag225
atp1259
ssS'approaches'
p1260
(dp1261
g4
((lp1262
(lp1263
g927
aa(lp1264
g120
atp1265
ssS'credit'
p1266
(dp1267
g4
((lp1268
(lp1269
g516
ag583
aa(lp1270
g10
aa(lp1271
g120
ag120
ag225
atp1272
ssS'suggestion'
p1273
(dp1274
g4
((lp1275
(lp1276
g10
ag287
aa(lp1277
g225
atp1278
ssS'changes'
p1279
(dp1280
g4
((lp1281
(lp1282
g89
aa(lp1283
g120
atp1284
ssS'options'
p1285
(dp1286
g4
((lp1287
(lp1288
g127
ag147
ag431
aa(lp1289
g201
ag89
aa(lp1290
g225
ag225
atp1291
ssS'negotiation'
p1292
(dp1293
g4
((lp1294
(lp1295
g358
ag388
aa(lp1296
g201
ag89
aa(lp1297
g583
ag516
aa(lp1298
g127
aa(lp1299
g225
ag225
ag225
ag225
atp1300
ssS'intents'
p1301
(dp1302
g4
((lp1303
(lp1304
g127
ag147
ag431
aa(lp1305
g225
atp1306
ssS'feelings'
p1307
(dp1308
g4
((lp1309
(lp1310
g10
ag287
aa(lp1311
g89
ag201
aa(lp1312
g411
ag411
atp1313
ssS'assertions'
p1314
(dp1315
g4
((lp1316
(lp1317
g10
ag231
aa(lp1318
g411
atp1319
ssS'laugh'
p1320
(dp1321
g4
((lp1322
(lp1323
g358
ag388
aa(lp1324
g120
atp1325
ssS'conference'
p1326
(dp1327
g4
((lp1328
(lp1329
g127
ag147
ag431
aa(lp1330
g225
atp1331
ssS'use'
p1332
(dp1333
g4
((lp1334
(lp1335
g127
ag147
ag431
aa(lp1336
g225
atp1337
ssS'acceptance'
p1338
(dp1339
g4
((lp1340
(lp1341
g89
ag201
aa(lp1342
g10
ag231
ag287
ag324
aa(lp1343
g120
ag120
atp1344
ssS'predictions'
p1345
(dp1346
g4
((lp1347
(lp1348
g89
ag201
aa(lp1349
g10
ag287
aa(lp1350
g225
ag225
atp1351
ssS'doubt'
p1352
(dp1353
g4
((lp1354
(lp1355
g10
ag643
aa(lp1356
g358
aa(lp1357
g225
ag225
atp1358
ssS'call'
p1359
(dp1360
g4
((lp1361
(lp1362
g516
ag583
aa(lp1363
g127
ag147
ag431
aa(lp1364
g225
ag225
atp1365
ssS'agreements'
p1366
(dp1367
g4
((lp1368
(lp1369
g127
ag147
ag431
aa(lp1370
g516
aa(lp1371
g225
ag225
atp1372
ssS'suspicion'
p1373
(dp1374
g4
((lp1375
(lp1376
g10
ag287
aa(lp1377
g201
ag89
aa(lp1378
g225
ag225
atp1379
ssS'proposal'
p1380
(dp1381
g4
((lp1382
(lp1383
g127
ag147
ag431
aa(lp1384
g10
ag287
aa(lp1385
g89
ag201
aa(lp1386
g225
ag225
ag225
atp1387
ssS'suggestions'
p1388
(dp1389
g4
((lp1390
(lp1391
g10
ag287
aa(lp1392
g225
atp1393
ssS'excuse'
p1394
(dp1395
g4
((lp1396
(lp1397
g516
ag583
aa(lp1398
g120
atp1399
ssS'cancelations'
p1400
(dp1401
g4
((lp1402
(lp1403
g89
aa(lp1404
g498
atp1405
ssS'pretences'
p1406
(dp1407
g4
((lp1408
(lp1409
g89
aa(lp1410
g201
aa(lp1411
g10
aa(lp1412
g498
ag498
ag498
atp1413
ssS'demand'
p1414
(dp1415
g4
((lp1416
(lp1417
g10
ag231
ag287
ag324
aa(lp1418
g89
ag201
aa(lp1419
g225
ag225
atp1420
ssS'effort'
p1421
(dp1422
g4
((lp1423
(lp1424
g127
ag147
ag431
aa(lp1425
g225
atp1426
ssS'hints'
p1427
(dp1428
g4
((lp1429
(lp1430
g10
aa(lp1431
g358
aa(lp1432
g225
ag225
atp1433
ssS'organizations'
p1434
(dp1435
g4
((lp1436
(lp1437
g89
aa(lp1438
g127
aa(lp1439
g225
ag225
atp1440
ssS'claims'
p1441
(dp1442
g4
((lp1443
(lp1444
g10
ag287
aa(lp1445
g583
aa(lp1446
g411
ag225
atp1447
ssS'challenge'
p1448
(dp1449
g4
((lp1450
(lp1451
g127
ag147
aa(lp1452
g927
aa(lp1453
g225
ag225
atp1454
ssS'accomplishment'
p1455
(dp1456
g4
((lp1457
(lp1458
g89
ag201
aa(lp1459
g120
atp1460
ssS'pretence'
p1461
(dp1462
g4
((lp1463
(lp1464
g89
aa(lp1465
g201
aa(lp1466
g10
aa(lp1467
g498
ag498
ag498
atp1468
ssS'publications'
p1469
(dp1470
g4
((lp1471
(lp1472
g89
aa(lp1473
g411
atp1474
ssS'discoveries'
p1475
(dp1476
g4
((lp1477
(lp1478
g10
aa(lp1479
g1069
ag1096
aa(lp1480
g120
ag120
atp1481
ssS'proof'
p1482
(dp1483
g4
((lp1484
(lp1485
g89
ag201
aa(lp1486
g10
ag287
aa(lp1487
g120
ag120
atp1488
ssS'claim'
p1489
(dp1490
g4
((lp1491
(lp1492
g10
ag287
aa(lp1493
g583
aa(lp1494
g411
ag225
atp1495
ssS'conferences'
p1496
(dp1497
g4
((lp1498
(lp1499
g127
ag147
ag431
aa(lp1500
g225
atp1501
ssS'laughs'
p1502
(dp1503
g4
((lp1504
(lp1505
g358
ag388
aa(lp1506
g120
atp1507
ssS'assumptions'
p1508
(dp1509
g4
((lp1510
(lp1511
g10
ag287
aa(lp1512
g225
atp1513
ssS'guarantee'
p1514
(dp1515
g4
((lp1516
(lp1517
g7
(g8
g9
NtRp1518
(dp1519
g12
S'thatClause_NOT_tensed'
p1520
sg14
(lp1521
I2
asg16
I1
sg17
Nsg18
S'[_{_\'_t_e_x_t_\'_:_ _(_\'_^_\'_,_ _[_\'_,_\'_]_)_}_,_ _{_\'_t_e_x_t_\'_:_ _(_\'_^_\'_,_ _[_\'_;_\'_,_ _\'_._\'_,_ _\'_!_\'_,_ _\'_?_\'_,_ _\'_._._._\'_,_ _\'_"_\'_,_ _\'_`_`_\'_]_)_,_ _\'_p_o_s_\'_:_ _(_\'_^_\'_,_ _[_\'_W_P_\'_,_ _\'_W_D_T_\'_,_ _\'_W_R_B_\'_,_ _\'_"_\'_,_ _"_\'_\'_"_,_ _\'_`_`_\'_]_)_}_,_ _\'_?_\'_,_ _{_\'_t_e_x_t_\'_:_ _(_\'_^_\'_,_ _[_\'_;_\'_,_ _\'_._\'_,_ _\'_!_\'_,_ _\'_?_\'_,_ _\'_._._._\'_,_ _\'_"_\'_,_ _\'_`_`_\'_]_)_,_ _\'_p_o_s_\'_:_ _(_\'_^_\'_,_ _[_\'_W_P_\'_,_ _\'_W_D_T_\'_,_ _\'_W_R_B_\'_,_ _\'_"_\'_,_ _"_\'_\'_"_,_ _\'_`_`_\'_]_)_}_,_ _\'_?_\'_,_ _{_\'_t_e_x_t_\'_:_ _(_\'_^_\'_,_ _[_\'_;_\'_,_ _\'_._\'_,_ _\'_!_\'_,_ _\'_?_\'_,_ _\'_._._._\'_,_ _\'_"_\'_,_ _\'_`_`_\'_]_)_,_ _\'_p_o_s_\'_:_ _(_\'_^_\'_,_ _[_\'_W_P_\'_,_ _\'_W_D_T_\'_,_ _\'_W_R_B_\'_,_ _\'_"_\'_,_ _"_\'_\'_"_,_ _\'_`_`_\'_]_)_}_,_ _\'_?_\'_,_ _{_\'_t_e_x_t_\'_:_ _(_\'_^_\'_,_ _[_\'_;_\'_,_ _\'_._\'_,_ _\'_!_\'_,_ _\'_?_\'_,_ _\'_._._._\'_,_ _\'_"_\'_,_ _\'_`_`_\'_]_)_,_ _\'_p_o_s_\'_:_ _(_\'_^_\'_,_ _[_\'_W_P_\'_,_ _\'_W_D_T_\'_,_ _\'_W_R_B_\'_,_ _\'_"_\'_,_ _"_\'_\'_"_,_ _\'_`_`_\'_]_)_}_,_ _\'_?_\'_,_ _{_\'_t_e_x_t_\'_:_ _(_\'_^_\'_,_ _[_\'_;_\'_,_ _\'_._\'_,_ _\'_!_\'_,_ _\'_?_\'_,_ _\'_._._._\'_,_ _\'_"_\'_,_ _\'_`_`_\'_]_)_,_ _\'_p_o_s_\'_:_ _(_\'_^_\'_,_ _[_\'_W_P_\'_,_ _\'_W_D_T_\'_,_ _\'_W_R_B_\'_,_ _\'_"_\'_,_ _"_\'_\'_"_,_ _\'_`_`_\'_]_)_}_,_ _\'_?_\'_,_ _{_\'_t_e_x_t_\'_:_ _(_\'_^_\'_,_ _[_\'_;_\'_,_ _\'_._\'_,_ _\'_!_\'_,_ _\'_?_\'_,_ _\'_._._._\'_,_ _\'_"_\'_,_ _\'_`_`_\'_]_)_,_ _\'_p_o_s_\'_:_ _(_\'_^_\'_,_ _[_\'_W_P_\'_,_ _\'_W_D_T_\'_,_ _\'_W_R_B_\'_,_ _\'_"_\'_,_ _"_\'_\'_"_,_ _\'_`_`_\'_]_)_}_,_ _\'_?_\'_,_ _{_\'_t_e_n_s_e_\'_:_ _\'_I_N_F_I_N_I_T_I_V_E_\'_,_ _\'_n_o_d_e_T_y_p_e_\'_:_ _\'_V_e_r_b_C_h_u_n_k_\'_,_ _\'_e_v_e_n_t_S_t_a_t_u_s_\'_:_ _\'_1_\'_,_ _\'_p_o_s_\'_:_ _\'_V_B_\'_}_]'
p1522
sg20
I0
sg21
(lp1523
I0
aI1
aI2
aI8
aI3
aI4
aI5
aI6
aI7
asg23
(dp1524
sg25
I1
sg26
(lp1525
(I0
I1
S"{'text': ('^', [','])}"
tp1526
a(I1
I2
S"{'tense': 'INFINITIVE', 'nodeType': 'VerbChunk', 'eventStatus': '1', 'pos': 'VB'}"
p1527
tp1528
a(I1
I3
S'{\'text\': (\'^\', [\';\', \'.\', \'!\', \'?\', \'...\', \'"\', \'``\']), \'pos\': (\'^\', [\'WP\', \'WDT\', \'WRB\', \'"\', "\'\'", \'``\'])}'
tp1529
a(I3
I2
g1527
tp1530
a(I3
I4
S'{\'text\': (\'^\', [\';\', \'.\', \'!\', \'?\', \'...\', \'"\', \'``\']), \'pos\': (\'^\', [\'WP\', \'WDT\', \'WRB\', \'"\', "\'\'", \'``\'])}'
tp1531
a(I4
I2
g1527
tp1532
a(I4
I5
S'{\'text\': (\'^\', [\';\', \'.\', \'!\', \'?\', \'...\', \'"\', \'``\']), \'pos\': (\'^\', [\'WP\', \'WDT\', \'WRB\', \'"\', "\'\'", \'``\'])}'
tp1533
a(I5
I2
g1527
tp1534
a(I5
I6
S'{\'text\': (\'^\', [\';\', \'.\', \'!\', \'?\', \'...\', \'"\', \'``\']), \'pos\': (\'^\', [\'WP\', \'WDT\', \'WRB\', \'"\', "\'\'", \'``\'])}'
tp1535
a(I6
I2
g1527
tp1536
a(I6
I7
S'{\'text\': (\'^\', [\';\', \'.\', \'!\', \'?\', \'...\', \'"\', \'``\']), \'pos\': (\'^\', [\'WP\', \'WDT\', \'WRB\', \'"\', "\'\'", \'``\'])}'
tp1537
a(I7
I2
g1527
tp1538
a(I7
I8
S'{\'text\': (\'^\', [\';\', \'.\', \'!\', \'?\', \'...\', \'"\', \'``\']), \'pos\': (\'^\', [\'WP\', \'WDT\', \'WRB\', \'"\', "\'\'", \'``\'])}'
tp1539
a(I8
I2
g1527
tp1540
asg86
I1
sg87
I1
sbag10
ag627
ag287
aa(lp1541
g1069
ag1096
aa(lp1542
g225
ag225
atp1543
ssS'needs'
p1544
(dp1545
g4
((lp1546
(lp1547
g127
ag147
ag431
aa(lp1548
g1069
ag1096
aa(lp1549
g225
ag225
atp1550
ssS'goal'
p1551
(dp1552
g4
((lp1553
(lp1554
g127
ag147
ag431
aa(lp1555
g89
ag201
aa(lp1556
g225
ag225
atp1557
ssS'discussion'
p1558
(dp1559
g4
((lp1560
(lp1561
g678
ag643
aa(lp1562
g89
ag358
aa(lp1563
g225
ag120
atp1564
ssS'struggles'
p1565
(dp1566
g4
((lp1567
(lp1568
g127
ag147
ag431
aa(lp1569
g516
ag583
aa(lp1570
g225
atp1571
ssS'delay'
p1572
(dp1573
g4
((lp1574
(lp1575
g89
ag201
aa(lp1576
g225
atp1577
ssS'development'
p1578
(dp1579
g4
((lp1580
(lp1581
g89
ag201
aa(lp1582
g120
atp1583
ssS'plans'
p1584
(dp1585
g4
((lp1586
(lp1587
g127
ag147
ag431
aa(lp1588
g1069
ag1096
aa(lp1589
g225
ag225
atp1590
ssS'adoptions'
p1591
(dp1592
g4
((lp1593
(lp1594
g89
aa(lp1595
g127
ag147
ag431
aa(lp1596
g120
ag225
atp1597
ssS'uses'
p1598
(dp1599
g4
((lp1600
(lp1601
g127
ag147
ag431
aa(lp1602
g225
atp1603
ssS'acceptances'
p1604
(dp1605
g4
((lp1606
(lp1607
g89
ag201
aa(lp1608
g10
ag231
ag287
ag324
aa(lp1609
g120
ag120
atp1610
ssS'destruction'
p1611
(dp1612
g4
((lp1613
(lp1614
g89
ag201
aa(lp1615
g120
atp1616
ssS'acquisitions'
p1617
(dp1618
g4
((lp1619
(lp1620
g89
aa(lp1621
g127
ag147
ag431
aa(lp1622
g120
ag225
atp1623
ssS'attempt'
p1624
(dp1625
g4
((lp1626
(lp1627
g127
ag147
ag431
aa(lp1628
g1069
ag1096
aa(lp1629
g89
aa(lp1630
g225
ag225
ag225
atp1631
ssS'charges'
p1632
(dp1633
g4
((lp1634
(lp1635
g516
aa(lp1636
g201
ag89
aa(lp1637
g10
ag287
aa(lp1638
g120
ag225
ag225
atp1639
ssS'position'
p1640
(dp1641
g4
((lp1642
(lp1643
g127
ag147
aa(lp1644
g201
aa(lp1645
g225
ag225
atp1646
ssS'clearance'
p1647
(dp1648
g4
((lp1649
(lp1650
g127
ag147
ag431
aa(lp1651
g225
atp1652
ssS'order'
p1653
(dp1654
g4
((lp1655
(lp1656
g127
ag147
ag431
aa(lp1657
g1069
ag1096
aa(lp1658
g201
aa(lp1659
g225
ag225
ag225
atp1660
ssS'talk'
p1661
(dp1662
g4
((lp1663
(lp1664
g358
aa(lp1665
g225
atp1666
ssS'destructions'
p1667
(dp1668
g4
((lp1669
(lp1670
g89
ag201
aa(lp1671
g120
atp1672
ssS'move'
p1673
(dp1674
g4
((lp1675
(lp1676
g7
(g8
g9
NtRp1677
(dp1678
g12
S'from_NPev'
p1679
sg14
(lp1680
I4
asg16
I1
sg17
Nsg18
S"[_{_'_n_o_d_e_T_y_p_e_'_:_ _'_T_o_k_e_n_'_,_ _'_p_o_s_'_:_ _'_P_D_T_'_}_,_ _'_?_'_,_ _{_'_n_o_d_e_T_y_p_e_'_:_ _'_N_o_u_n_C_h_u_n_k_'_}_,_ _'_?_'_,_ _{_'_t_e_x_t_'_:_ _'_f_r_o_m_'_}_,_ _{_'_n_o_d_e_T_y_p_e_'_:_ _'_T_o_k_e_n_'_,_ _'_p_o_s_'_:_ _'_P_D_T_'_}_,_ _'_?_'_,_ _'_(_'_,_ _{_'_n_o_d_e_T_y_p_e_'_:_ _'_N_o_u_n_C_h_u_n_k_'_,_ _'_e_v_e_n_t_S_t_a_t_u_s_'_:_ _'_1_'_}_,_ _'_|_'_,_ _{_'_n_o_d_e_T_y_p_e_'_:_ _'_T_o_k_e_n_'_,_ _'_p_o_s_'_:_ _'_D_T_'_}_,_ _'_(_'_,_ _{_'_n_o_d_e_T_y_p_e_'_:_ _'_T_o_k_e_n_'_,_ _'_p_o_s_'_:_ _[_'_J_J_'_,_ _'_J_J_R_'_,_ _'_J_J_S_'_]_}_,_ _'_|_'_,_ _{_'_n_o_d_e_T_y_p_e_'_:_ _'_V_e_r_b_C_h_u_n_k_'_,_ _'_p_o_s_'_:_ _[_'_V_G_B_'_,_ _'_V_B_N_'_]_}_,_ _'_|_'_,_ _'_|_'_,_ _{_'_p_o_s_'_:_ _'_S_Y_M_'_}_,_ _'_)_'_,_ _'_*_'_,_ _{_'_n_o_d_e_T_y_p_e_'_:_ _'_T_o_k_e_n_'_,_ _'_p_o_s_'_:_ _'_C_D_'_}_,_ _'_*_'_,_ _{_'_n_o_d_e_T_y_p_e_'_:_ _'_N_o_u_n_C_h_u_n_k_'_}_,_ _'_)_'_]"
p1681
sg20
I0
sg21
(lp1682
I7
aI0
aI1
aI2
aI3
aI4
aI5
aI6
asg23
(dp1683
sg25
I1
sg26
(lp1684
(I0
I1
S"{'nodeType': 'NounChunk'}"
p1685
tp1686
a(I0
I2
S"{'nodeType': 'Token', 'pos': 'PDT'}"
tp1687
a(I0
I3
S"{'text': 'from'}"
p1688
tp1689
a(I1
I3
g1688
tp1690
a(I2
I1
g1685
tp1691
a(I2
I3
g1688
tp1692
a(I3
I4
S"{'nodeType': 'NounChunk', 'eventStatus': '1'}"
p1693
tp1694
a(I3
I5
S"{'nodeType': 'Token', 'pos': 'PDT'}"
tp1695
a(I3
I6
S"{'nodeType': 'Token', 'pos': 'DT'}"
p1696
tp1697
a(I5
I4
g1693
tp1698
a(I5
I6
g1696
tp1699
a(I6
I4
S"{'nodeType': 'NounChunk'}"
tp1700
a(I6
I6
S"{'nodeType': 'Token', 'pos': ['JJ', 'JJR', 'JJS']}"
tp1701
a(I6
I6
S"{'nodeType': 'VerbChunk', 'pos': ['VGB', 'VBN']}"
tp1702
a(I6
I6
S"{'pos': 'SYM'}"
tp1703
a(I6
I7
S"{'nodeType': 'Token', 'pos': 'CD'}"
tp1704
a(I7
I4
S"{'nodeType': 'NounChunk'}"
tp1705
a(I7
I7
S"{'nodeType': 'Token', 'pos': 'CD'}"
tp1706
asg86
I1
sg87
I1
sbag728
aa(lp1707
g127
ag147
ag431
aa(lp1708
g120
ag225
atp1709
ssS'questions'
p1710
(dp1711
g4
((lp1712
(lp1713
g643
aa(lp1714
g225
atp1715
ssS'boosts'
p1716
(dp1717
g4
((lp1718
(lp1719
g1069
ag1096
aa(lp1720
g120
atp1721
ssS'presumption'
p1722
(dp1723
g4
((lp1724
(lp1725
g10
aa(lp1726
g225
atp1727
ssS'discloses'
p1728
(dp1729
g4
((lp1730
(lp1731
g89
ag201
aa(lp1732
g10
ag287
aa(lp1733
g120
ag120
atp1734
ssS'hint'
p1735
(dp1736
g4
((lp1737
(lp1738
g10
aa(lp1739
g358
aa(lp1740
g225
ag225
atp1741
ssS'responsabilities'
p1742
(dp1743
g4
((lp1744
(lp1745
g127
ag147
ag431
aa(lp1746
g89
ag201
ag583
ag516
aa(lp1747
g225
ag225
atp1748
ssS'expectations'
p1749
(dp1750
g4
((lp1751
(lp1752
g127
ag147
aa(lp1753
g10
ag287
aa(lp1754
g358
ag388
ag89
ag201
aa(lp1755
g225
ag225
ag225
atp1756
ssS'improvement'
p1757
(dp1758
g4
((lp1759
(lp1760
g89
ag1069
ag1096
aa(lp1761
g120
atp1762
ssS'offers'
p1763
(dp1764
g4
((lp1765
(lp1766
g127
ag147
ag431
aa(lp1767
g1069
ag1096
aa(lp1768
g225
ag225
atp1769
ssS'adoption'
p1770
(dp1771
g4
((lp1772
(lp1773
g89
aa(lp1774
g127
ag147
ag431
aa(lp1775
g120
ag225
atp1776
ssS'guarantees'
p1777
(dp1778
g4
((lp1779
(lp1780
g1518
ag10
ag627
ag287
aa(lp1781
g1069
ag1096
aa(lp1782
g225
ag225
atp1783
ssS'responsability'
p1784
(dp1785
g4
((lp1786
(lp1787
g127
ag147
ag431
aa(lp1788
g89
ag201
ag583
ag516
aa(lp1789
g225
ag225
atp1790
ssS'complaint'
p1791
(dp1792
g4
((lp1793
(lp1794
g10
aa(lp1795
g358
aa(lp1796
g411
ag120
atp1797
ssS'demands'
p1798
(dp1799
g4
((lp1800
(lp1801
g10
ag231
ag287
ag324
aa(lp1802
g89
ag201
aa(lp1803
g225
ag225
atp1804
ssS'conversations'
p1805
(dp1806
g4
((lp1807
(lp1808
g358
ag388
aa(lp1809
g583
ag516
aa(lp1810
g120
ag225
atp1811
ssS'bid'
p1812
(dp1813
g4
((lp1814
(lp1815
g583
ag516
aa(lp1816
g127
ag147
ag431
aa(lp1817
g225
ag225
atp1818
ssS'invitations'
p1819
(dp1820
g4
((lp1821
(lp1822
g127
ag147
ag431
aa(lp1823
g225
atp1824
ssS'renunciation'
p1825
(dp1826
g4
((lp1827
(lp1828
g89
aa(lp1829
g498
atp1830
ssS'increases'
p1831
(dp1832
g4
((lp1833
(lp1834
g89
ag201
aa(lp1835
g120
atp1836
ssS'preference'
p1837
(dp1838
g4
((lp1839
(lp1840
g516
aa(lp1841
g583
aa(lp1842
g225
ag225
atp1843
ssS'developments'
p1844
(dp1845
g4
((lp1846
(lp1847
g89
ag201
aa(lp1848
g120
atp1849
ssS'desire'
p1850
(dp1851
g4
((lp1852
(lp1853
g127
ag147
ag431
aa(lp1854
g225
atp1855
ssS'improvements'
p1856
(dp1857
g4
((lp1858
(lp1859
g89
ag1069
ag1096
aa(lp1860
g120
atp1861
ssS'references'
p1862
(dp1863
g4
((lp1864
(lp1865
g927
aa(lp1866
g120
atp1867
ssS'recognitions'
p1868
(dp1869
g4
((lp1870
(lp1871
g10
ag287
aa(lp1872
g89
aa(lp1873
g120
ag120
atp1874
ssS'proposals'
p1875
(dp1876
g4
((lp1877
(lp1878
g127
ag147
ag431
aa(lp1879
g10
ag287
aa(lp1880
g89
ag201
aa(lp1881
g225
ag225
ag225
atp1882
ssS'challenges'
p1883
(dp1884
g4
((lp1885
(lp1886
g127
ag147
aa(lp1887
g927
aa(lp1888
g225
ag225
atp1889
ssS'proofs'
p1890
(dp1891
g4
((lp1892
(lp1893
g89
ag201
aa(lp1894
g10
ag287
aa(lp1895
g120
ag120
atp1896
ssS'recognition'
p1897
(dp1898
g4
((lp1899
(lp1900
g10
ag287
aa(lp1901
g89
aa(lp1902
g120
ag120
atp1903
ssS'conjectures'
p1904
(dp1905
g4
((lp1906
(lp1907
g358
aa(lp1908
g10
ag627
ag231
ag287
ag324
aa(lp1909
g120
ag225
atp1910
ssS'decision'
p1911
(dp1912
g4
((lp1913
(lp1914
g127
ag147
ag431
aa(lp1915
g10
ag287
aa(lp1916
g469
aa(lp1917
g225
ag225
ag225
atp1918
ssS'increase'
p1919
(dp1920
g4
((lp1921
(lp1922
g89
ag201
aa(lp1923
g120
atp1924
ssS'investigation'
p1925
(dp1926
g4
((lp1927
(lp1928
g89
aa(lp1929
g120
atp1930
ssS'understandings'
p1931
(dp1932
g4
((lp1933
(lp1934
g89
aa(lp1935
g120
atp1936
ssS'disclose'
p1937
(dp1938
g4
((lp1939
(lp1940
g89
ag201
aa(lp1941
g10
ag287
aa(lp1942
g120
ag120
atp1943
ssS'perception'
p1944
(dp1945
g4
((lp1946
(lp1947
g10
aa(lp1948
g89
ag201
aa(lp1949
g120
ag120
atp1950
ssS'belief'
p1951
(dp1952
g4
((lp1953
(lp1954
g10
ag287
aa(lp1955
g225
atp1956
ssS'power'
p1957
(dp1958
g4
((lp1959
(lp1960
g127
ag147
ag431
aa(lp1961
g225
atp1962
ssS'agreement'
p1963
(dp1964
g4
((lp1965
(lp1966
g127
ag147
ag431
aa(lp1967
g516
aa(lp1968
g225
ag225
atp1969
ssS'expansion'
p1970
(dp1971
g4
((lp1972
(lp1973
g89
ag201
aa(lp1974
g120
atp1975
ssS'credits'
p1976
(dp1977
g4
((lp1978
(lp1979
g516
ag583
aa(lp1980
g10
aa(lp1981
g120
ag120
ag225
atp1982
ssS'appointments'
p1983
(dp1984
g4
((lp1985
(lp1986
g127
ag147
ag431
aa(lp1987
g225
atp1988
ssS'confirmations'
p1989
(dp1990
g4
((lp1991
(lp1992
g10
ag643
ag678
ag231
ag287
ag324
aa(lp1993
g89
aa(lp1994
g411
ag411
atp1995
ssS'struggle'
p1996
(dp1997
g4
((lp1998
(lp1999
g127
ag147
ag431
aa(lp2000
g516
ag583
aa(lp2001
g225
atp2002
ssS'certifications'
p2003
(dp2004
g4
((lp2005
(lp2006
g10
aa(lp2007
g89
aa(lp2008
g120
ag120
atp2009
ssS'extension'
p2010
(dp2011
g4
((lp2012
(lp2013
g89
aa(lp2014
g120
atp2015
ssS'intimations'
p2016
(dp2017
g4
((lp2018
(lp2019
g10
aa(lp2020
g411
atp2021
ssS'conversation'
p2022
(dp2023
g4
((lp2024
(lp2025
g358
ag388
aa(lp2026
g583
ag516
aa(lp2027
g120
ag225
atp2028
ssS'cancelation'
p2029
(dp2030
g4
((lp2031
(lp2032
g89
aa(lp2033
g498
atp2034
ssS'extensions'
p2035
(dp2036
g4
((lp2037
(lp2038
g89
aa(lp2039
g120
atp2040
ssS'invitation'
p2041
(dp2042
g4
((lp2043
(lp2044
g127
ag147
ag431
aa(lp2045
g225
atp2046
ssS'efforts'
p2047
(dp2048
g4
((lp2049
(lp2050
g127
ag147
ag431
aa(lp2051
g225
atp2052
ssS'statements'
p2053
(dp2054
g4
((lp2055
(lp2056
g10
ag231
aa(lp2057
g411
atp2058
ssS'presumptions'
p2059
(dp2060
g4
((lp2061
(lp2062
g10
aa(lp2063
g225
atp2064
ssS'remarks'
p2065
(dp2066
g4
((lp2067
(lp2068
g10
ag231
ag287
ag324
aa(lp2069
g1207
aa(lp2070
g411
ag120
atp2071
ssS'accomplishments'
p2072
(dp2073
g4
((lp2074
(lp2075
g89
ag201
aa(lp2076
g120
atp2077
ssS'promise'
p2078
(dp2079
g4
((lp2080
(lp2081
g127
ag147
aa(lp2082
g10
ag287
aa(lp2083
g201
ag89
aa(lp2084
g225
ag225
ag225
atp2085
ssS'publication'
p2086
(dp2087
g4
((lp2088
(lp2089
g89
aa(lp2090
g411
atp2091
ssS'support'
p2092
(dp2093
g4
((lp2094
(lp2095
g583
aa(lp2096
g89
aa(lp2097
g225
ag120
atp2098
ssS'question'
p2099
(dp2100
g4
((lp2101
(lp2102
g643
aa(lp2103
g225
atp2104
ssS'intention'
p2105
(dp2106
g4
((lp2107
(lp2108
g127
ag147
ag431
aa(lp2109
g89
ag201
aa(lp2110
g225
ag225
atp2111
ssS'assumption'
p2112
(dp2113
g4
((lp2114
(lp2115
g10
ag287
aa(lp2116
g225
atp2117
ssS'statement'
p2118
(dp2119
g4
((lp2120
(lp2121
g10
ag231
aa(lp2122
g411
atp2123
ssS'option'
p2124
(dp2125
g4
((lp2126
(lp2127
g127
ag147
ag431
aa(lp2128
g201
ag89
aa(lp2129
g225
ag225
atp2130
ssS'offer'
p2131
(dp2132
g4
((lp2133
(lp2134
g127
ag147
ag431
aa(lp2135
g1069
ag1096
aa(lp2136
g225
ag225
atp2137
ssS'attempted'
p2138
(dp2139
g4
((lp2140
(lp2141
g127
ag147
ag431
aa(lp2142
g1069
ag1096
aa(lp2143
g89
aa(lp2144
g225
ag225
ag225
atp2145
ssS'failure'
p2146
(dp2147
g4
((lp2148
(lp2149
g127
ag147
ag431
aa(lp2150
g201
aa(lp2151
g498
ag498
atp2152
ssS'goals'
p2153
(dp2154
g4
((lp2155
(lp2156
g127
ag147
ag431
aa(lp2157
g89
ag201
aa(lp2158
g225
ag225
atp2159
ssS'hopes'
p2160
(dp2161
g4
((lp2162
(lp2163
g127
ag147
ag431
aa(lp2164
g10
ag287
aa(lp2165
g225
ag225
atp2166
ssS'rejection'
p2167
(dp2168
g4
((lp2169
(lp2170
g89
aa(lp2171
g120
atp2172
ssS'wish'
p2173
(dp2174
g4
((lp2175
(lp2176
g10
ag287
aa(lp2177
g127
ag147
aa(lp2178
g583
aa(lp2179
g781
ag824
aa(lp2180
g848
ag891
aa(lp2181
g225
ag225
ag225
ag498
ag120
atp2182
ssS'declarations'
p2183
(dp2184
g4
((lp2185
(lp2186
g10
ag231
ag287
ag324
aa(lp2187
g358
ag388
aa(lp2188
g411
ag120
atp2189
ssS'bids'
p2190
(dp2191
g4
((lp2192
(lp2193
g583
ag516
aa(lp2194
g127
ag147
ag431
aa(lp2195
g225
ag225
atp2196
ssS'feeling'
p2197
(dp2198
g4
((lp2199
(lp2200
g10
ag287
aa(lp2201
g89
ag201
aa(lp2202
g411
ag411
atp2203
ssS'powers'
p2204
(dp2205
g4
((lp2206
(lp2207
g127
ag147
ag431
aa(lp2208
g225
atp2209
ssS'beliefs'
p2210
(dp2211
g4
((lp2212
(lp2213
g10
ag287
aa(lp2214
g225
atp2215
ssS'acquisition'
p2216
(dp2217
g4
((lp2218
(lp2219
g89
aa(lp2220
g127
ag147
ag431
aa(lp2221
g120
ag225
atp2222
ssS'promises'
p2223
(dp2224
g4
((lp2225
(lp2226
g127
ag147
aa(lp2227
g10
ag287
aa(lp2228
g201
ag89
aa(lp2229
g225
ag225
ag225
atp2230
ssS'suspicions'
p2231
(dp2232
g4
((lp2233
(lp2234
g10
ag287
aa(lp2235
g201
ag89
aa(lp2236
g225
ag225
atp2237
ssS'need'
p2238
(dp2239
g4
((lp2240
(lp2241
g127
ag147
ag431
aa(lp2242
g1069
ag1096
aa(lp2243
g225
ag225
atp2244
ssS'moves'
p2245
(dp2246
g4
((lp2247
(lp2248
g1677
ag728
aa(lp2249
g127
ag147
ag431
aa(lp2250
g120
ag225
atp2251
ssS'demonstration'
p2252
(dp2253
g4
((lp2254
(lp2255
g89
aa(lp2256
g1007
aa(lp2257
g120
ag120
atp2258
ssS'orders'
p2259
(dp2260
g4
((lp2261
(lp2262
g127
ag147
ag431
aa(lp2263
g1069
ag1096
aa(lp2264
g201
aa(lp2265
g225
ag225
ag225
atp2266
ssS'negotiations'
p2267
(dp2268
g4
((lp2269
(lp2270
g358
ag388
aa(lp2271
g201
ag89
aa(lp2272
g583
ag516
aa(lp2273
g127
aa(lp2274
g225
ag225
ag225
ag225
atp2275
ssS'fears'
p2276
(dp2277
g4
((lp2278
(lp2279
g10
ag287
aa(lp2280
g127
ag147
aa(lp2281
g89
ag201
aa(lp2282
g225
ag225
ag120
atp2283
ssS'excuses'
p2284
(dp2285
g4
((lp2286
(lp2287
g516
ag583
aa(lp2288
g120
atp2289
ssS'concerns'
p2290
(dp2291
g4
((lp2292
(lp2293
g358
ag388
aa(lp2294
g120
atp2295
ssS'impositions'
p2296
(dp2297
g4
((lp2298
(lp2299
g89
aa(lp2300
g225
atp2301
ssS'subject'
p2302
(dp2303
g4
((lp2304
(lp2305
g927
aa(lp2306
g127
ag147
ag431
aa(lp2307
g225
ag225
atp2308
ssS'investigations'
p2309
(dp2310
g4
((lp2311
(lp2312
g89
aa(lp2313
g120
atp2314
ssS'intentions'
p2315
(dp2316
g4
((lp2317
(lp2318
g127
ag147
ag431
aa(lp2319
g89
ag201
aa(lp2320
g225
ag225
atp2321
ssS'chance'
p2322
(dp2323
g4
((lp2324
(lp2325
g10
aa(lp2326
g127
ag147
aa(lp2327
g201
aa(lp2328
g89
aa(lp2329
g225
atp2330
ssS'intent'
p2331
(dp2332
g4
((lp2333
(lp2334
g127
ag147
ag431
aa(lp2335
g225
atp2336
ssS'plan'
p2337
(dp2338
g4
((lp2339
(lp2340
g127
ag147
ag431
aa(lp2341
g1069
ag1096
aa(lp2342
g225
ag225
atp2343
ssS'intimation'
p2344
(dp2345
g4
((lp2346
(lp2347
g10
aa(lp2348
g411
atp2349
ssS'organization'
p2350
(dp2351
g4
((lp2352
(lp2353
g89
aa(lp2354
g127
aa(lp2355
g225
ag225
atp2356
ssS'complaints'
p2357
(dp2358
g4
((lp2359
(lp2360
g10
aa(lp2361
g358
aa(lp2362
g411
ag120
atp2363
ssS'achievement'
p2364
(dp2365
g4
((lp2366
(lp2367
g89
ag201
aa(lp2368
g120
atp2369
ssS'preferences'
p2370
(dp2371
g4
((lp2372
(lp2373
g516
aa(lp2374
g583
aa(lp2375
g225
ag225
atp2376
ssS'calls'
p2377
(dp2378
g4
((lp2379
(lp2380
g516
ag583
aa(lp2381
g127
ag147
ag431
aa(lp2382
g225
ag225
atp2383
ssS'implications'
p2384
(dp2385
g4
((lp2386
(lp2387
g10
ag231
ag287
ag324
aa(lp2388
g225
atp2389
ssS'rejections'
p2390
(dp2391
g4
((lp2392
(lp2393
g89
aa(lp2394
g120
atp2395
ss.