(lp1
(iutilities.FSA
FSA
p2
(dp3
S'fsaname'
p4
S'beAdjPredCompl1'
p5
sS'finalStates'
p6
(lp7
I2
asS'_isTrimmed'
p8
I1
sS'alphabet'
p9
NsS'label'
p10
S"[_{_'_t_e_x_t_'_:_ _(_'_^_'_,_ _[_'_a_'_,_ _'_a_n_'_,_ _'_t_h_e_'_,_ _'_a_s_'_]_)_,_ _'_n_o_d_e_T_y_p_e_'_:_ _'_T_o_k_e_n_'_,_ _'_p_o_s_'_:_ _[_'_R_B_'_,_ _'_R_B_R_'_,_ _'_R_B_S_'_,_ _'_W_D_T_'_,_ _'_D_T_'_,_ _'_P_R_P_'_,_ _'_R_P_'_,_ _'_I_N_'_]_}_,_ _'_*_'_,_ _{_'_n_o_d_e_T_y_p_e_'_:_ _'_A_d_j_e_c_t_i_v_e_T_o_k_e_n_'_,_ _'_p_o_s_'_:_ _'_J_J_R_'_}_,_ _'_*_'_,_ _{_'_n_o_d_e_T_y_p_e_'_:_ _'_A_d_j_e_c_t_i_v_e_T_o_k_e_n_'_,_ _'_p_o_s_'_:_ _'_J_J_'_}_]"
p11
sS'initialState'
p12
I0
sS'states'
p13
(lp14
I2
aI0
aI1
asS'_arcMetadata'
p15
(dp16
sS'_isSorted'
p17
I1
sS'transitions'
p18
(lp19
(I0
I1
S"{'nodeType': 'AdjectiveToken', 'pos': 'JJR'}"
p20
tp21
a(I0
I0
S"{'text': ('^', ['a', 'an', 'the', 'as']), 'nodeType': 'Token', 'pos': ['RB', 'RBR', 'RBS', 'WDT', 'DT', 'PRP', 'RP', 'IN']}"
tp22
a(I0
I2
S"{'nodeType': 'AdjectiveToken', 'pos': 'JJ'}"
p23
tp24
a(I1
I1
g20
tp25
a(I1
I2
g23
tp26
asS'_isDeterminized'
p27
I1
sS'_isMinimized'
p28
I1
sba(iutilities.FSA
FSA
p29
(dp30
g4
S'beAdjPredCompl2'
p31
sg6
(lp32
I1
asg8
I1
sg9
Nsg10
S"[_{_'_t_e_x_t_'_:_ _(_'_^_'_,_ _[_'_a_'_,_ _'_a_n_'_,_ _'_t_h_e_'_,_ _'_a_s_'_]_)_,_ _'_n_o_d_e_T_y_p_e_'_:_ _'_T_o_k_e_n_'_,_ _'_p_o_s_'_:_ _[_'_R_B_'_,_ _'_R_B_R_'_,_ _'_R_B_S_'_,_ _'_W_D_T_'_,_ _'_D_T_'_,_ _'_P_R_P_'_,_ _'_R_P_'_,_ _'_I_N_'_]_}_,_ _'_*_'_,_ _{_'_n_o_d_e_T_y_p_e_'_:_ _'_A_d_j_e_c_t_i_v_e_T_o_k_e_n_'_,_ _'_p_o_s_'_:_ _'_J_J_R_'_}_]"
p33
sg12
I0
sg13
(lp34
I0
aI1
asg15
(dp35
sg17
I1
sg18
(lp36
(I0
I1
S"{'nodeType': 'AdjectiveToken', 'pos': 'JJR'}"
tp37
a(I0
I0
S"{'text': ('^', ['a', 'an', 'the', 'as']), 'nodeType': 'Token', 'pos': ['RB', 'RBR', 'RBS', 'WDT', 'DT', 'PRP', 'RP', 'IN']}"
tp38
asg27
I1
sg28
I1
sba.