(lp1
ccopy_reg
_reconstructor
p2
(cutilities.FSA
FSA
p3
c__builtin__
object
p4
NtRp5
(dp6
S'fsaname'
p7
S'keepAdj1'
p8
sS'finalStates'
p9
(lp10
I2
asS'_isTrimmed'
p11
I1
sS'alphabet'
p12
NsS'label'
p13
S"[_{_'_t_e_x_t_'_:_ _(_'_^_'_,_ _[_'_a_'_,_ _'_a_n_'_,_ _'_t_h_e_'_,_ _'_a_s_'_]_)_,_ _'_n_o_d_e_T_y_p_e_'_:_ _'_T_o_k_e_n_'_,_ _'_p_o_s_'_:_ _[_'_R_B_'_,_ _'_R_B_R_'_,_ _'_R_B_S_'_,_ _'_W_D_T_'_,_ _'_D_T_'_,_ _'_P_R_P_'_,_ _'_R_P_'_,_ _'_I_N_'_]_}_,_ _'_*_'_,_ _{_'_n_o_d_e_T_y_p_e_'_:_ _'_N_o_u_n_C_h_u_n_k_'_}_,_ _{_'_n_o_d_e_T_y_p_e_'_:_ _'_A_d_j_e_c_t_i_v_e_T_o_k_e_n_'_,_ _'_p_o_s_'_:_ _'_J_J_R_'_}_,_ _'_*_'_,_ _{_'_n_o_d_e_T_y_p_e_'_:_ _'_A_d_j_e_c_t_i_v_e_T_o_k_e_n_'_,_ _'_p_o_s_'_:_ _'_J_J_'_}_]"
p14
sS'initialState'
p15
I0
sS'states'
p16
(lp17
I1
aI0
aI2
asS'_arcMetadata'
p18
(dp19
sS'_isSorted'
p20
I1
sS'transitions'
p21
(lp22
(I0
I1
S"{'nodeType': 'NounChunk'}"
tp23
a(I0
I0
S"{'text': ('^', ['a', 'an', 'the', 'as']), 'nodeType': 'Token', 'pos': ['RB', 'RBR', 'RBS', 'WDT', 'DT', 'PRP', 'RP', 'IN']}"
tp24
a(I1
I1
S"{'nodeType': 'AdjectiveToken', 'pos': 'JJR'}"
tp25
a(I1
I2
S"{'nodeType': 'AdjectiveToken', 'pos': 'JJ'}"
tp26
asS'_isDeterminized'
p27
I1
sS'_isMinimized'
p28
I1
sbag2
(g3
g4
NtRp29
(dp30
g7
S'keepAdj2'
p31
sg9
(lp32
I2
asg11
I1
sg12
Nsg13
S"[_{_'_t_e_x_t_'_:_ _(_'_^_'_,_ _[_'_a_'_,_ _'_a_n_'_,_ _'_t_h_e_'_,_ _'_a_s_'_]_)_,_ _'_n_o_d_e_T_y_p_e_'_:_ _'_T_o_k_e_n_'_,_ _'_p_o_s_'_:_ _[_'_R_B_'_,_ _'_R_B_R_'_,_ _'_R_B_S_'_,_ _'_W_D_T_'_,_ _'_D_T_'_,_ _'_P_R_P_'_,_ _'_R_P_'_,_ _'_I_N_'_]_}_,_ _'_*_'_,_ _{_'_n_o_d_e_T_y_p_e_'_:_ _'_N_o_u_n_C_h_u_n_k_'_}_,_ _{_'_n_o_d_e_T_y_p_e_'_:_ _'_A_d_j_e_c_t_i_v_e_T_o_k_e_n_'_,_ _'_p_o_s_'_:_ _'_J_J_R_'_}_]"
p33
sg15
I0
sg16
(lp34
I2
aI0
aI1
asg18
(dp35
sg20
I1
sg21
(lp36
(I0
I1
S"{'nodeType': 'NounChunk'}"
tp37
a(I0
I0
S"{'text': ('^', ['a', 'an', 'the', 'as']), 'nodeType': 'Token', 'pos': ['RB', 'RBR', 'RBS', 'WDT', 'DT', 'PRP', 'RP', 'IN']}"
tp38
a(I1
I2
S"{'nodeType': 'AdjectiveToken', 'pos': 'JJR'}"
tp39
asg27
I1
sg28
I1
sba.