(lp1
ccopy_reg
_reconstructor
p2
(cutilities.FSA
FSA
p3
c__builtin__
object
p4
NtRp5
(dp6
S'fsaname'
p7
S'modal'
p8
sS'finalStates'
p9
(lp10
I4
asS'_isTrimmed'
p11
I1
sS'alphabet'
p12
NsS'label'
p13
S'[_{_\'_t_e_x_t_\'_:_ _(_\'_^_\'_,_ _[_\'_a_\'_,_ _\'_a_n_\'_,_ _\'_t_h_e_\'_,_ _\'_a_s_\'_]_)_,_ _\'_n_o_d_e_T_y_p_e_\'_:_ _[_\'_T_o_k_e_n_\'_,_ _\'_A_d_j_e_c_t_i_v_e_T_o_k_e_n_\'_]_,_ _\'_p_o_s_\'_:_ _[_\'_R_B_\'_,_ _\'_W_D_T_\'_,_ _\'_D_T_\'_,_ _\'_J_J_\'_,_ _\'_P_R_P_\'_]_}_,_ _\'_*_\'_,_ _\'_(_\'_,_ _{_\'_t_e_x_t_\'_:_ _\'_b_e_\'_,_ _\'_n_o_d_e_T_y_p_e_\'_:_ _\'_T_o_k_e_n_\'_,_ _\'_p_o_s_\'_:_ _[_\'_V_B_\'_,_ _\'_V_B_P_\'_]_}_,_ _{_\'_t_e_x_t_\'_:_ _(_\'_^_\'_,_ _[_\'_a_\'_,_ _\'_a_n_\'_,_ _\'_t_h_e_\'_,_ _\'_a_s_\'_]_)_,_ _\'_n_o_d_e_T_y_p_e_\'_:_ _[_\'_T_o_k_e_n_\'_,_ _\'_A_d_j_e_c_t_i_v_e_T_o_k_e_n_\'_]_,_ _\'_p_o_s_\'_:_ _[_\'_R_B_\'_,_ _\'_W_D_T_\'_,_ _\'_D_T_\'_,_ _\'_J_J_\'_,_ _\'_P_R_P_\'_]_}_,_ _\'_*_\'_,_ _{_\'_t_e_x_t_\'_:_ _\'_g_o_i_n_g_\'_,_ _\'_n_o_d_e_T_y_p_e_\'_:_ _\'_T_o_k_e_n_\'_}_,_ _{_\'_t_e_x_t_\'_:_ _\'_t_o_\'_,_ _\'_n_o_d_e_T_y_p_e_\'_:_ _\'_T_o_k_e_n_\'_}_,_ _\'_|_\'_,_ _{_\'_t_e_x_t_\'_:_ _[_\'_n_o_t_\'_,_ _"_n_\'_t_"_,_ _\'_n_e_i_t_h_e_r_\'_]_,_ _\'_n_o_d_e_T_y_p_e_\'_:_ _\'_T_o_k_e_n_\'_}_,_ _\'_|_\'_,_ _{_\'_t_e_x_t_\'_:_ _\'_h_a_v_e_\'_,_ _\'_n_o_d_e_T_y_p_e_\'_:_ _\'_T_o_k_e_n_\'_,_ _\'_p_o_s_\'_:_ _[_\'_V_B_\'_,_ _\'_V_B_P_\'_]_}_,_ _{_\'_t_e_x_t_\'_:_ _\'_h_a_d_\'_,_ _\'_n_o_d_e_T_y_p_e_\'_:_ _\'_T_o_k_e_n_\'_}_,_ _\'_?_\'_,_ _{_\'_t_e_x_t_\'_:_ _\'_t_o_\'_,_ _\'_n_o_d_e_T_y_p_e_\'_:_ _\'_T_o_k_e_n_\'_}_,_ _\'_|_\'_,_ _{_\'_t_e_x_t_\'_:_ _\'_,_\'_,_ _\'_n_o_d_e_T_y_p_e_\'_:_ _\'_T_o_k_e_n_\'_}_,_ _\'_._\'_,_ _\'_._\'_,_ _\'_._\'_,_ _\'_?_\'_,_ _\'_._\'_,_ _\'_?_\'_,_ _{_\'_t_e_x_t_\'_:_ _\'_,_\'_,_ _\'_n_o_d_e_T_y_p_e_\'_:_ _\'_T_o_k_e_n_\'_}_,_ _\'_)_\'_,_ _\'_*_\'_,_ _{_\'_t_e_x_t_\'_:_ _(_\'_^_\'_,_ _[_\'_a_\'_,_ _\'_a_n_\'_,_ _\'_t_h_e_\'_,_ _\'_a_s_\'_]_)_,_ _\'_n_o_d_e_T_y_p_e_\'_:_ _[_\'_T_o_k_e_n_\'_,_ _\'_A_d_j_e_c_t_i_v_e_T_o_k_e_n_\'_]_,_ _\'_p_o_s_\'_:_ _[_\'_R_B_\'_,_ _\'_W_D_T_\'_,_ _\'_D_T_\'_,_ _\'_J_J_\'_,_ _\'_P_R_P_\'_]_}_,_ _\'_*_\'_,_ _\'_(_\'_,_ _{_\'_t_e_x_t_\'_:_ _\'_h_a_v_e_\'_,_ _\'_n_o_d_e_T_y_p_e_\'_:_ _\'_T_o_k_e_n_\'_,_ _\'_p_o_s_\'_:_ _[_\'_V_B_\'_,_ _\'_V_B_P_\'_]_}_,_ _{_\'_t_e_x_t_\'_:_ _(_\'_^_\'_,_ _[_\'_a_\'_,_ _\'_a_n_\'_,_ _\'_t_h_e_\'_,_ _\'_a_s_\'_]_)_,_ _\'_n_o_d_e_T_y_p_e_\'_:_ _[_\'_T_o_k_e_n_\'_,_ _\'_A_d_j_e_c_t_i_v_e_T_o_k_e_n_\'_]_,_ _\'_p_o_s_\'_:_ _[_\'_R_B_\'_,_ _\'_W_D_T_\'_,_ _\'_D_T_\'_,_ _\'_J_J_\'_,_ _\'_P_R_P_\'_]_}_,_ _\'_*_\'_,_ _{_\'_t_e_x_t_\'_:_ _\'_b_e_e_n_\'_,_ _\'_n_o_d_e_T_y_p_e_\'_:_ _\'_T_o_k_e_n_\'_}_,_ _{_\'_t_e_x_t_\'_:_ _(_\'_^_\'_,_ _[_\'_a_\'_,_ _\'_a_n_\'_,_ _\'_t_h_e_\'_,_ _\'_a_s_\'_]_)_,_ _\'_n_o_d_e_T_y_p_e_\'_:_ _[_\'_T_o_k_e_n_\'_,_ _\'_A_d_j_e_c_t_i_v_e_T_o_k_e_n_\'_]_,_ _\'_p_o_s_\'_:_ _[_\'_R_B_\'_,_ _\'_W_D_T_\'_,_ _\'_D_T_\'_,_ _\'_J_J_\'_,_ _\'_P_R_P_\'_]_}_,_ _\'_*_\'_,_ _{_\'_t_e_x_t_\'_:_ _\'_b_e_i_n_g_\'_,_ _\'_n_o_d_e_T_y_p_e_\'_:_ _\'_T_o_k_e_n_\'_}_,_ _{_\'_t_e_x_t_\'_:_ _(_\'_^_\'_,_ _[_\'_a_\'_,_ _\'_a_n_\'_,_ _\'_t_h_e_\'_,_ _\'_a_s_\'_]_)_,_ _\'_n_o_d_e_T_y_p_e_\'_:_ _[_\'_T_o_k_e_n_\'_,_ _\'_A_d_j_e_c_t_i_v_e_T_o_k_e_n_\'_]_,_ _\'_p_o_s_\'_:_ _[_\'_R_B_\'_,_ _\'_W_D_T_\'_,_ _\'_D_T_\'_,_ _\'_J_J_\'_,_ _\'_P_R_P_\'_]_}_,_ _\'_*_\'_,_ _{_\'_n_o_d_e_T_y_p_e_\'_:_ _\'_T_o_k_e_n_\'_,_ _\'_p_o_s_\'_:_ _[_\'_V_B_D_\'_,_ _\'_V_B_N_\'_]_}_,_ _\'_|_\'_,_ _{_\'_t_e_x_t_\'_:_ _\'_b_e_\'_,_ _\'_n_o_d_e_T_y_p_e_\'_:_ _\'_T_o_k_e_n_\'_,_ _\'_p_o_s_\'_:_ _[_\'_V_B_\'_,_ _\'_V_B_P_\'_]_}_,_ _{_\'_t_e_x_t_\'_:_ _(_\'_^_\'_,_ _[_\'_a_\'_,_ _\'_a_n_\'_,_ _\'_t_h_e_\'_,_ _\'_a_s_\'_]_)_,_ _\'_n_o_d_e_T_y_p_e_\'_:_ _[_\'_T_o_k_e_n_\'_,_ _\'_A_d_j_e_c_t_i_v_e_T_o_k_e_n_\'_]_,_ _\'_p_o_s_\'_:_ _[_\'_R_B_\'_,_ _\'_W_D_T_\'_,_ _\'_D_T_\'_,_ _\'_J_J_\'_,_ _\'_P_R_P_\'_]_}_,_ _\'_*_\'_,_ _{_\'_t_e_x_t_\'_:_ _\'_b_e_i_n_g_\'_,_ _\'_n_o_d_e_T_y_p_e_\'_:_ _\'_T_o_k_e_n_\'_}_,_ _{_\'_t_e_x_t_\'_:_ _(_\'_^_\'_,_ _[_\'_a_\'_,_ _\'_a_n_\'_,_ _\'_t_h_e_\'_,_ _\'_a_s_\'_]_)_,_ _\'_n_o_d_e_T_y_p_e_\'_:_ _[_\'_T_o_k_e_n_\'_,_ _\'_A_d_j_e_c_t_i_v_e_T_o_k_e_n_\'_]_,_ _\'_p_o_s_\'_:_ _[_\'_R_B_\'_,_ _\'_W_D_T_\'_,_ _\'_D_T_\'_,_ _\'_J_J_\'_,_ _\'_P_R_P_\'_]_}_,_ _\'_*_\'_,_ _{_\'_n_o_d_e_T_y_p_e_\'_:_ _\'_T_o_k_e_n_\'_,_ _\'_p_o_s_\'_:_ _[_\'_V_B_D_\'_,_ _\'_V_B_N_\'_]_}_,_ _\'_|_\'_,_ _{_\'_t_e_x_t_\'_:_ _\'_h_a_v_e_\'_,_ _\'_n_o_d_e_T_y_p_e_\'_:_ _\'_T_o_k_e_n_\'_,_ _\'_p_o_s_\'_:_ _[_\'_V_B_\'_,_ _\'_V_B_P_\'_]_}_,_ _{_\'_t_e_x_t_\'_:_ _(_\'_^_\'_,_ _[_\'_a_\'_,_ _\'_a_n_\'_,_ _\'_t_h_e_\'_,_ _\'_a_s_\'_]_)_,_ _\'_n_o_d_e_T_y_p_e_\'_:_ _[_\'_T_o_k_e_n_\'_,_ _\'_A_d_j_e_c_t_i_v_e_T_o_k_e_n_\'_]_,_ _\'_p_o_s_\'_:_ _[_\'_R_B_\'_,_ _\'_W_D_T_\'_,_ _\'_D_T_\'_,_ _\'_J_J_\'_,_ _\'_P_R_P_\'_]_}_,_ _\'_*_\'_,_ _{_\'_t_e_x_t_\'_:_ _\'_b_e_e_n_\'_,_ _\'_n_o_d_e_T_y_p_e_\'_:_ _\'_T_o_k_e_n_\'_}_,_ _{_\'_t_e_x_t_\'_:_ _(_\'_^_\'_,_ _[_\'_a_\'_,_ _\'_a_n_\'_,_ _\'_t_h_e_\'_,_ _\'_a_s_\'_]_)_,_ _\'_n_o_d_e_T_y_p_e_\'_:_ _[_\'_T_o_k_e_n_\'_,_ _\'_A_d_j_e_c_t_i_v_e_T_o_k_e_n_\'_]_,_ _\'_p_o_s_\'_:_ _[_\'_R_B_\'_,_ _\'_W_D_T_\'_,_ _\'_D_T_\'_,_ _\'_J_J_\'_,_ _\'_P_R_P_\'_]_}_,_ _\'_*_\'_,_ _{_\'_n_o_d_e_T_y_p_e_\'_:_ _\'_T_o_k_e_n_\'_,_ _\'_p_o_s_\'_:_ _[_\'_V_B_D_\'_,_ _\'_V_B_N_\'_]_}_,_ _\'_|_\'_,_ _{_\'_t_e_x_t_\'_:_ _\'_h_a_v_e_\'_,_ _\'_n_o_d_e_T_y_p_e_\'_:_ _\'_T_o_k_e_n_\'_,_ _\'_p_o_s_\'_:_ _[_\'_V_B_\'_,_ _\'_V_B_P_\'_]_}_,_ _{_\'_t_e_x_t_\'_:_ _(_\'_^_\'_,_ _[_\'_a_\'_,_ _\'_a_n_\'_,_ _\'_t_h_e_\'_,_ _\'_a_s_\'_]_)_,_ _\'_n_o_d_e_T_y_p_e_\'_:_ _[_\'_T_o_k_e_n_\'_,_ _\'_A_d_j_e_c_t_i_v_e_T_o_k_e_n_\'_]_,_ _\'_p_o_s_\'_:_ _[_\'_R_B_\'_,_ _\'_W_D_T_\'_,_ _\'_D_T_\'_,_ _\'_J_J_\'_,_ _\'_P_R_P_\'_]_}_,_ _\'_*_\'_,_ _{_\'_t_e_x_t_\'_:_ _\'_b_e_e_n_\'_,_ _\'_n_o_d_e_T_y_p_e_\'_:_ _\'_T_o_k_e_n_\'_}_,_ _{_\'_t_e_x_t_\'_:_ _(_\'_^_\'_,_ _[_\'_a_\'_,_ _\'_a_n_\'_,_ _\'_t_h_e_\'_,_ _\'_a_s_\'_]_)_,_ _\'_n_o_d_e_T_y_p_e_\'_:_ _[_\'_T_o_k_e_n_\'_,_ _\'_A_d_j_e_c_t_i_v_e_T_o_k_e_n_\'_]_,_ _\'_p_o_s_\'_:_ _[_\'_R_B_\'_,_ _\'_W_D_T_\'_,_ _\'_D_T_\'_,_ _\'_J_J_\'_,_ _\'_P_R_P_\'_]_}_,_ _\'_*_\'_,_ _{_\'_n_o_d_e_T_y_p_e_\'_:_ _\'_T_o_k_e_n_\'_,_ _\'_p_o_s_\'_:_ _\'_V_B_G_\'_}_,_ _\'_|_\'_,_ _{_\'_t_e_x_t_\'_:_ _\'_b_e_\'_,_ _\'_n_o_d_e_T_y_p_e_\'_:_ _\'_T_o_k_e_n_\'_,_ _\'_p_o_s_\'_:_ _[_\'_V_B_\'_,_ _\'_V_B_P_\'_]_}_,_ _{_\'_t_e_x_t_\'_:_ _(_\'_^_\'_,_ _[_\'_a_\'_,_ _\'_a_n_\'_,_ _\'_t_h_e_\'_,_ _\'_a_s_\'_]_)_,_ _\'_n_o_d_e_T_y_p_e_\'_:_ _[_\'_T_o_k_e_n_\'_,_ _\'_A_d_j_e_c_t_i_v_e_T_o_k_e_n_\'_]_,_ _\'_p_o_s_\'_:_ _[_\'_R_B_\'_,_ _\'_W_D_T_\'_,_ _\'_D_T_\'_,_ _\'_J_J_\'_,_ _\'_P_R_P_\'_]_}_,_ _\'_*_\'_,_ _{_\'_n_o_d_e_T_y_p_e_\'_:_ _\'_T_o_k_e_n_\'_,_ _\'_p_o_s_\'_:_ _[_\'_V_B_D_\'_,_ _\'_V_B_N_\'_]_}_,_ _\'_|_\'_,_ _{_\'_t_e_x_t_\'_:_ _\'_b_e_\'_,_ _\'_n_o_d_e_T_y_p_e_\'_:_ _\'_T_o_k_e_n_\'_,_ _\'_p_o_s_\'_:_ _[_\'_V_B_\'_,_ _\'_V_B_P_\'_]_}_,_ _{_\'_t_e_x_t_\'_:_ _(_\'_^_\'_,_ _[_\'_a_\'_,_ _\'_a_n_\'_,_ _\'_t_h_e_\'_,_ _\'_a_s_\'_]_)_,_ _\'_n_o_d_e_T_y_p_e_\'_:_ _[_\'_T_o_k_e_n_\'_,_ _\'_A_d_j_e_c_t_i_v_e_T_o_k_e_n_\'_]_,_ _\'_p_o_s_\'_:_ _[_\'_R_B_\'_,_ _\'_W_D_T_\'_,_ _\'_D_T_\'_,_ _\'_J_J_\'_,_ _\'_P_R_P_\'_]_}_,_ _\'_*_\'_,_ _{_\'_n_o_d_e_T_y_p_e_\'_:_ _\'_T_o_k_e_n_\'_,_ _\'_p_o_s_\'_:_ _\'_V_B_G_\'_}_,_ _\'_|_\'_,_ _{_\'_t_e_x_t_\'_:_ _\'_h_a_v_e_\'_,_ _\'_n_o_d_e_T_y_p_e_\'_:_ _\'_T_o_k_e_n_\'_,_ _\'_p_o_s_\'_:_ _[_\'_V_B_\'_,_ _\'_V_B_P_\'_]_}_,_ _{_\'_t_e_x_t_\'_:_ _(_\'_^_\'_,_ _[_\'_a_\'_,_ _\'_a_n_\'_,_ _\'_t_h_e_\'_,_ _\'_a_s_\'_]_)_,_ _\'_n_o_d_e_T_y_p_e_\'_:_ _[_\'_T_o_k_e_n_\'_,_ _\'_A_d_j_e_c_t_i_v_e_T_o_k_e_n_\'_]_,_ _\'_p_o_s_\'_:_ _[_\'_R_B_\'_,_ _\'_W_D_T_\'_,_ _\'_D_T_\'_,_ _\'_J_J_\'_,_ _\'_P_R_P_\'_]_}_,_ _\'_*_\'_,_ _{_\'_n_o_d_e_T_y_p_e_\'_:_ _\'_T_o_k_e_n_\'_,_ _\'_p_o_s_\'_:_ _[_\'_V_B_D_\'_,_ _\'_V_B_N_\'_]_}_,_ _\'_|_\'_,_ _{_\'_n_o_d_e_T_y_p_e_\'_:_ _\'_T_o_k_e_n_\'_,_ _\'_p_o_s_\'_:_ _[_\'_V_B_\'_,_ _\'_V_B_P_\'_]_}_,_ _\'_)_\'_]'
p14
sS'initialState'
p15
I0
sS'states'
p16
(lp17
I3
aI11
aI10
aI2
aI9
aI4
aI12
aI6
aI14
aI7
aI1
aI8
aI5
aI0
aI13
asS'_arcMetadata'
p18
(dp19
sS'_isSorted'
p20
I1
sS'transitions'
p21
(lp22
(I0
I1
S"{'text': ',', 'nodeType': 'Token'}"
p23
tp24
a(I0
I2
S'{\'text\': [\'not\', "n\'t", \'neither\'], \'nodeType\': \'Token\'}'
p25
tp26
a(I0
I0
S"{'text': ('^', ['a', 'an', 'the', 'as']), 'nodeType': ['Token', 'AdjectiveToken'], 'pos': ['RB', 'WDT', 'DT', 'JJ', 'PRP']}"
tp27
a(I0
I3
S"{'text': 'be', 'nodeType': 'Token', 'pos': ['VB', 'VBP']}"
p28
tp29
a(I0
I4
S"{'nodeType': 'Token', 'pos': ['VB', 'VBP']}"
p30
tp31
a(I0
I5
S"{'text': 'have', 'nodeType': 'Token', 'pos': ['VB', 'VBP']}"
p32
tp33
a(I1
I6
S'ALL'
p34
tp35
a(I2
I1
g23
tp36
a(I2
I2
g25
tp37
a(I2
I7
S"{'text': ('^', ['a', 'an', 'the', 'as']), 'nodeType': ['Token', 'AdjectiveToken'], 'pos': ['RB', 'WDT', 'DT', 'JJ', 'PRP']}"
p38
tp39
a(I2
I3
g28
tp40
a(I2
I4
g30
tp41
a(I2
I5
g32
tp42
a(I3
I3
S"{'text': ('^', ['a', 'an', 'the', 'as']), 'nodeType': ['Token', 'AdjectiveToken'], 'pos': ['RB', 'WDT', 'DT', 'JJ', 'PRP']}"
tp43
a(I3
I8
S"{'text': 'being', 'nodeType': 'Token'}"
tp44
a(I3
I4
S"{'nodeType': 'Token', 'pos': 'VBG'}"
tp45
a(I3
I4
S"{'nodeType': 'Token', 'pos': ['VBD', 'VBN']}"
tp46
a(I3
I9
S"{'text': 'going', 'nodeType': 'Token'}"
tp47
a(I5
I4
S"{'nodeType': 'Token', 'pos': ['VBD', 'VBN']}"
p48
tp49
a(I5
I10
S"{'text': ('^', ['a', 'an', 'the', 'as']), 'nodeType': ['Token', 'AdjectiveToken'], 'pos': ['RB', 'WDT', 'DT', 'JJ', 'PRP']}"
p50
tp51
a(I5
I11
S"{'text': 'been', 'nodeType': 'Token'}"
p52
tp53
a(I5
I2
S"{'text': 'to', 'nodeType': 'Token'}"
tp54
a(I5
I9
S"{'text': 'had', 'nodeType': 'Token'}"
tp55
a(I6
I12
g34
tp56
a(I7
I7
g38
tp57
a(I7
I11
S"{'text': 'be', 'nodeType': 'Token', 'pos': ['VB', 'VBP']}"
tp58
a(I7
I10
S"{'text': 'have', 'nodeType': 'Token', 'pos': ['VB', 'VBP']}"
tp59
a(I7
I4
g30
tp60
a(I8
I8
S"{'text': ('^', ['a', 'an', 'the', 'as']), 'nodeType': ['Token', 'AdjectiveToken'], 'pos': ['RB', 'WDT', 'DT', 'JJ', 'PRP']}"
tp61
a(I8
I4
S"{'nodeType': 'Token', 'pos': ['VBD', 'VBN']}"
tp62
a(I9
I2
S"{'text': 'to', 'nodeType': 'Token'}"
tp63
a(I10
I10
g50
tp64
a(I10
I11
g52
tp65
a(I10
I4
g48
tp66
a(I11
I11
S"{'text': ('^', ['a', 'an', 'the', 'as']), 'nodeType': ['Token', 'AdjectiveToken'], 'pos': ['RB', 'WDT', 'DT', 'JJ', 'PRP']}"
tp67
a(I11
I8
S"{'text': 'being', 'nodeType': 'Token'}"
tp68
a(I11
I4
S"{'nodeType': 'Token', 'pos': 'VBG'}"
tp69
a(I11
I4
S"{'nodeType': 'Token', 'pos': ['VBD', 'VBN']}"
tp70
a(I12
I13
g34
tp71
a(I12
I2
S"{'text': ',', 'nodeType': 'Token'}"
p72
tp73
a(I13
I14
g34
tp74
a(I13
I2
g72
tp75
a(I14
I2
g72
tp76
asS'_isDeterminized'
p77
I1
sS'_isMinimized'
p78
I1
sba.