(lp1
(iutilities.FSA
FSA
p2
(dp3
S'fsaname'
p4
S'modal'
p5
sS'finalStates'
p6
(lp7
I4
asS'_isTrimmed'
p8
I1
sS'alphabet'
p9
NsS'label'
p10
S'[_{_\'_t_e_x_t_\'_:_ _(_\'_^_\'_,_ _[_\'_a_\'_,_ _\'_a_n_\'_,_ _\'_t_h_e_\'_,_ _\'_a_s_\'_]_)_,_ _\'_n_o_d_e_T_y_p_e_\'_:_ _[_\'_T_o_k_e_n_\'_,_ _\'_A_d_j_e_c_t_i_v_e_T_o_k_e_n_\'_]_,_ _\'_p_o_s_\'_:_ _[_\'_R_B_\'_,_ _\'_W_D_T_\'_,_ _\'_D_T_\'_,_ _\'_J_J_\'_,_ _\'_P_R_P_\'_]_}_,_ _\'_*_\'_,_ _\'_(_\'_,_ _{_\'_t_e_x_t_\'_:_ _\'_b_e_\'_,_ _\'_n_o_d_e_T_y_p_e_\'_:_ _\'_T_o_k_e_n_\'_,_ _\'_p_o_s_\'_:_ _[_\'_V_B_\'_,_ _\'_V_B_P_\'_]_}_,_ _{_\'_t_e_x_t_\'_:_ _(_\'_^_\'_,_ _[_\'_a_\'_,_ _\'_a_n_\'_,_ _\'_t_h_e_\'_,_ _\'_a_s_\'_]_)_,_ _\'_n_o_d_e_T_y_p_e_\'_:_ _[_\'_T_o_k_e_n_\'_,_ _\'_A_d_j_e_c_t_i_v_e_T_o_k_e_n_\'_]_,_ _\'_p_o_s_\'_:_ _[_\'_R_B_\'_,_ _\'_W_D_T_\'_,_ _\'_D_T_\'_,_ _\'_J_J_\'_,_ _\'_P_R_P_\'_]_}_,_ _\'_*_\'_,_ _{_\'_t_e_x_t_\'_:_ _\'_g_o_i_n_g_\'_,_ _\'_n_o_d_e_T_y_p_e_\'_:_ _\'_T_o_k_e_n_\'_}_,_ _{_\'_t_e_x_t_\'_:_ _\'_t_o_\'_,_ _\'_n_o_d_e_T_y_p_e_\'_:_ _\'_T_o_k_e_n_\'_}_,_ _\'_|_\'_,_ _{_\'_t_e_x_t_\'_:_ _[_\'_n_o_t_\'_,_ _"_n_\'_t_"_,_ _\'_n_e_i_t_h_e_r_\'_]_,_ _\'_n_o_d_e_T_y_p_e_\'_:_ _\'_T_o_k_e_n_\'_}_,_ _\'_|_\'_,_ _{_\'_t_e_x_t_\'_:_ _\'_h_a_v_e_\'_,_ _\'_n_o_d_e_T_y_p_e_\'_:_ _\'_T_o_k_e_n_\'_,_ _\'_p_o_s_\'_:_ _[_\'_V_B_\'_,_ _\'_V_B_P_\'_]_}_,_ _{_\'_t_e_x_t_\'_:_ _\'_h_a_d_\'_,_ _\'_n_o_d_e_T_y_p_e_\'_:_ _\'_T_o_k_e_n_\'_}_,_ _\'_?_\'_,_ _{_\'_t_e_x_t_\'_:_ _\'_t_o_\'_,_ _\'_n_o_d_e_T_y_p_e_\'_:_ _\'_T_o_k_e_n_\'_}_,_ _\'_|_\'_,_ _{_\'_t_e_x_t_\'_:_ _\'_,_\'_,_ _\'_n_o_d_e_T_y_p_e_\'_:_ _\'_T_o_k_e_n_\'_}_,_ _\'_._\'_,_ _\'_._\'_,_ _\'_._\'_,_ _\'_?_\'_,_ _\'_._\'_,_ _\'_?_\'_,_ _{_\'_t_e_x_t_\'_:_ _\'_,_\'_,_ _\'_n_o_d_e_T_y_p_e_\'_:_ _\'_T_o_k_e_n_\'_}_,_ _\'_)_\'_,_ _\'_*_\'_,_ _{_\'_t_e_x_t_\'_:_ _(_\'_^_\'_,_ _[_\'_a_\'_,_ _\'_a_n_\'_,_ _\'_t_h_e_\'_,_ _\'_a_s_\'_]_)_,_ _\'_n_o_d_e_T_y_p_e_\'_:_ _[_\'_T_o_k_e_n_\'_,_ _\'_A_d_j_e_c_t_i_v_e_T_o_k_e_n_\'_]_,_ _\'_p_o_s_\'_:_ _[_\'_R_B_\'_,_ _\'_W_D_T_\'_,_ _\'_D_T_\'_,_ _\'_J_J_\'_,_ _\'_P_R_P_\'_]_}_,_ _\'_*_\'_,_ _\'_(_\'_,_ _{_\'_t_e_x_t_\'_:_ _\'_h_a_v_e_\'_,_ _\'_n_o_d_e_T_y_p_e_\'_:_ _\'_T_o_k_e_n_\'_,_ _\'_p_o_s_\'_:_ _[_\'_V_B_\'_,_ _\'_V_B_P_\'_]_}_,_ _{_\'_t_e_x_t_\'_:_ _(_\'_^_\'_,_ _[_\'_a_\'_,_ _\'_a_n_\'_,_ _\'_t_h_e_\'_,_ _\'_a_s_\'_]_)_,_ _\'_n_o_d_e_T_y_p_e_\'_:_ _[_\'_T_o_k_e_n_\'_,_ _\'_A_d_j_e_c_t_i_v_e_T_o_k_e_n_\'_]_,_ _\'_p_o_s_\'_:_ _[_\'_R_B_\'_,_ _\'_W_D_T_\'_,_ _\'_D_T_\'_,_ _\'_J_J_\'_,_ _\'_P_R_P_\'_]_}_,_ _\'_*_\'_,_ _{_\'_t_e_x_t_\'_:_ _\'_b_e_e_n_\'_,_ _\'_n_o_d_e_T_y_p_e_\'_:_ _\'_T_o_k_e_n_\'_}_,_ _{_\'_t_e_x_t_\'_:_ _(_\'_^_\'_,_ _[_\'_a_\'_,_ _\'_a_n_\'_,_ _\'_t_h_e_\'_,_ _\'_a_s_\'_]_)_,_ _\'_n_o_d_e_T_y_p_e_\'_:_ _[_\'_T_o_k_e_n_\'_,_ _\'_A_d_j_e_c_t_i_v_e_T_o_k_e_n_\'_]_,_ _\'_p_o_s_\'_:_ _[_\'_R_B_\'_,_ _\'_W_D_T_\'_,_ _\'_D_T_\'_,_ _\'_J_J_\'_,_ _\'_P_R_P_\'_]_}_,_ _\'_*_\'_,_ _{_\'_t_e_x_t_\'_:_ _\'_b_e_i_n_g_\'_,_ _\'_n_o_d_e_T_y_p_e_\'_:_ _\'_T_o_k_e_n_\'_}_,_ _{_\'_t_e_x_t_\'_:_ _(_\'_^_\'_,_ _[_\'_a_\'_,_ _\'_a_n_\'_,_ _\'_t_h_e_\'_,_ _\'_a_s_\'_]_)_,_ _\'_n_o_d_e_T_y_p_e_\'_:_ _[_\'_T_o_k_e_n_\'_,_ _\'_A_d_j_e_c_t_i_v_e_T_o_k_e_n_\'_]_,_ _\'_p_o_s_\'_:_ _[_\'_R_B_\'_,_ _\'_W_D_T_\'_,_ _\'_D_T_\'_,_ _\'_J_J_\'_,_ _\'_P_R_P_\'_]_}_,_ _\'_*_\'_,_ _{_\'_n_o_d_e_T_y_p_e_\'_:_ _\'_T_o_k_e_n_\'_,_ _\'_p_o_s_\'_:_ _[_\'_V_B_D_\'_,_ _\'_V_B_N_\'_]_}_,_ _\'_|_\'_,_ _{_\'_t_e_x_t_\'_:_ _\'_b_e_\'_,_ _\'_n_o_d_e_T_y_p_e_\'_:_ _\'_T_o_k_e_n_\'_,_ _\'_p_o_s_\'_:_ _[_\'_V_B_\'_,_ _\'_V_B_P_\'_]_}_,_ _{_\'_t_e_x_t_\'_:_ _(_\'_^_\'_,_ _[_\'_a_\'_,_ _\'_a_n_\'_,_ _\'_t_h_e_\'_,_ _\'_a_s_\'_]_)_,_ _\'_n_o_d_e_T_y_p_e_\'_:_ _[_\'_T_o_k_e_n_\'_,_ _\'_A_d_j_e_c_t_i_v_e_T_o_k_e_n_\'_]_,_ _\'_p_o_s_\'_:_ _[_\'_R_B_\'_,_ _\'_W_D_T_\'_,_ _\'_D_T_\'_,_ _\'_J_J_\'_,_ _\'_P_R_P_\'_]_}_,_ _\'_*_\'_,_ _{_\'_t_e_x_t_\'_:_ _\'_b_e_i_n_g_\'_,_ _\'_n_o_d_e_T_y_p_e_\'_:_ _\'_T_o_k_e_n_\'_}_,_ _{_\'_t_e_x_t_\'_:_ _(_\'_^_\'_,_ _[_\'_a_\'_,_ _\'_a_n_\'_,_ _\'_t_h_e_\'_,_ _\'_a_s_\'_]_)_,_ _\'_n_o_d_e_T_y_p_e_\'_:_ _[_\'_T_o_k_e_n_\'_,_ _\'_A_d_j_e_c_t_i_v_e_T_o_k_e_n_\'_]_,_ _\'_p_o_s_\'_:_ _[_\'_R_B_\'_,_ _\'_W_D_T_\'_,_ _\'_D_T_\'_,_ _\'_J_J_\'_,_ _\'_P_R_P_\'_]_}_,_ _\'_*_\'_,_ _{_\'_n_o_d_e_T_y_p_e_\'_:_ _\'_T_o_k_e_n_\'_,_ _\'_p_o_s_\'_:_ _[_\'_V_B_D_\'_,_ _\'_V_B_N_\'_]_}_,_ _\'_|_\'_,_ _{_\'_t_e_x_t_\'_:_ _\'_h_a_v_e_\'_,_ _\'_n_o_d_e_T_y_p_e_\'_:_ _\'_T_o_k_e_n_\'_,_ _\'_p_o_s_\'_:_ _[_\'_V_B_\'_,_ _\'_V_B_P_\'_]_}_,_ _{_\'_t_e_x_t_\'_:_ _(_\'_^_\'_,_ _[_\'_a_\'_,_ _\'_a_n_\'_,_ _\'_t_h_e_\'_,_ _\'_a_s_\'_]_)_,_ _\'_n_o_d_e_T_y_p_e_\'_:_ _[_\'_T_o_k_e_n_\'_,_ _\'_A_d_j_e_c_t_i_v_e_T_o_k_e_n_\'_]_,_ _\'_p_o_s_\'_:_ _[_\'_R_B_\'_,_ _\'_W_D_T_\'_,_ _\'_D_T_\'_,_ _\'_J_J_\'_,_ _\'_P_R_P_\'_]_}_,_ _\'_*_\'_,_ _{_\'_t_e_x_t_\'_:_ _\'_b_e_e_n_\'_,_ _\'_n_o_d_e_T_y_p_e_\'_:_ _\'_T_o_k_e_n_\'_}_,_ _{_\'_t_e_x_t_\'_:_ _(_\'_^_\'_,_ _[_\'_a_\'_,_ _\'_a_n_\'_,_ _\'_t_h_e_\'_,_ _\'_a_s_\'_]_)_,_ _\'_n_o_d_e_T_y_p_e_\'_:_ _[_\'_T_o_k_e_n_\'_,_ _\'_A_d_j_e_c_t_i_v_e_T_o_k_e_n_\'_]_,_ _\'_p_o_s_\'_:_ _[_\'_R_B_\'_,_ _\'_W_D_T_\'_,_ _\'_D_T_\'_,_ _\'_J_J_\'_,_ _\'_P_R_P_\'_]_}_,_ _\'_*_\'_,_ _{_\'_n_o_d_e_T_y_p_e_\'_:_ _\'_T_o_k_e_n_\'_,_ _\'_p_o_s_\'_:_ _[_\'_V_B_D_\'_,_ _\'_V_B_N_\'_]_}_,_ _\'_|_\'_,_ _{_\'_t_e_x_t_\'_:_ _\'_h_a_v_e_\'_,_ _\'_n_o_d_e_T_y_p_e_\'_:_ _\'_T_o_k_e_n_\'_,_ _\'_p_o_s_\'_:_ _[_\'_V_B_\'_,_ _\'_V_B_P_\'_]_}_,_ _{_\'_t_e_x_t_\'_:_ _(_\'_^_\'_,_ _[_\'_a_\'_,_ _\'_a_n_\'_,_ _\'_t_h_e_\'_,_ _\'_a_s_\'_]_)_,_ _\'_n_o_d_e_T_y_p_e_\'_:_ _[_\'_T_o_k_e_n_\'_,_ _\'_A_d_j_e_c_t_i_v_e_T_o_k_e_n_\'_]_,_ _\'_p_o_s_\'_:_ _[_\'_R_B_\'_,_ _\'_W_D_T_\'_,_ _\'_D_T_\'_,_ _\'_J_J_\'_,_ _\'_P_R_P_\'_]_}_,_ _\'_*_\'_,_ _{_\'_t_e_x_t_\'_:_ _\'_b_e_e_n_\'_,_ _\'_n_o_d_e_T_y_p_e_\'_:_ _\'_T_o_k_e_n_\'_}_,_ _{_\'_t_e_x_t_\'_:_ _(_\'_^_\'_,_ _[_\'_a_\'_,_ _\'_a_n_\'_,_ _\'_t_h_e_\'_,_ _\'_a_s_\'_]_)_,_ _\'_n_o_d_e_T_y_p_e_\'_:_ _[_\'_T_o_k_e_n_\'_,_ _\'_A_d_j_e_c_t_i_v_e_T_o_k_e_n_\'_]_,_ _\'_p_o_s_\'_:_ _[_\'_R_B_\'_,_ _\'_W_D_T_\'_,_ _\'_D_T_\'_,_ _\'_J_J_\'_,_ _\'_P_R_P_\'_]_}_,_ _\'_*_\'_,_ _{_\'_n_o_d_e_T_y_p_e_\'_:_ _\'_T_o_k_e_n_\'_,_ _\'_p_o_s_\'_:_ _\'_V_B_G_\'_}_,_ _\'_|_\'_,_ _{_\'_t_e_x_t_\'_:_ _\'_b_e_\'_,_ _\'_n_o_d_e_T_y_p_e_\'_:_ _\'_T_o_k_e_n_\'_,_ _\'_p_o_s_\'_:_ _[_\'_V_B_\'_,_ _\'_V_B_P_\'_]_}_,_ _{_\'_t_e_x_t_\'_:_ _(_\'_^_\'_,_ _[_\'_a_\'_,_ _\'_a_n_\'_,_ _\'_t_h_e_\'_,_ _\'_a_s_\'_]_)_,_ _\'_n_o_d_e_T_y_p_e_\'_:_ _[_\'_T_o_k_e_n_\'_,_ _\'_A_d_j_e_c_t_i_v_e_T_o_k_e_n_\'_]_,_ _\'_p_o_s_\'_:_ _[_\'_R_B_\'_,_ _\'_W_D_T_\'_,_ _\'_D_T_\'_,_ _\'_J_J_\'_,_ _\'_P_R_P_\'_]_}_,_ _\'_*_\'_,_ _{_\'_n_o_d_e_T_y_p_e_\'_:_ _\'_T_o_k_e_n_\'_,_ _\'_p_o_s_\'_:_ _[_\'_V_B_D_\'_,_ _\'_V_B_N_\'_]_}_,_ _\'_|_\'_,_ _{_\'_t_e_x_t_\'_:_ _\'_b_e_\'_,_ _\'_n_o_d_e_T_y_p_e_\'_:_ _\'_T_o_k_e_n_\'_,_ _\'_p_o_s_\'_:_ _[_\'_V_B_\'_,_ _\'_V_B_P_\'_]_}_,_ _{_\'_t_e_x_t_\'_:_ _(_\'_^_\'_,_ _[_\'_a_\'_,_ _\'_a_n_\'_,_ _\'_t_h_e_\'_,_ _\'_a_s_\'_]_)_,_ _\'_n_o_d_e_T_y_p_e_\'_:_ _[_\'_T_o_k_e_n_\'_,_ _\'_A_d_j_e_c_t_i_v_e_T_o_k_e_n_\'_]_,_ _\'_p_o_s_\'_:_ _[_\'_R_B_\'_,_ _\'_W_D_T_\'_,_ _\'_D_T_\'_,_ _\'_J_J_\'_,_ _\'_P_R_P_\'_]_}_,_ _\'_*_\'_,_ _{_\'_n_o_d_e_T_y_p_e_\'_:_ _\'_T_o_k_e_n_\'_,_ _\'_p_o_s_\'_:_ _\'_V_B_G_\'_}_,_ _\'_|_\'_,_ _{_\'_t_e_x_t_\'_:_ _\'_h_a_v_e_\'_,_ _\'_n_o_d_e_T_y_p_e_\'_:_ _\'_T_o_k_e_n_\'_,_ _\'_p_o_s_\'_:_ _[_\'_V_B_\'_,_ _\'_V_B_P_\'_]_}_,_ _{_\'_t_e_x_t_\'_:_ _(_\'_^_\'_,_ _[_\'_a_\'_,_ _\'_a_n_\'_,_ _\'_t_h_e_\'_,_ _\'_a_s_\'_]_)_,_ _\'_n_o_d_e_T_y_p_e_\'_:_ _[_\'_T_o_k_e_n_\'_,_ _\'_A_d_j_e_c_t_i_v_e_T_o_k_e_n_\'_]_,_ _\'_p_o_s_\'_:_ _[_\'_R_B_\'_,_ _\'_W_D_T_\'_,_ _\'_D_T_\'_,_ _\'_J_J_\'_,_ _\'_P_R_P_\'_]_}_,_ _\'_*_\'_,_ _{_\'_n_o_d_e_T_y_p_e_\'_:_ _\'_T_o_k_e_n_\'_,_ _\'_p_o_s_\'_:_ _[_\'_V_B_D_\'_,_ _\'_V_B_N_\'_]_}_,_ _\'_|_\'_,_ _{_\'_n_o_d_e_T_y_p_e_\'_:_ _\'_T_o_k_e_n_\'_,_ _\'_p_o_s_\'_:_ _[_\'_V_B_\'_,_ _\'_V_B_P_\'_]_}_,_ _\'_)_\'_]'
p11
sS'initialState'
p12
I0
sS'states'
p13
(lp14
I3
aI11
aI10
aI2
aI9
aI4
aI12
aI6
aI14
aI7
aI1
aI8
aI5
aI0
aI13
asS'_arcMetadata'
p15
(dp16
sS'_isSorted'
p17
I1
sS'transitions'
p18
(lp19
(I0
I1
S"{'text': ',', 'nodeType': 'Token'}"
p20
tp21
a(I0
I2
S'{\'text\': [\'not\', "n\'t", \'neither\'], \'nodeType\': \'Token\'}'
p22
tp23
a(I0
I0
S"{'text': ('^', ['a', 'an', 'the', 'as']), 'nodeType': ['Token', 'AdjectiveToken'], 'pos': ['RB', 'WDT', 'DT', 'JJ', 'PRP']}"
tp24
a(I0
I3
S"{'text': 'be', 'nodeType': 'Token', 'pos': ['VB', 'VBP']}"
p25
tp26
a(I0
I4
S"{'nodeType': 'Token', 'pos': ['VB', 'VBP']}"
p27
tp28
a(I0
I5
S"{'text': 'have', 'nodeType': 'Token', 'pos': ['VB', 'VBP']}"
p29
tp30
a(I1
I6
S'ALL'
p31
tp32
a(I2
I1
g20
tp33
a(I2
I2
g22
tp34
a(I2
I7
S"{'text': ('^', ['a', 'an', 'the', 'as']), 'nodeType': ['Token', 'AdjectiveToken'], 'pos': ['RB', 'WDT', 'DT', 'JJ', 'PRP']}"
p35
tp36
a(I2
I3
g25
tp37
a(I2
I4
g27
tp38
a(I2
I5
g29
tp39
a(I3
I3
S"{'text': ('^', ['a', 'an', 'the', 'as']), 'nodeType': ['Token', 'AdjectiveToken'], 'pos': ['RB', 'WDT', 'DT', 'JJ', 'PRP']}"
tp40
a(I3
I8
S"{'text': 'being', 'nodeType': 'Token'}"
tp41
a(I3
I4
S"{'nodeType': 'Token', 'pos': 'VBG'}"
tp42
a(I3
I4
S"{'nodeType': 'Token', 'pos': ['VBD', 'VBN']}"
tp43
a(I3
I9
S"{'text': 'going', 'nodeType': 'Token'}"
tp44
a(I5
I4
S"{'nodeType': 'Token', 'pos': ['VBD', 'VBN']}"
p45
tp46
a(I5
I10
S"{'text': ('^', ['a', 'an', 'the', 'as']), 'nodeType': ['Token', 'AdjectiveToken'], 'pos': ['RB', 'WDT', 'DT', 'JJ', 'PRP']}"
p47
tp48
a(I5
I11
S"{'text': 'been', 'nodeType': 'Token'}"
p49
tp50
a(I5
I2
S"{'text': 'to', 'nodeType': 'Token'}"
tp51
a(I5
I9
S"{'text': 'had', 'nodeType': 'Token'}"
tp52
a(I6
I12
g31
tp53
a(I7
I7
g35
tp54
a(I7
I11
S"{'text': 'be', 'nodeType': 'Token', 'pos': ['VB', 'VBP']}"
tp55
a(I7
I10
S"{'text': 'have', 'nodeType': 'Token', 'pos': ['VB', 'VBP']}"
tp56
a(I7
I4
g27
tp57
a(I8
I8
S"{'text': ('^', ['a', 'an', 'the', 'as']), 'nodeType': ['Token', 'AdjectiveToken'], 'pos': ['RB', 'WDT', 'DT', 'JJ', 'PRP']}"
tp58
a(I8
I4
S"{'nodeType': 'Token', 'pos': ['VBD', 'VBN']}"
tp59
a(I9
I2
S"{'text': 'to', 'nodeType': 'Token'}"
tp60
a(I10
I10
g47
tp61
a(I10
I11
g49
tp62
a(I10
I4
g45
tp63
a(I11
I11
S"{'text': ('^', ['a', 'an', 'the', 'as']), 'nodeType': ['Token', 'AdjectiveToken'], 'pos': ['RB', 'WDT', 'DT', 'JJ', 'PRP']}"
tp64
a(I11
I8
S"{'text': 'being', 'nodeType': 'Token'}"
tp65
a(I11
I4
S"{'nodeType': 'Token', 'pos': 'VBG'}"
tp66
a(I11
I4
S"{'nodeType': 'Token', 'pos': ['VBD', 'VBN']}"
tp67
a(I12
I13
g31
tp68
a(I12
I2
S"{'text': ',', 'nodeType': 'Token'}"
p69
tp70
a(I13
I14
g31
tp71
a(I13
I2
g69
tp72
a(I14
I2
g69
tp73
asS'_isDeterminized'
p74
I1
sS'_isMinimized'
p75
I1
sba.