(lp1
ccopy_reg
_reconstructor
p2
(cutilities.FSA
FSA
p3
c__builtin__
object
p4
NtRp5
(dp6
S'fsaname'
p7
S'usedTo'
p8
sS'finalStates'
p9
(lp10
I2
asS'_isTrimmed'
p11
I1
sS'alphabet'
p12
NsS'label'
p13
S"[_{_'_t_e_x_t_'_:_ _(_'_^_'_,_ _[_'_a_'_,_ _'_a_n_'_,_ _'_t_h_e_'_,_ _'_a_s_'_]_)_,_ _'_n_o_d_e_T_y_p_e_'_:_ _[_'_T_o_k_e_n_'_,_ _'_A_d_j_e_c_t_i_v_e_T_o_k_e_n_'_]_,_ _'_p_o_s_'_:_ _[_'_R_B_'_,_ _'_W_D_T_'_,_ _'_D_T_'_,_ _'_J_J_'_,_ _'_P_R_P_'_]_}_,_ _'_*_'_,_ _{_'_t_e_x_t_'_:_ _'_t_o_'_,_ _'_n_o_d_e_T_y_p_e_'_:_ _'_T_o_k_e_n_'_}_,_ _{_'_t_e_x_t_'_:_ _(_'_^_'_,_ _[_'_a_'_,_ _'_a_n_'_,_ _'_t_h_e_'_,_ _'_a_s_'_]_)_,_ _'_n_o_d_e_T_y_p_e_'_:_ _[_'_T_o_k_e_n_'_,_ _'_A_d_j_e_c_t_i_v_e_T_o_k_e_n_'_]_,_ _'_p_o_s_'_:_ _[_'_R_B_'_,_ _'_W_D_T_'_,_ _'_D_T_'_,_ _'_J_J_'_,_ _'_P_R_P_'_]_}_,_ _'_*_'_,_ _{_'_n_o_d_e_T_y_p_e_'_:_ _'_T_o_k_e_n_'_,_ _'_p_o_s_'_:_ _[_'_V_B_'_,_ _'_V_B_P_'_]_}_]"
p14
sS'initialState'
p15
I0
sS'states'
p16
(lp17
I0
aI1
aI2
asS'_arcMetadata'
p18
(dp19
sS'_isSorted'
p20
I1
sS'transitions'
p21
(lp22
(I0
I0
S"{'text': ('^', ['a', 'an', 'the', 'as']), 'nodeType': ['Token', 'AdjectiveToken'], 'pos': ['RB', 'WDT', 'DT', 'JJ', 'PRP']}"
tp23
a(I0
I1
S"{'text': 'to', 'nodeType': 'Token'}"
tp24
a(I1
I1
S"{'text': ('^', ['a', 'an', 'the', 'as']), 'nodeType': ['Token', 'AdjectiveToken'], 'pos': ['RB', 'WDT', 'DT', 'JJ', 'PRP']}"
tp25
a(I1
I2
S"{'nodeType': 'Token', 'pos': ['VB', 'VBP']}"
tp26
asS'_isDeterminized'
p27
I1
sS'_isMinimized'
p28
I1
sba.